Archive member included to satisfy reference by file (symbol)

../../lib/libmc68000.a(printf.o)
                              vbug2-1.o (printf)
../../lib/libmc68000.a(strlen.o)
                              ../../lib/libmc68000.a(printf.o) (strlen)
../../lib/libmc68000.a(memset.o)
                              ../../lib/libmc68000.a(printf.o) (memset)
../../lib/libmc68000.a(putchar.o)
                              ../../lib/libmc68000.a(printf.o) (putchar)
../../lib/libmc68000.a(puts.o)
                              ../../lib/libmc68000.a(printf.o) (puts)

Discarded input sections

 .comment       0x00000000       0x13 vbug2-1.o
 .comment       0x00000000       0x13 drv_uart.o
 .comment       0x00000000       0x13 drv_kbd.o
 .comment       0x00000000       0x13 drv_picoVga.o
 .comment       0x00000000       0x13 vectors.o
 .comment       0x00000000       0x13 console.o
 .comment       0x00000000       0x13 ../../lib/libmc68000.a(printf.o)
 .comment       0x00000000       0x13 ../../lib/libmc68000.a(strlen.o)
 .comment       0x00000000       0x13 ../../lib/libmc68000.a(memset.o)
 .comment       0x00000000       0x13 ../../lib/libmc68000.a(putchar.o)
 .comment       0x00000000       0x13 ../../lib/libmc68000.a(puts.o)

Memory Configuration

Name             Origin             Length             Attributes
ROM              0x00000000         0x00008000         xr
RAM              0x00080000         0x00100000         xrw
*default*        0x00000000         0xffffffff

Linker script and memory map

                0x00000000                        . = 0x0

.vectors        0x00000000        0x0
 *(.vectors)
                0x00000000                        . = ALIGN (0x400)

.text           0x00000000      0x8ee
                0x00000000                        . = ALIGN (0x2)
 *(.text*)
 .text          0x00000000       0xe6 ../../obj/vbu2-1_startup.o
                0x000000c0                _start
 *fill*         0x000000e6        0x2 
 .text          0x000000e8       0x66 vbug2-1.o
                0x000000e8                main
 *fill*         0x0000014e        0x2 
 .text          0x00000150       0x86 drv_uart.o
                0x00000150                uart_init
                0x000001a0                uart_putchar
 *fill*         0x000001d6        0x2 
 .text          0x000001d8        0xa drv_kbd.o
                0x000001d8                init_kbd
 *fill*         0x000001e2        0x2 
 .text          0x000001e4       0x28 drv_picoVga.o
                0x000001e4                init_picoVga
                0x000001ee                picovga_putchar
 .text          0x0000020c      0x1bc vectors.o
                0x0000020c                SvcBusError
                0x00000216                Svcaddress_err
                0x00000220                SvcIllegalIns
                0x0000022a                SvcDiv0_handler
                0x00000234                SvcChkIns
                0x0000023e                SvcTrapvIns
                0x00000248                SvcPrivViolation
                0x00000252                SvcTrace
                0x0000025c                SvcLineA
                0x00000266                SvcLineF
                0x00000270                bad_exception
                0x0000027a                SpuriousHandler
                0x00000284                Int1Handler
                0x0000028e                Int2Handler
                0x00000298                Int3Handler
                0x000002a2                Int4Handler
                0x000002ac                Int5Handler
                0x000002b6                Int6Handler
                0x000002c0                Int7Handler
                0x000002ca                Trap0Handler
                0x000002d4                Trap1Handler
                0x0000033c                Trap2Handler
                0x00000346                Trap3Handler
                0x00000350                Trap4Handler
                0x0000035a                Trap5Handler
                0x00000364                Trap6Handler
                0x0000036e                Trap7Handler
                0x00000378                Trap8Handler
                0x00000382                Trap9Handler
                0x0000038c                TrapAHandler
                0x00000396                TrapBHandler
                0x000003a0                TrapCHandler
                0x000003aa                TrapDHandler
                0x000003b4                TrapEHandler
                0x000003be                TrapFHandler
 .text          0x000003c8       0x18 console.o
                0x000003c8                set_console_output
 .text          0x000003e0      0x3a6 ../../lib/libmc68000.a(printf.o)
                0x000003e0                itox
                0x0000042a                itodec
                0x00000488                itooct
                0x000004ce                itoudec
                0x00000520                pad_zeros
                0x00000564                printf
 *fill*         0x00000786        0x2 
 .text          0x00000788       0x12 ../../lib/libmc68000.a(strlen.o)
                0x00000788                strlen
 *fill*         0x0000079a        0x2 
 .text          0x0000079c       0x16 ../../lib/libmc68000.a(memset.o)
                0x0000079c                memset
 *fill*         0x000007b2        0x2 
 .text          0x000007b4       0x1a ../../lib/libmc68000.a(putchar.o)
                0x000007b4                putchar
 *fill*         0x000007ce        0x2 
 .text          0x000007d0       0x26 ../../lib/libmc68000.a(puts.o)
                0x000007d0                puts
 *(.rodata)
 .rodata        0x000007f6       0xd0 vbug2-1.o
                0x000007f6                MsgOrionInit
 .rodata        0x000008c6       0x28 ../../lib/libmc68000.a(printf.o)
                0x000008ee                        . = ALIGN (0x2)

.rodata         0x000008ee       0x20
                0x000008ee                        . = ALIGN (0x2)
 *(.rodata*)
 .rodata.str1.1
                0x000008ee       0x20 ../../lib/libmc68000.a(printf.o)
                0x0000090e                        . = ALIGN (0x2)

.data           0x00080000        0x0 load address 0x0000090e
                0x00080000                        . = ALIGN (0x2)
                0x00080000                        __data_start = .
 *(.data*)
 .data          0x00080000        0x0 ../../obj/vbu2-1_startup.o
 .data          0x00080000        0x0 vbug2-1.o
 .data          0x00080000        0x0 drv_uart.o
 .data          0x00080000        0x0 drv_kbd.o
 .data          0x00080000        0x0 drv_picoVga.o
 .data          0x00080000        0x0 vectors.o
 .data          0x00080000        0x0 console.o
 .data          0x00080000        0x0 ../../lib/libmc68000.a(printf.o)
 .data          0x00080000        0x0 ../../lib/libmc68000.a(strlen.o)
 .data          0x00080000        0x0 ../../lib/libmc68000.a(memset.o)
 .data          0x00080000        0x0 ../../lib/libmc68000.a(putchar.o)
 .data          0x00080000        0x0 ../../lib/libmc68000.a(puts.o)
                0x00080000                        . = ALIGN (0x2)
                0x00080000                        __data_end = .

.minha_ram      0x00080000        0x4 load address 0x0000090e
 .minha_ram     0x00080000        0x4 vbug2-1.o
                0x00080000                vbug_status_flag

.mram           0x00080000      0x100
 *(.mram)
 .mram          0x00080000      0x100 vbug2-1.o
                0x00080000                vbug_buffer
                0x0000090e                        __data_load_start = LOADADDR (.data)

.bss            0x00080100        0x8
                0x00080100                        . = ALIGN (0x2)
                0x00080100                        __bss_start = .
 *(.bss*)
 .bss           0x00080100        0x0 ../../obj/vbu2-1_startup.o
 .bss           0x00080100        0x0 vbug2-1.o
 .bss           0x00080100        0x0 drv_uart.o
 .bss           0x00080100        0x0 drv_kbd.o
 .bss           0x00080100        0x0 drv_picoVga.o
 .bss           0x00080100        0x0 vectors.o
 .bss           0x00080100        0x8 console.o
                0x00080100                cconin
                0x00080104                cconout
 .bss           0x00080108        0x0 ../../lib/libmc68000.a(printf.o)
 .bss           0x00080108        0x0 ../../lib/libmc68000.a(strlen.o)
 .bss           0x00080108        0x0 ../../lib/libmc68000.a(memset.o)
 .bss           0x00080108        0x0 ../../lib/libmc68000.a(putchar.o)
 .bss           0x00080108        0x0 ../../lib/libmc68000.a(puts.o)
 *(COMMON)
                0x00080108                        . = ALIGN (0x2)
                0x00080108                        __bss_end = .

.stack          0x00080108     0x1000
                0x00080108                        . = ALIGN (0x2)
                0x00080108                        _stack_start = .
                0x00081108                        . = (. + 0x1000)
 *fill*         0x00080108     0x1000 
                0x00081108                        . = ALIGN (0x2)
                0x00081108                        _stack_end = .

/DISCARD/
 *(.comment)
 *(.note*)
 *(.align*)
LOAD ../../obj/vbu2-1_startup.o
LOAD vbug2-1.o
LOAD drv_uart.o
LOAD drv_kbd.o
LOAD drv_picoVga.o
LOAD vectors.o
LOAD console.o
LOAD ../../lib/libmc68000.a
OUTPUT(vbug2-1.elf elf32-m68k)
