
/home/pdsilva/Projects/tcpbox68k/software/card_vga_pico2/build/vgaPico2.elf:     file format elf32-littlearm

Sections:
Idx Name          Size      VMA       LMA       File off  Algn
  0 .text         000061a4  10000000  10000000  00001000  2**3
                  CONTENTS, ALLOC, LOAD, READONLY, CODE
  1 .rodata       00003274  100061a8  100061a8  000071a8  2**3
                  CONTENTS, ALLOC, LOAD, READONLY, DATA
  2 .ARM.exidx    00000008  1000941c  1000941c  0000a41c  2**2
                  CONTENTS, ALLOC, LOAD, READONLY, DATA
  3 .binary_info  00000020  10009424  10009424  0000a424  2**2
                  CONTENTS, ALLOC, LOAD, READONLY, DATA
  4 .ram_vector_table 00000110  20000000  20000000  0000c000  2**2
                  ALLOC
  5 .uninitialized_data 00000000  20000110  20000110  0000bfa8  2**0
                  CONTENTS
  6 .data         00000b50  20000110  10009444  0000b110  2**3
                  CONTENTS, ALLOC, LOAD, READONLY, CODE
  7 .tdata        00000000  20000c60  20000c60  0000bfa8  2**0
                  CONTENTS, ALLOC, LOAD, DATA, THREAD_LOCAL
  8 .tbss         00000000  20000c60  20000c60  00000000  2**0
                  ALLOC, THREAD_LOCAL
  9 .bss          00025e5c  20000c60  10009f94  0000cc60  2**3
                  ALLOC
 10 .heap         00000800  20026abc  10009f94  0000cabc  2**2
                  ALLOC, READONLY
 11 .scratch_x    00000000  20080000  20080000  0000bfa8  2**0
                  CONTENTS
 12 .scratch_y    00000000  20081000  20081000  0000bfa8  2**0
                  CONTENTS
 13 .stack1_dummy 00000800  20080000  20080000  0000c000  2**2
                  ALLOC
 14 .stack_dummy  00000800  20081000  20081000  0000c000  2**5
                  ALLOC, READONLY
 15 .flash_end    00000014  10009f94  10009f94  0000bf94  2**2
                  CONTENTS, ALLOC, LOAD, READONLY, DATA
 16 .ARM.attributes 00000034  00000000  00000000  0000bfa8  2**0
                  CONTENTS, READONLY
 17 .comment      00000045  00000000  00000000  0000bfdc  2**0
                  CONTENTS, READONLY
 18 .debug_info   00035be3  00000000  00000000  0000c021  2**0
                  CONTENTS, READONLY, DEBUGGING, OCTETS
 19 .debug_abbrev 000086b6  00000000  00000000  00041c04  2**0
                  CONTENTS, READONLY, DEBUGGING, OCTETS
 20 .debug_loclists 00016a99  00000000  00000000  0004a2ba  2**0
                  CONTENTS, READONLY, DEBUGGING, OCTETS
 21 .debug_aranges 00001180  00000000  00000000  00060d58  2**3
                  CONTENTS, READONLY, DEBUGGING, OCTETS
 22 .debug_rnglists 00004790  00000000  00000000  00061ed8  2**0
                  CONTENTS, READONLY, DEBUGGING, OCTETS
 23 .debug_line   0001f335  00000000  00000000  00066668  2**0
                  CONTENTS, READONLY, DEBUGGING, OCTETS
 24 .debug_str    000083f4  00000000  00000000  0008599d  2**0
                  CONTENTS, READONLY, DEBUGGING, OCTETS
 25 .debug_frame  00003344  00000000  00000000  0008dd94  2**2
                  CONTENTS, READONLY, DEBUGGING, OCTETS
 26 .debug_line_str 00000287  00000000  00000000  000910d8  2**0
                  CONTENTS, READONLY, DEBUGGING, OCTETS

/home/pdsilva/Projects/tcpbox68k/software/card_vga_pico2/build/vgaPico2.elf:     file format elf32-littlearm


Disassembly of section .text:

10000000 <__VECTOR_TABLE>:
10000000:	20082000 	.word	0x20082000
10000004:	1000015d 	.word	0x1000015d
10000008:	1000011b 	.word	0x1000011b
1000000c:	1000011d 	.word	0x1000011d
10000010:	10000111 	.word	0x10000111
10000014:	10000111 	.word	0x10000111
10000018:	10000111 	.word	0x10000111
1000001c:	10000111 	.word	0x10000111
10000020:	10000119 	.word	0x10000119
10000024:	10000119 	.word	0x10000119
10000028:	10000119 	.word	0x10000119
1000002c:	1000011f 	.word	0x1000011f
10000030:	10000111 	.word	0x10000111
10000034:	10000119 	.word	0x10000119
10000038:	10000121 	.word	0x10000121
1000003c:	10000123 	.word	0x10000123
10000040:	10000111 	.word	0x10000111
10000044:	10000111 	.word	0x10000111
10000048:	10000111 	.word	0x10000111
1000004c:	10000111 	.word	0x10000111
10000050:	10000111 	.word	0x10000111
10000054:	10000111 	.word	0x10000111
10000058:	10000111 	.word	0x10000111
1000005c:	10000111 	.word	0x10000111
10000060:	10000111 	.word	0x10000111
10000064:	10000111 	.word	0x10000111
10000068:	10000111 	.word	0x10000111
1000006c:	10000111 	.word	0x10000111
10000070:	10000111 	.word	0x10000111
10000074:	10000111 	.word	0x10000111
10000078:	10000111 	.word	0x10000111
1000007c:	10000111 	.word	0x10000111
10000080:	10000111 	.word	0x10000111
10000084:	10000111 	.word	0x10000111
10000088:	10000111 	.word	0x10000111
1000008c:	10000111 	.word	0x10000111
10000090:	10000111 	.word	0x10000111
10000094:	10000111 	.word	0x10000111
10000098:	10000111 	.word	0x10000111
1000009c:	10000111 	.word	0x10000111
100000a0:	10000111 	.word	0x10000111
100000a4:	10000111 	.word	0x10000111
100000a8:	10000111 	.word	0x10000111
100000ac:	10000111 	.word	0x10000111
100000b0:	10000111 	.word	0x10000111
100000b4:	10000111 	.word	0x10000111
100000b8:	10000111 	.word	0x10000111
100000bc:	10000111 	.word	0x10000111
100000c0:	10000111 	.word	0x10000111
100000c4:	10000111 	.word	0x10000111
100000c8:	10000111 	.word	0x10000111
100000cc:	10000111 	.word	0x10000111
100000d0:	10000111 	.word	0x10000111
100000d4:	10000111 	.word	0x10000111
100000d8:	10000111 	.word	0x10000111
100000dc:	10000111 	.word	0x10000111
100000e0:	10000111 	.word	0x10000111
100000e4:	10000111 	.word	0x10000111
100000e8:	10000111 	.word	0x10000111
100000ec:	10000111 	.word	0x10000111
100000f0:	10000111 	.word	0x10000111
100000f4:	10000111 	.word	0x10000111
100000f8:	10000111 	.word	0x10000111
100000fc:	10000111 	.word	0x10000111
10000100:	10000111 	.word	0x10000111
10000104:	10000111 	.word	0x10000111
10000108:	10000111 	.word	0x10000111
1000010c:	10000111 	.word	0x10000111

10000110 <__unhandled_user_irq>:
10000110:	f3ef 8005 	mrs	r0, IPSR
10000114:	3810      	subs	r0, #16

10000116 <unhandled_user_irq_num_in_r0>:
10000116:	be00      	bkpt	0x0000

10000118 <isr_invalid>:
10000118:	be00      	bkpt	0x0000

1000011a <isr_nmi>:
1000011a:	be00      	bkpt	0x0000

1000011c <isr_hardfault>:
1000011c:	be00      	bkpt	0x0000

1000011e <isr_svcall>:
1000011e:	be00      	bkpt	0x0000

10000120 <isr_pendsv>:
10000120:	be00      	bkpt	0x0000

10000122 <isr_systick>:
10000122:	be00      	bkpt	0x0000

10000124 <__default_isrs_end>:
10000124:	7188ebf2 	.word	0x7188ebf2
10000128:	10009424 	.word	0x10009424
1000012c:	10009444 	.word	0x10009444
10000130:	100001a0 	.word	0x100001a0
10000134:	e71aa390 	.word	0xe71aa390

10000138 <__binary_info_header_end>:
10000138:	ffffded3 	.word	0xffffded3
1000013c:	10210142 	.word	0x10210142
10000140:	000001ff 	.word	0x000001ff
10000144:	00009e5c 	.word	0x00009e5c
10000148:	ab123579 	.word	0xab123579

1000014c <_entry_point>:
1000014c:	f04f 0000 	mov.w	r0, #0

10000150 <_enter_vtable_in_r0>:
10000150:	491e      	ldr	r1, [pc, #120]	@ (100001cc <data_cpy_table+0x2c>)
10000152:	6008      	str	r0, [r1, #0]
10000154:	c806      	ldmia	r0!, {r1, r2}
10000156:	f381 8808 	msr	MSP, r1
1000015a:	4710      	bx	r2

1000015c <_reset_handler>:
1000015c:	f04f 4050 	mov.w	r0, #3489660928	@ 0xd0000000
10000160:	6800      	ldr	r0, [r0, #0]
10000162:	b110      	cbz	r0, 1000016a <hold_non_core0_in_bootrom+0x6>

10000164 <hold_non_core0_in_bootrom>:
10000164:	f04f 0000 	mov.w	r0, #0
10000168:	e7f2      	b.n	10000150 <_enter_vtable_in_r0>
1000016a:	a40d      	add	r4, pc, #52	@ (adr r4, 100001a0 <data_cpy_table>)
1000016c:	cc0e      	ldmia	r4!, {r1, r2, r3}
1000016e:	2900      	cmp	r1, #0
10000170:	d002      	beq.n	10000178 <hold_non_core0_in_bootrom+0x14>
10000172:	f000 f812 	bl	1000019a <data_cpy>
10000176:	e7f9      	b.n	1000016c <hold_non_core0_in_bootrom+0x8>
10000178:	4915      	ldr	r1, [pc, #84]	@ (100001d0 <data_cpy_table+0x30>)
1000017a:	4a16      	ldr	r2, [pc, #88]	@ (100001d4 <data_cpy_table+0x34>)
1000017c:	2000      	movs	r0, #0
1000017e:	e000      	b.n	10000182 <bss_fill_test>

10000180 <bss_fill_loop>:
10000180:	c101      	stmia	r1!, {r0}

10000182 <bss_fill_test>:
10000182:	4291      	cmp	r1, r2
10000184:	d1fc      	bne.n	10000180 <bss_fill_loop>

10000186 <platform_entry>:
10000186:	4914      	ldr	r1, [pc, #80]	@ (100001d8 <data_cpy_table+0x38>)
10000188:	4788      	blx	r1
1000018a:	4914      	ldr	r1, [pc, #80]	@ (100001dc <data_cpy_table+0x3c>)
1000018c:	4788      	blx	r1
1000018e:	4914      	ldr	r1, [pc, #80]	@ (100001e0 <data_cpy_table+0x40>)
10000190:	4788      	blx	r1
10000192:	be00      	bkpt	0x0000
10000194:	e7fd      	b.n	10000192 <platform_entry+0xc>

10000196 <data_cpy_loop>:
10000196:	c901      	ldmia	r1!, {r0}
10000198:	c201      	stmia	r2!, {r0}

1000019a <data_cpy>:
1000019a:	429a      	cmp	r2, r3
1000019c:	d3fb      	bcc.n	10000196 <data_cpy_loop>
1000019e:	4770      	bx	lr

100001a0 <data_cpy_table>:
100001a0:	10009444 	.word	0x10009444
100001a4:	20000110 	.word	0x20000110
100001a8:	20000c60 	.word	0x20000c60
100001ac:	10009f94 	.word	0x10009f94
100001b0:	20080000 	.word	0x20080000
100001b4:	20080000 	.word	0x20080000
100001b8:	10009f94 	.word	0x10009f94
100001bc:	20081000 	.word	0x20081000
100001c0:	20081000 	.word	0x20081000
100001c4:	00000000 	.word	0x00000000
100001c8:	4770      	bx	lr
100001ca:	0000      	.short	0x0000
100001cc:	e000ed08 	.word	0xe000ed08
100001d0:	20000c60 	.word	0x20000c60
100001d4:	20026abc 	.word	0x20026abc
100001d8:	10004f45 	.word	0x10004f45
100001dc:	1000086d 	.word	0x1000086d
100001e0:	10004f3d 	.word	0x10004f3d

100001e4 <_init>:
100001e4:	b5f8      	push	{r3, r4, r5, r6, r7, lr}
100001e6:	bf00      	nop

100001e8 <register_tm_clones>:
100001e8:	4b06      	ldr	r3, [pc, #24]	@ (10000204 <register_tm_clones+0x1c>)
100001ea:	4907      	ldr	r1, [pc, #28]	@ (10000208 <register_tm_clones+0x20>)
100001ec:	1ac9      	subs	r1, r1, r3
100001ee:	1089      	asrs	r1, r1, #2
100001f0:	bf48      	it	mi
100001f2:	3101      	addmi	r1, #1
100001f4:	1049      	asrs	r1, r1, #1
100001f6:	d003      	beq.n	10000200 <register_tm_clones+0x18>
100001f8:	4b04      	ldr	r3, [pc, #16]	@ (1000020c <register_tm_clones+0x24>)
100001fa:	b10b      	cbz	r3, 10000200 <register_tm_clones+0x18>
100001fc:	4801      	ldr	r0, [pc, #4]	@ (10000204 <register_tm_clones+0x1c>)
100001fe:	4718      	bx	r3
10000200:	4770      	bx	lr
10000202:	bf00      	nop
10000204:	20000c60 	.word	0x20000c60
10000208:	20000c60 	.word	0x20000c60
1000020c:	00000000 	.word	0x00000000

10000210 <frame_dummy>:
10000210:	b508      	push	{r3, lr}
10000212:	4b05      	ldr	r3, [pc, #20]	@ (10000228 <frame_dummy+0x18>)
10000214:	b11b      	cbz	r3, 1000021e <frame_dummy+0xe>
10000216:	4905      	ldr	r1, [pc, #20]	@ (1000022c <frame_dummy+0x1c>)
10000218:	4805      	ldr	r0, [pc, #20]	@ (10000230 <frame_dummy+0x20>)
1000021a:	f3af 8000 	nop.w
1000021e:	e8bd 4008 	ldmia.w	sp!, {r3, lr}
10000222:	f7ff bfe1 	b.w	100001e8 <register_tm_clones>
10000226:	bf00      	nop
10000228:	00000000 	.word	0x00000000
1000022c:	200010b0 	.word	0x200010b0
10000230:	100061a4 	.word	0x100061a4

10000234 <protothread_print_bus_read>:
10000234:	b5f0      	push	{r4, r5, r6, r7, lr}
10000236:	4604      	mov	r4, r0
10000238:	b0c3      	sub	sp, #268	@ 0x10c
1000023a:	f44f 7280 	mov.w	r2, #256	@ 0x100
1000023e:	2100      	movs	r1, #0
10000240:	a802      	add	r0, sp, #8
10000242:	f005 fd0d 	bl	10005c60 <memset>
10000246:	6823      	ldr	r3, [r4, #0]
10000248:	b11b      	cbz	r3, 10000252 <protothread_print_bus_read+0x1e>
1000024a:	2501      	movs	r5, #1
1000024c:	432b      	orrs	r3, r5
1000024e:	4fa6      	ldr	r7, [pc, #664]	@ (100004e8 <protothread_print_bus_read+0x2b4>)
10000250:	4718      	bx	r3
10000252:	4ba6      	ldr	r3, [pc, #664]	@ (100004ec <protothread_print_bus_read+0x2b8>)
10000254:	781b      	ldrb	r3, [r3, #0]
10000256:	2b00      	cmp	r3, #0
10000258:	d061      	beq.n	1000031e <protothread_print_bus_read+0xea>
1000025a:	4ea5      	ldr	r6, [pc, #660]	@ (100004f0 <protothread_print_bus_read+0x2bc>)
1000025c:	7835      	ldrb	r5, [r6, #0]
1000025e:	2d00      	cmp	r5, #0
10000260:	d15d      	bne.n	1000031e <protothread_print_bus_read+0xea>
10000262:	4ba4      	ldr	r3, [pc, #656]	@ (100004f4 <protothread_print_bus_read+0x2c0>)
10000264:	4aa4      	ldr	r2, [pc, #656]	@ (100004f8 <protothread_print_bus_read+0x2c4>)
10000266:	681b      	ldr	r3, [r3, #0]
10000268:	6812      	ldr	r2, [r2, #0]
1000026a:	f10d 0107 	add.w	r1, sp, #7
1000026e:	f10d 0006 	add.w	r0, sp, #6
10000272:	f001 fd07 	bl	10001c84 <bus_try_get_event>
10000276:	b120      	cbz	r0, 10000282 <protothread_print_bus_read+0x4e>
10000278:	f89d 3006 	ldrb.w	r3, [sp, #6]
1000027c:	2ba5      	cmp	r3, #165	@ 0xa5
1000027e:	f000 80ab 	beq.w	100003d8 <protothread_print_bus_read+0x1a4>
10000282:	4b9e      	ldr	r3, [pc, #632]	@ (100004fc <protothread_print_bus_read+0x2c8>)
10000284:	6023      	str	r3, [r4, #0]
10000286:	2d00      	cmp	r5, #0
10000288:	d046      	beq.n	10000318 <protothread_print_bus_read+0xe4>
1000028a:	f002 fd29 	bl	10002ce0 <time_us_64>
1000028e:	4e9c      	ldr	r6, [pc, #624]	@ (10000500 <protothread_print_bus_read+0x2cc>)
10000290:	e9d6 2300 	ldrd	r2, r3, [r6]
10000294:	4290      	cmp	r0, r2
10000296:	4199      	sbcs	r1, r3
10000298:	d33e      	bcc.n	10000318 <protothread_print_bus_read+0xe4>
1000029a:	f04f 4350 	mov.w	r3, #3489660928	@ 0xd0000000
1000029e:	681b      	ldr	r3, [r3, #0]
100002a0:	2b01      	cmp	r3, #1
100002a2:	d050      	beq.n	10000346 <protothread_print_bus_read+0x112>
100002a4:	2201      	movs	r2, #1
100002a6:	4b97      	ldr	r3, [pc, #604]	@ (10000504 <protothread_print_bus_read+0x2d0>)
100002a8:	601a      	str	r2, [r3, #0]
100002aa:	f002 fd19 	bl	10002ce0 <time_us_64>
100002ae:	3001      	adds	r0, #1
100002b0:	f141 0100 	adc.w	r1, r1, #0
100002b4:	e9c6 0100 	strd	r0, r1, [r6]
100002b8:	4e8d      	ldr	r6, [pc, #564]	@ (100004f0 <protothread_print_bus_read+0x2bc>)
100002ba:	7835      	ldrb	r5, [r6, #0]
100002bc:	bb7d      	cbnz	r5, 1000031e <protothread_print_bus_read+0xea>
100002be:	e7d0      	b.n	10000262 <protothread_print_bus_read+0x2e>
100002c0:	f002 fd0e 	bl	10002ce0 <time_us_64>
100002c4:	4e8e      	ldr	r6, [pc, #568]	@ (10000500 <protothread_print_bus_read+0x2cc>)
100002c6:	e9d6 2300 	ldrd	r2, r3, [r6]
100002ca:	4290      	cmp	r0, r2
100002cc:	4199      	sbcs	r1, r3
100002ce:	d323      	bcc.n	10000318 <protothread_print_bus_read+0xe4>
100002d0:	f04f 4350 	mov.w	r3, #3489660928	@ 0xd0000000
100002d4:	681b      	ldr	r3, [r3, #0]
100002d6:	2b01      	cmp	r3, #1
100002d8:	f000 80ec 	beq.w	100004b4 <protothread_print_bus_read+0x280>
100002dc:	2201      	movs	r2, #1
100002de:	4b89      	ldr	r3, [pc, #548]	@ (10000504 <protothread_print_bus_read+0x2d0>)
100002e0:	601a      	str	r2, [r3, #0]
100002e2:	f002 fcfd 	bl	10002ce0 <time_us_64>
100002e6:	2500      	movs	r5, #0
100002e8:	3001      	adds	r0, #1
100002ea:	4b82      	ldr	r3, [pc, #520]	@ (100004f4 <protothread_print_bus_read+0x2c0>)
100002ec:	4a82      	ldr	r2, [pc, #520]	@ (100004f8 <protothread_print_bus_read+0x2c4>)
100002ee:	f141 0100 	adc.w	r1, r1, #0
100002f2:	6030      	str	r0, [r6, #0]
100002f4:	6071      	str	r1, [r6, #4]
100002f6:	681b      	ldr	r3, [r3, #0]
100002f8:	6812      	ldr	r2, [r2, #0]
100002fa:	f10d 0107 	add.w	r1, sp, #7
100002fe:	f10d 0006 	add.w	r0, sp, #6
10000302:	f88d 5006 	strb.w	r5, [sp, #6]
10000306:	f88d 5007 	strb.w	r5, [sp, #7]
1000030a:	f001 fcbb 	bl	10001c84 <bus_try_get_event>
1000030e:	b9e8      	cbnz	r0, 1000034c <protothread_print_bus_read+0x118>
10000310:	2500      	movs	r5, #0
10000312:	6027      	str	r7, [r4, #0]
10000314:	2d00      	cmp	r5, #0
10000316:	d1d3      	bne.n	100002c0 <protothread_print_bus_read+0x8c>
10000318:	2001      	movs	r0, #1
1000031a:	b043      	add	sp, #268	@ 0x10c
1000031c:	bdf0      	pop	{r4, r5, r6, r7, pc}
1000031e:	2101      	movs	r1, #1
10000320:	4a74      	ldr	r2, [pc, #464]	@ (100004f4 <protothread_print_bus_read+0x2c0>)
10000322:	4b75      	ldr	r3, [pc, #468]	@ (100004f8 <protothread_print_bus_read+0x2c4>)
10000324:	6810      	ldr	r0, [r2, #0]
10000326:	681b      	ldr	r3, [r3, #0]
10000328:	3008      	adds	r0, #8
1000032a:	685a      	ldr	r2, [r3, #4]
1000032c:	4081      	lsls	r1, r0
1000032e:	420a      	tst	r2, r1
10000330:	d104      	bne.n	1000033c <protothread_print_bus_read+0x108>
10000332:	f853 2020 	ldr.w	r2, [r3, r0, lsl #2]
10000336:	685a      	ldr	r2, [r3, #4]
10000338:	420a      	tst	r2, r1
1000033a:	d0fa      	beq.n	10000332 <protothread_print_bus_read+0xfe>
1000033c:	2001      	movs	r0, #1
1000033e:	4b6a      	ldr	r3, [pc, #424]	@ (100004e8 <protothread_print_bus_read+0x2b4>)
10000340:	6023      	str	r3, [r4, #0]
10000342:	b043      	add	sp, #268	@ 0x10c
10000344:	bdf0      	pop	{r4, r5, r6, r7, pc}
10000346:	4a70      	ldr	r2, [pc, #448]	@ (10000508 <protothread_print_bus_read+0x2d4>)
10000348:	6013      	str	r3, [r2, #0]
1000034a:	e7ae      	b.n	100002aa <protothread_print_bus_read+0x76>
1000034c:	f89d 6007 	ldrb.w	r6, [sp, #7]
10000350:	2e1e      	cmp	r6, #30
10000352:	d8de      	bhi.n	10000312 <protothread_print_bus_read+0xde>
10000354:	a301      	add	r3, pc, #4	@ (adr r3, 1000035c <protothread_print_bus_read+0x128>)
10000356:	f853 f026 	ldr.w	pc, [r3, r6, lsl #2]
1000035a:	bf00      	nop
1000035c:	10000499 	.word	0x10000499
10000360:	10000313 	.word	0x10000313
10000364:	10000313 	.word	0x10000313
10000368:	10000313 	.word	0x10000313
1000036c:	10000313 	.word	0x10000313
10000370:	10000313 	.word	0x10000313
10000374:	10000313 	.word	0x10000313
10000378:	10000313 	.word	0x10000313
1000037c:	10000313 	.word	0x10000313
10000380:	10000313 	.word	0x10000313
10000384:	10000313 	.word	0x10000313
10000388:	10000313 	.word	0x10000313
1000038c:	10000313 	.word	0x10000313
10000390:	10000313 	.word	0x10000313
10000394:	10000313 	.word	0x10000313
10000398:	10000313 	.word	0x10000313
1000039c:	10000313 	.word	0x10000313
100003a0:	10000313 	.word	0x10000313
100003a4:	10000313 	.word	0x10000313
100003a8:	10000477 	.word	0x10000477
100003ac:	10000443 	.word	0x10000443
100003b0:	10000313 	.word	0x10000313
100003b4:	1000043f 	.word	0x1000043f
100003b8:	10000433 	.word	0x10000433
100003bc:	10000421 	.word	0x10000421
100003c0:	10000415 	.word	0x10000415
100003c4:	100003e9 	.word	0x100003e9
100003c8:	100003e9 	.word	0x100003e9
100003cc:	100003e9 	.word	0x100003e9
100003d0:	100003e9 	.word	0x100003e9
100003d4:	100003f7 	.word	0x100003f7
100003d8:	f89d 3007 	ldrb.w	r3, [sp, #7]
100003dc:	2b04      	cmp	r3, #4
100003de:	f47f af50 	bne.w	10000282 <protothread_print_bus_read+0x4e>
100003e2:	2301      	movs	r3, #1
100003e4:	7033      	strb	r3, [r6, #0]
100003e6:	e74c      	b.n	10000282 <protothread_print_bus_read+0x4e>
100003e8:	4b48      	ldr	r3, [pc, #288]	@ (1000050c <protothread_print_bus_read+0x2d8>)
100003ea:	4849      	ldr	r0, [pc, #292]	@ (10000510 <protothread_print_bus_read+0x2dc>)
100003ec:	681b      	ldr	r3, [r3, #0]
100003ee:	2500      	movs	r5, #0
100003f0:	6adb      	ldr	r3, [r3, #44]	@ 0x2c
100003f2:	4798      	blx	r3
100003f4:	e78d      	b.n	10000312 <protothread_print_bus_read+0xde>
100003f6:	f89d 2006 	ldrb.w	r2, [sp, #6]
100003fa:	4b44      	ldr	r3, [pc, #272]	@ (1000050c <protothread_print_bus_read+0x2d8>)
100003fc:	2aa3      	cmp	r2, #163	@ 0xa3
100003fe:	681b      	ldr	r3, [r3, #0]
10000400:	d069      	beq.n	100004d6 <protothread_print_bus_read+0x2a2>
10000402:	2aa4      	cmp	r2, #164	@ 0xa4
10000404:	d064      	beq.n	100004d0 <protothread_print_bus_read+0x29c>
10000406:	2aa1      	cmp	r2, #161	@ 0xa1
10000408:	d05e      	beq.n	100004c8 <protothread_print_bus_read+0x294>
1000040a:	6adb      	ldr	r3, [r3, #44]	@ 0x2c
1000040c:	4841      	ldr	r0, [pc, #260]	@ (10000514 <protothread_print_bus_read+0x2e0>)
1000040e:	4798      	blx	r3
10000410:	2500      	movs	r5, #0
10000412:	e77e      	b.n	10000312 <protothread_print_bus_read+0xde>
10000414:	4b40      	ldr	r3, [pc, #256]	@ (10000518 <protothread_print_bus_read+0x2e4>)
10000416:	f89d 2006 	ldrb.w	r2, [sp, #6]
1000041a:	2500      	movs	r5, #0
1000041c:	801a      	strh	r2, [r3, #0]
1000041e:	e778      	b.n	10000312 <protothread_print_bus_read+0xde>
10000420:	4a3d      	ldr	r2, [pc, #244]	@ (10000518 <protothread_print_bus_read+0x2e4>)
10000422:	f89d 1006 	ldrb.w	r1, [sp, #6]
10000426:	8813      	ldrh	r3, [r2, #0]
10000428:	2500      	movs	r5, #0
1000042a:	ea43 2301 	orr.w	r3, r3, r1, lsl #8
1000042e:	8013      	strh	r3, [r2, #0]
10000430:	e76f      	b.n	10000312 <protothread_print_bus_read+0xde>
10000432:	4b3a      	ldr	r3, [pc, #232]	@ (1000051c <protothread_print_bus_read+0x2e8>)
10000434:	f89d 2006 	ldrb.w	r2, [sp, #6]
10000438:	2500      	movs	r5, #0
1000043a:	801a      	strh	r2, [r3, #0]
1000043c:	e769      	b.n	10000312 <protothread_print_bus_read+0xde>
1000043e:	4a37      	ldr	r2, [pc, #220]	@ (1000051c <protothread_print_bus_read+0x2e8>)
10000440:	e7ef      	b.n	10000422 <protothread_print_bus_read+0x1ee>
10000442:	f89d 3006 	ldrb.w	r3, [sp, #6]
10000446:	4d36      	ldr	r5, [pc, #216]	@ (10000520 <protothread_print_bus_read+0x2ec>)
10000448:	4e36      	ldr	r6, [pc, #216]	@ (10000524 <protothread_print_bus_read+0x2f0>)
1000044a:	091a      	lsrs	r2, r3, #4
1000044c:	4936      	ldr	r1, [pc, #216]	@ (10000528 <protothread_print_bus_read+0x2f4>)
1000044e:	f003 030f 	and.w	r3, r3, #15
10000452:	a802      	add	r0, sp, #8
10000454:	702a      	strb	r2, [r5, #0]
10000456:	7033      	strb	r3, [r6, #0]
10000458:	f004 fd2a 	bl	10004eb0 <__wrap_sprintf>
1000045c:	4b2b      	ldr	r3, [pc, #172]	@ (1000050c <protothread_print_bus_read+0x2d8>)
1000045e:	a802      	add	r0, sp, #8
10000460:	681a      	ldr	r2, [r3, #0]
10000462:	6ad2      	ldr	r2, [r2, #44]	@ 0x2c
10000464:	4790      	blx	r2
10000466:	4b29      	ldr	r3, [pc, #164]	@ (1000050c <protothread_print_bus_read+0x2d8>)
10000468:	7828      	ldrb	r0, [r5, #0]
1000046a:	681b      	ldr	r3, [r3, #0]
1000046c:	7831      	ldrb	r1, [r6, #0]
1000046e:	68db      	ldr	r3, [r3, #12]
10000470:	4798      	blx	r3
10000472:	2500      	movs	r5, #0
10000474:	e74d      	b.n	10000312 <protothread_print_bus_read+0xde>
10000476:	f89d 2006 	ldrb.w	r2, [sp, #6]
1000047a:	492c      	ldr	r1, [pc, #176]	@ (1000052c <protothread_print_bus_read+0x2f8>)
1000047c:	a802      	add	r0, sp, #8
1000047e:	f004 fd17 	bl	10004eb0 <__wrap_sprintf>
10000482:	4b22      	ldr	r3, [pc, #136]	@ (1000050c <protothread_print_bus_read+0x2d8>)
10000484:	a802      	add	r0, sp, #8
10000486:	681b      	ldr	r3, [r3, #0]
10000488:	2500      	movs	r5, #0
1000048a:	6adb      	ldr	r3, [r3, #44]	@ 0x2c
1000048c:	4798      	blx	r3
1000048e:	f89d 0006 	ldrb.w	r0, [sp, #6]
10000492:	f001 fbb9 	bl	10001c08 <change_mode>
10000496:	e73c      	b.n	10000312 <protothread_print_bus_read+0xde>
10000498:	4d1c      	ldr	r5, [pc, #112]	@ (1000050c <protothread_print_bus_read+0x2d8>)
1000049a:	f89d 0006 	ldrb.w	r0, [sp, #6]
1000049e:	682b      	ldr	r3, [r5, #0]
100004a0:	6b9b      	ldr	r3, [r3, #56]	@ 0x38
100004a2:	4798      	blx	r3
100004a4:	4a22      	ldr	r2, [pc, #136]	@ (10000530 <protothread_print_bus_read+0x2fc>)
100004a6:	6813      	ldr	r3, [r2, #0]
100004a8:	3301      	adds	r3, #1
100004aa:	f5b3 6f16 	cmp.w	r3, #2400	@ 0x960
100004ae:	dc04      	bgt.n	100004ba <protothread_print_bus_read+0x286>
100004b0:	6013      	str	r3, [r2, #0]
100004b2:	e72d      	b.n	10000310 <protothread_print_bus_read+0xdc>
100004b4:	4a14      	ldr	r2, [pc, #80]	@ (10000508 <protothread_print_bus_read+0x2d4>)
100004b6:	6013      	str	r3, [r2, #0]
100004b8:	e713      	b.n	100002e2 <protothread_print_bus_read+0xae>
100004ba:	2100      	movs	r1, #0
100004bc:	682b      	ldr	r3, [r5, #0]
100004be:	6011      	str	r1, [r2, #0]
100004c0:	6bdb      	ldr	r3, [r3, #60]	@ 0x3c
100004c2:	4798      	blx	r3
100004c4:	4635      	mov	r5, r6
100004c6:	e724      	b.n	10000312 <protothread_print_bus_read+0xde>
100004c8:	6a5b      	ldr	r3, [r3, #36]	@ 0x24
100004ca:	4798      	blx	r3
100004cc:	2500      	movs	r5, #0
100004ce:	e720      	b.n	10000312 <protothread_print_bus_read+0xde>
100004d0:	6bdb      	ldr	r3, [r3, #60]	@ 0x3c
100004d2:	4798      	blx	r3
100004d4:	e71c      	b.n	10000310 <protothread_print_bus_read+0xdc>
100004d6:	4a10      	ldr	r2, [pc, #64]	@ (10000518 <protothread_print_bus_read+0x2e4>)
100004d8:	691b      	ldr	r3, [r3, #16]
100004da:	8811      	ldrh	r1, [r2, #0]
100004dc:	4a0f      	ldr	r2, [pc, #60]	@ (1000051c <protothread_print_bus_read+0x2e8>)
100004de:	2500      	movs	r5, #0
100004e0:	8810      	ldrh	r0, [r2, #0]
100004e2:	4798      	blx	r3
100004e4:	e715      	b.n	10000312 <protothread_print_bus_read+0xde>
100004e6:	bf00      	nop
100004e8:	10000312 	.word	0x10000312
100004ec:	20026ab8 	.word	0x20026ab8
100004f0:	20026ab9 	.word	0x20026ab9
100004f4:	2000104c 	.word	0x2000104c
100004f8:	2000068c 	.word	0x2000068c
100004fc:	10000282 	.word	0x10000282
10000500:	20000de0 	.word	0x20000de0
10000504:	200010ec 	.word	0x200010ec
10000508:	200010f0 	.word	0x200010f0
1000050c:	20001260 	.word	0x20001260
10000510:	10006210 	.word	0x10006210
10000514:	100061a8 	.word	0x100061a8
10000518:	20026ab4 	.word	0x20026ab4
1000051c:	20026ab2 	.word	0x20026ab2
10000520:	20026aba 	.word	0x20026aba
10000524:	20026ab6 	.word	0x20026ab6
10000528:	100061fc 	.word	0x100061fc
1000052c:	100061cc 	.word	0x100061cc
10000530:	200010a4 	.word	0x200010a4

10000534 <timer_callback>:
10000534:	b510      	push	{r4, lr}
10000536:	4c08      	ldr	r4, [pc, #32]	@ (10000558 <timer_callback+0x24>)
10000538:	6820      	ldr	r0, [r4, #0]
1000053a:	2801      	cmp	r0, #1
1000053c:	d006      	beq.n	1000054c <timer_callback+0x18>
1000053e:	2000      	movs	r0, #0
10000540:	f001 fa8a 	bl	10001a58 <put_cursor>
10000544:	2301      	movs	r3, #1
10000546:	2001      	movs	r0, #1
10000548:	6023      	str	r3, [r4, #0]
1000054a:	bd10      	pop	{r4, pc}
1000054c:	f001 fa84 	bl	10001a58 <put_cursor>
10000550:	2300      	movs	r3, #0
10000552:	2001      	movs	r0, #1
10000554:	6023      	str	r3, [r4, #0]
10000556:	bd10      	pop	{r4, pc}
10000558:	20000680 	.word	0x20000680

1000055c <set_sys_clock_khz.constprop.0.isra.0>:
1000055c:	b510      	push	{r4, lr}
1000055e:	b084      	sub	sp, #16
10000560:	ab03      	add	r3, sp, #12
10000562:	aa02      	add	r2, sp, #8
10000564:	a901      	add	r1, sp, #4
10000566:	4604      	mov	r4, r0
10000568:	f002 fd06 	bl	10002f78 <check_sys_clock_khz>
1000056c:	b918      	cbnz	r0, 10000576 <set_sys_clock_khz.constprop.0.isra.0+0x1a>
1000056e:	4621      	mov	r1, r4
10000570:	4804      	ldr	r0, [pc, #16]	@ (10000584 <set_sys_clock_khz.constprop.0.isra.0+0x28>)
10000572:	f001 fdc1 	bl	100020f8 <panic>
10000576:	9801      	ldr	r0, [sp, #4]
10000578:	e9dd 1202 	ldrd	r1, r2, [sp, #8]
1000057c:	f002 fc3a 	bl	10002df4 <set_sys_clock_pll>
10000580:	b004      	add	sp, #16
10000582:	bd10      	pop	{r4, pc}
10000584:	1000621c 	.word	0x1000621c

10000588 <protothread_sched.constprop.0.isra.0>:
10000588:	e92d 4ff8 	stmdb	sp!, {r3, r4, r5, r6, r7, r8, r9, sl, fp, lr}
1000058c:	4b3f      	ldr	r3, [pc, #252]	@ (1000068c <protothread_sched.constprop.0.isra.0+0x104>)
1000058e:	681f      	ldr	r7, [r3, #0]
10000590:	2f00      	cmp	r7, #0
10000592:	d177      	bne.n	10000684 <protothread_sched.constprop.0.isra.0+0xfc>
10000594:	4b3e      	ldr	r3, [pc, #248]	@ (10000690 <protothread_sched.constprop.0.isra.0+0x108>)
10000596:	f8d3 8000 	ldr.w	r8, [r3]
1000059a:	f1b8 0f00 	cmp.w	r8, #0
1000059e:	d11c      	bne.n	100005da <protothread_sched.constprop.0.isra.0+0x52>
100005a0:	4e3c      	ldr	r6, [pc, #240]	@ (10000694 <protothread_sched.constprop.0.isra.0+0x10c>)
100005a2:	4647      	mov	r7, r8
100005a4:	4c3c      	ldr	r4, [pc, #240]	@ (10000698 <protothread_sched.constprop.0.isra.0+0x110>)
100005a6:	f8df 90f4 	ldr.w	r9, [pc, #244]	@ 1000069c <protothread_sched.constprop.0.isra.0+0x114>
100005aa:	6833      	ldr	r3, [r6, #0]
100005ac:	e011      	b.n	100005d2 <protothread_sched.constprop.0.isra.0+0x4a>
100005ae:	2300      	movs	r3, #0
100005b0:	4d3a      	ldr	r5, [pc, #232]	@ (1000069c <protothread_sched.constprop.0.isra.0+0x114>)
100005b2:	eb03 0343 	add.w	r3, r3, r3, lsl #1
100005b6:	eb09 0383 	add.w	r3, r9, r3, lsl #2
100005ba:	4628      	mov	r0, r5
100005bc:	689b      	ldr	r3, [r3, #8]
100005be:	4798      	blx	r3
100005c0:	6823      	ldr	r3, [r4, #0]
100005c2:	6832      	ldr	r2, [r6, #0]
100005c4:	3301      	adds	r3, #1
100005c6:	4293      	cmp	r3, r2
100005c8:	6023      	str	r3, [r4, #0]
100005ca:	f105 050c 	add.w	r5, r5, #12
100005ce:	dbf0      	blt.n	100005b2 <protothread_sched.constprop.0.isra.0+0x2a>
100005d0:	4613      	mov	r3, r2
100005d2:	2b00      	cmp	r3, #0
100005d4:	6027      	str	r7, [r4, #0]
100005d6:	dcea      	bgt.n	100005ae <protothread_sched.constprop.0.isra.0+0x26>
100005d8:	e7fe      	b.n	100005d8 <protothread_sched.constprop.0.isra.0+0x50>
100005da:	f1b8 0f01 	cmp.w	r8, #1
100005de:	d001      	beq.n	100005e4 <protothread_sched.constprop.0.isra.0+0x5c>
100005e0:	e8bd 8ff8 	ldmia.w	sp!, {r3, r4, r5, r6, r7, r8, r9, sl, fp, pc}
100005e4:	4c2c      	ldr	r4, [pc, #176]	@ (10000698 <protothread_sched.constprop.0.isra.0+0x110>)
100005e6:	4e2b      	ldr	r6, [pc, #172]	@ (10000694 <protothread_sched.constprop.0.isra.0+0x10c>)
100005e8:	f8df 90b0 	ldr.w	r9, [pc, #176]	@ 1000069c <protothread_sched.constprop.0.isra.0+0x114>
100005ec:	f8df 80bc 	ldr.w	r8, [pc, #188]	@ 100006ac <protothread_sched.constprop.0.isra.0+0x124>
100005f0:	4d2b      	ldr	r5, [pc, #172]	@ (100006a0 <protothread_sched.constprop.0.isra.0+0x118>)
100005f2:	f8df a0bc 	ldr.w	sl, [pc, #188]	@ 100006b0 <protothread_sched.constprop.0.isra.0+0x128>
100005f6:	f8d8 3000 	ldr.w	r3, [r8]
100005fa:	6832      	ldr	r2, [r6, #0]
100005fc:	3301      	adds	r3, #1
100005fe:	2a00      	cmp	r2, #0
10000600:	f8c8 3000 	str.w	r3, [r8]
10000604:	6027      	str	r7, [r4, #0]
10000606:	dc00      	bgt.n	1000060a <protothread_sched.constprop.0.isra.0+0x82>
10000608:	e7fe      	b.n	10000608 <protothread_sched.constprop.0.isra.0+0x80>
1000060a:	f8df b090 	ldr.w	fp, [pc, #144]	@ 1000069c <protothread_sched.constprop.0.isra.0+0x114>
1000060e:	602f      	str	r7, [r5, #0]
10000610:	f002 fb66 	bl	10002ce0 <time_us_64>
10000614:	6823      	ldr	r3, [r4, #0]
10000616:	e9ca 0100 	strd	r0, r1, [sl]
1000061a:	eb03 0343 	add.w	r3, r3, r3, lsl #1
1000061e:	eb09 0383 	add.w	r3, r9, r3, lsl #2
10000622:	689b      	ldr	r3, [r3, #8]
10000624:	4658      	mov	r0, fp
10000626:	4798      	blx	r3
10000628:	682a      	ldr	r2, [r5, #0]
1000062a:	6823      	ldr	r3, [r4, #0]
1000062c:	2a01      	cmp	r2, #1
1000062e:	d007      	beq.n	10000640 <protothread_sched.constprop.0.isra.0+0xb8>
10000630:	6832      	ldr	r2, [r6, #0]
10000632:	3301      	adds	r3, #1
10000634:	4293      	cmp	r3, r2
10000636:	6023      	str	r3, [r4, #0]
10000638:	f10b 0b0c 	add.w	fp, fp, #12
1000063c:	dadb      	bge.n	100005f6 <protothread_sched.constprop.0.isra.0+0x6e>
1000063e:	e7e6      	b.n	1000060e <protothread_sched.constprop.0.isra.0+0x86>
10000640:	4918      	ldr	r1, [pc, #96]	@ (100006a4 <protothread_sched.constprop.0.isra.0+0x11c>)
10000642:	f851 2023 	ldr.w	r2, [r1, r3, lsl #2]
10000646:	3201      	adds	r2, #1
10000648:	f841 2023 	str.w	r2, [r1, r3, lsl #2]
1000064c:	f002 fb48 	bl	10002ce0 <time_us_64>
10000650:	468e      	mov	lr, r1
10000652:	f8d4 b000 	ldr.w	fp, [r4]
10000656:	4b14      	ldr	r3, [pc, #80]	@ (100006a8 <protothread_sched.constprop.0.isra.0+0x120>)
10000658:	f8da 1004 	ldr.w	r1, [sl, #4]
1000065c:	f853 203b 	ldr.w	r2, [r3, fp, lsl #3]
10000660:	eb03 0ccb 	add.w	ip, r3, fp, lsl #3
10000664:	f8da 3000 	ldr.w	r3, [sl]
10000668:	1ad3      	subs	r3, r2, r3
1000066a:	f8dc 2004 	ldr.w	r2, [ip, #4]
1000066e:	eb62 0201 	sbc.w	r2, r2, r1
10000672:	181b      	adds	r3, r3, r0
10000674:	480c      	ldr	r0, [pc, #48]	@ (100006a8 <protothread_sched.constprop.0.isra.0+0x120>)
10000676:	eb42 020e 	adc.w	r2, r2, lr
1000067a:	f840 303b 	str.w	r3, [r0, fp, lsl #3]
1000067e:	f8cc 2004 	str.w	r2, [ip, #4]
10000682:	e7b8      	b.n	100005f6 <protothread_sched.constprop.0.isra.0+0x6e>
10000684:	f047 0701 	orr.w	r7, r7, #1
10000688:	4738      	bx	r7
1000068a:	bf00      	nop
1000068c:	200010f4 	.word	0x200010f4
10000690:	200010fc 	.word	0x200010fc
10000694:	20001100 	.word	0x20001100
10000698:	2000109c 	.word	0x2000109c
1000069c:	20001108 	.word	0x20001108
100006a0:	200010ec 	.word	0x200010ec
100006a4:	20001208 	.word	0x20001208
100006a8:	20000de8 	.word	0x20000de8
100006ac:	20001200 	.word	0x20001200
100006b0:	20000e88 	.word	0x20000e88

100006b4 <protothread_sched1.constprop.0.isra.0>:
100006b4:	e92d 4ff8 	stmdb	sp!, {r3, r4, r5, r6, r7, r8, r9, sl, fp, lr}
100006b8:	4b3f      	ldr	r3, [pc, #252]	@ (100007b8 <protothread_sched1.constprop.0.isra.0+0x104>)
100006ba:	681f      	ldr	r7, [r3, #0]
100006bc:	2f00      	cmp	r7, #0
100006be:	d177      	bne.n	100007b0 <protothread_sched1.constprop.0.isra.0+0xfc>
100006c0:	4b3e      	ldr	r3, [pc, #248]	@ (100007bc <protothread_sched1.constprop.0.isra.0+0x108>)
100006c2:	f8d3 8000 	ldr.w	r8, [r3]
100006c6:	f1b8 0f00 	cmp.w	r8, #0
100006ca:	d11c      	bne.n	10000706 <protothread_sched1.constprop.0.isra.0+0x52>
100006cc:	4e3c      	ldr	r6, [pc, #240]	@ (100007c0 <protothread_sched1.constprop.0.isra.0+0x10c>)
100006ce:	4647      	mov	r7, r8
100006d0:	4c3c      	ldr	r4, [pc, #240]	@ (100007c4 <protothread_sched1.constprop.0.isra.0+0x110>)
100006d2:	f8df 90f4 	ldr.w	r9, [pc, #244]	@ 100007c8 <protothread_sched1.constprop.0.isra.0+0x114>
100006d6:	6833      	ldr	r3, [r6, #0]
100006d8:	e011      	b.n	100006fe <protothread_sched1.constprop.0.isra.0+0x4a>
100006da:	2300      	movs	r3, #0
100006dc:	4d3a      	ldr	r5, [pc, #232]	@ (100007c8 <protothread_sched1.constprop.0.isra.0+0x114>)
100006de:	eb03 0343 	add.w	r3, r3, r3, lsl #1
100006e2:	eb09 0383 	add.w	r3, r9, r3, lsl #2
100006e6:	4628      	mov	r0, r5
100006e8:	689b      	ldr	r3, [r3, #8]
100006ea:	4798      	blx	r3
100006ec:	6823      	ldr	r3, [r4, #0]
100006ee:	6832      	ldr	r2, [r6, #0]
100006f0:	3301      	adds	r3, #1
100006f2:	4293      	cmp	r3, r2
100006f4:	6023      	str	r3, [r4, #0]
100006f6:	f105 050c 	add.w	r5, r5, #12
100006fa:	dbf0      	blt.n	100006de <protothread_sched1.constprop.0.isra.0+0x2a>
100006fc:	4613      	mov	r3, r2
100006fe:	2b00      	cmp	r3, #0
10000700:	6027      	str	r7, [r4, #0]
10000702:	dcea      	bgt.n	100006da <protothread_sched1.constprop.0.isra.0+0x26>
10000704:	e7fe      	b.n	10000704 <protothread_sched1.constprop.0.isra.0+0x50>
10000706:	f1b8 0f01 	cmp.w	r8, #1
1000070a:	d001      	beq.n	10000710 <protothread_sched1.constprop.0.isra.0+0x5c>
1000070c:	e8bd 8ff8 	ldmia.w	sp!, {r3, r4, r5, r6, r7, r8, r9, sl, fp, pc}
10000710:	4c2c      	ldr	r4, [pc, #176]	@ (100007c4 <protothread_sched1.constprop.0.isra.0+0x110>)
10000712:	4e2b      	ldr	r6, [pc, #172]	@ (100007c0 <protothread_sched1.constprop.0.isra.0+0x10c>)
10000714:	f8df 90b0 	ldr.w	r9, [pc, #176]	@ 100007c8 <protothread_sched1.constprop.0.isra.0+0x114>
10000718:	f8df 80bc 	ldr.w	r8, [pc, #188]	@ 100007d8 <protothread_sched1.constprop.0.isra.0+0x124>
1000071c:	4d2b      	ldr	r5, [pc, #172]	@ (100007cc <protothread_sched1.constprop.0.isra.0+0x118>)
1000071e:	f8df a0bc 	ldr.w	sl, [pc, #188]	@ 100007dc <protothread_sched1.constprop.0.isra.0+0x128>
10000722:	f8d8 3000 	ldr.w	r3, [r8]
10000726:	6832      	ldr	r2, [r6, #0]
10000728:	3301      	adds	r3, #1
1000072a:	2a00      	cmp	r2, #0
1000072c:	f8c8 3000 	str.w	r3, [r8]
10000730:	6027      	str	r7, [r4, #0]
10000732:	dc00      	bgt.n	10000736 <protothread_sched1.constprop.0.isra.0+0x82>
10000734:	e7fe      	b.n	10000734 <protothread_sched1.constprop.0.isra.0+0x80>
10000736:	f8df b090 	ldr.w	fp, [pc, #144]	@ 100007c8 <protothread_sched1.constprop.0.isra.0+0x114>
1000073a:	602f      	str	r7, [r5, #0]
1000073c:	f002 fad0 	bl	10002ce0 <time_us_64>
10000740:	6823      	ldr	r3, [r4, #0]
10000742:	e9ca 0100 	strd	r0, r1, [sl]
10000746:	eb03 0343 	add.w	r3, r3, r3, lsl #1
1000074a:	eb09 0383 	add.w	r3, r9, r3, lsl #2
1000074e:	689b      	ldr	r3, [r3, #8]
10000750:	4658      	mov	r0, fp
10000752:	4798      	blx	r3
10000754:	682a      	ldr	r2, [r5, #0]
10000756:	6823      	ldr	r3, [r4, #0]
10000758:	2a01      	cmp	r2, #1
1000075a:	d007      	beq.n	1000076c <protothread_sched1.constprop.0.isra.0+0xb8>
1000075c:	6832      	ldr	r2, [r6, #0]
1000075e:	3301      	adds	r3, #1
10000760:	4293      	cmp	r3, r2
10000762:	6023      	str	r3, [r4, #0]
10000764:	f10b 0b0c 	add.w	fp, fp, #12
10000768:	dadb      	bge.n	10000722 <protothread_sched1.constprop.0.isra.0+0x6e>
1000076a:	e7e6      	b.n	1000073a <protothread_sched1.constprop.0.isra.0+0x86>
1000076c:	4918      	ldr	r1, [pc, #96]	@ (100007d0 <protothread_sched1.constprop.0.isra.0+0x11c>)
1000076e:	f851 2023 	ldr.w	r2, [r1, r3, lsl #2]
10000772:	3201      	adds	r2, #1
10000774:	f841 2023 	str.w	r2, [r1, r3, lsl #2]
10000778:	f002 fab2 	bl	10002ce0 <time_us_64>
1000077c:	468e      	mov	lr, r1
1000077e:	f8d4 b000 	ldr.w	fp, [r4]
10000782:	4b14      	ldr	r3, [pc, #80]	@ (100007d4 <protothread_sched1.constprop.0.isra.0+0x120>)
10000784:	f8da 1004 	ldr.w	r1, [sl, #4]
10000788:	f853 203b 	ldr.w	r2, [r3, fp, lsl #3]
1000078c:	eb03 0ccb 	add.w	ip, r3, fp, lsl #3
10000790:	f8da 3000 	ldr.w	r3, [sl]
10000794:	1ad3      	subs	r3, r2, r3
10000796:	f8dc 2004 	ldr.w	r2, [ip, #4]
1000079a:	eb62 0201 	sbc.w	r2, r2, r1
1000079e:	181b      	adds	r3, r3, r0
100007a0:	480c      	ldr	r0, [pc, #48]	@ (100007d4 <protothread_sched1.constprop.0.isra.0+0x120>)
100007a2:	eb42 020e 	adc.w	r2, r2, lr
100007a6:	f840 303b 	str.w	r3, [r0, fp, lsl #3]
100007aa:	f8cc 2004 	str.w	r2, [ip, #4]
100007ae:	e7b8      	b.n	10000722 <protothread_sched1.constprop.0.isra.0+0x6e>
100007b0:	f047 0701 	orr.w	r7, r7, #1
100007b4:	4738      	bx	r7
100007b6:	bf00      	nop
100007b8:	200010f8 	.word	0x200010f8
100007bc:	200010fc 	.word	0x200010fc
100007c0:	20001104 	.word	0x20001104
100007c4:	200010a0 	.word	0x200010a0
100007c8:	20001180 	.word	0x20001180
100007cc:	200010f0 	.word	0x200010f0
100007d0:	20001230 	.word	0x20001230
100007d4:	20000e38 	.word	0x20000e38
100007d8:	20001204 	.word	0x20001204
100007dc:	20000e90 	.word	0x20000e90

100007e0 <video_welcome_screen>:
100007e0:	2100      	movs	r1, #0
100007e2:	b510      	push	{r4, lr}
100007e4:	4c1a      	ldr	r4, [pc, #104]	@ (10000850 <video_welcome_screen+0x70>)
100007e6:	4608      	mov	r0, r1
100007e8:	6823      	ldr	r3, [r4, #0]
100007ea:	691b      	ldr	r3, [r3, #16]
100007ec:	4798      	blx	r3
100007ee:	6823      	ldr	r3, [r4, #0]
100007f0:	2100      	movs	r1, #0
100007f2:	2001      	movs	r0, #1
100007f4:	68db      	ldr	r3, [r3, #12]
100007f6:	4798      	blx	r3
100007f8:	6823      	ldr	r3, [r4, #0]
100007fa:	4816      	ldr	r0, [pc, #88]	@ (10000854 <video_welcome_screen+0x74>)
100007fc:	6adb      	ldr	r3, [r3, #44]	@ 0x2c
100007fe:	4798      	blx	r3
10000800:	6823      	ldr	r3, [r4, #0]
10000802:	2100      	movs	r1, #0
10000804:	2003      	movs	r0, #3
10000806:	68db      	ldr	r3, [r3, #12]
10000808:	4798      	blx	r3
1000080a:	6823      	ldr	r3, [r4, #0]
1000080c:	4812      	ldr	r0, [pc, #72]	@ (10000858 <video_welcome_screen+0x78>)
1000080e:	6adb      	ldr	r3, [r3, #44]	@ 0x2c
10000810:	4798      	blx	r3
10000812:	6823      	ldr	r3, [r4, #0]
10000814:	2006      	movs	r0, #6
10000816:	2100      	movs	r1, #0
10000818:	68db      	ldr	r3, [r3, #12]
1000081a:	4798      	blx	r3
1000081c:	4b0f      	ldr	r3, [pc, #60]	@ (1000085c <video_welcome_screen+0x7c>)
1000081e:	781a      	ldrb	r2, [r3, #0]
10000820:	6823      	ldr	r3, [r4, #0]
10000822:	2a01      	cmp	r2, #1
10000824:	bf94      	ite	ls
10000826:	480e      	ldrls	r0, [pc, #56]	@ (10000860 <video_welcome_screen+0x80>)
10000828:	480e      	ldrhi	r0, [pc, #56]	@ (10000864 <video_welcome_screen+0x84>)
1000082a:	6adb      	ldr	r3, [r3, #44]	@ 0x2c
1000082c:	4798      	blx	r3
1000082e:	6823      	ldr	r3, [r4, #0]
10000830:	2105      	movs	r1, #5
10000832:	2000      	movs	r0, #0
10000834:	691b      	ldr	r3, [r3, #16]
10000836:	4798      	blx	r3
10000838:	6823      	ldr	r3, [r4, #0]
1000083a:	2002      	movs	r0, #2
1000083c:	68db      	ldr	r3, [r3, #12]
1000083e:	2100      	movs	r1, #0
10000840:	4798      	blx	r3
10000842:	6823      	ldr	r3, [r4, #0]
10000844:	4808      	ldr	r0, [pc, #32]	@ (10000868 <video_welcome_screen+0x88>)
10000846:	6adb      	ldr	r3, [r3, #44]	@ 0x2c
10000848:	e8bd 4010 	ldmia.w	sp!, {r4, lr}
1000084c:	4718      	bx	r3
1000084e:	bf00      	nop
10000850:	20001260 	.word	0x20001260
10000854:	10006250 	.word	0x10006250
10000858:	1000627c 	.word	0x1000627c
1000085c:	20026abb 	.word	0x20026abb
10000860:	10006294 	.word	0x10006294
10000864:	100062d4 	.word	0x100062d4
10000868:	10006310 	.word	0x10006310

1000086c <main>:
1000086c:	b570      	push	{r4, r5, r6, lr}
1000086e:	484e      	ldr	r0, [pc, #312]	@ (100009a8 <main+0x13c>)
10000870:	b084      	sub	sp, #16
10000872:	f7ff fe73 	bl	1000055c <set_sys_clock_khz.constprop.0.isra.0>
10000876:	f004 fc49 	bl	1000510c <stdio_init_all>
1000087a:	4b4c      	ldr	r3, [pc, #304]	@ (100009ac <main+0x140>)
1000087c:	4a4c      	ldr	r2, [pc, #304]	@ (100009b0 <main+0x144>)
1000087e:	68d9      	ldr	r1, [r3, #12]
10000880:	4291      	cmp	r1, r2
10000882:	f000 808d 	beq.w	100009a0 <main+0x134>
10000886:	4c4b      	ldr	r4, [pc, #300]	@ (100009b4 <main+0x148>)
10000888:	60da      	str	r2, [r3, #12]
1000088a:	4d4b      	ldr	r5, [pc, #300]	@ (100009b8 <main+0x14c>)
1000088c:	f001 faae 	bl	10001dec <pico_i2c_init>
10000890:	f000 f8ae 	bl	100009f0 <initReadBus_Pio>
10000894:	f001 fabe 	bl	10001e14 <eeprom_ping>
10000898:	4628      	mov	r0, r5
1000089a:	f001 fb1f 	bl	10001edc <eeprom_load_config>
1000089e:	4847      	ldr	r0, [pc, #284]	@ (100009bc <main+0x150>)
100008a0:	f7ff fe5c 	bl	1000055c <set_sys_clock_khz.constprop.0.isra.0>
100008a4:	7823      	ldrb	r3, [r4, #0]
100008a6:	2b00      	cmp	r3, #0
100008a8:	d052      	beq.n	10000950 <main+0xe4>
100008aa:	2002      	movs	r0, #2
100008ac:	f001 f8fa 	bl	10001aa4 <create_screen>
100008b0:	2502      	movs	r5, #2
100008b2:	4c43      	ldr	r4, [pc, #268]	@ (100009c0 <main+0x154>)
100008b4:	6020      	str	r0, [r4, #0]
100008b6:	4943      	ldr	r1, [pc, #268]	@ (100009c4 <main+0x158>)
100008b8:	2303      	movs	r3, #3
100008ba:	700d      	strb	r5, [r1, #0]
100008bc:	f44f 7220 	mov.w	r2, #640	@ 0x280
100008c0:	2130      	movs	r1, #48	@ 0x30
100008c2:	2000      	movs	r0, #0
100008c4:	f000 fcec 	bl	100012a0 <drawHLine>
100008c8:	2303      	movs	r3, #3
100008ca:	f44f 7220 	mov.w	r2, #640	@ 0x280
100008ce:	2131      	movs	r1, #49	@ 0x31
100008d0:	2000      	movs	r0, #0
100008d2:	f000 fce5 	bl	100012a0 <drawHLine>
100008d6:	2303      	movs	r3, #3
100008d8:	f44f 7220 	mov.w	r2, #640	@ 0x280
100008dc:	2132      	movs	r1, #50	@ 0x32
100008de:	2000      	movs	r0, #0
100008e0:	f000 fcde 	bl	100012a0 <drawHLine>
100008e4:	4d38      	ldr	r5, [pc, #224]	@ (100009c8 <main+0x15c>)
100008e6:	f44f 7220 	mov.w	r2, #640	@ 0x280
100008ea:	2303      	movs	r3, #3
100008ec:	2133      	movs	r1, #51	@ 0x33
100008ee:	2000      	movs	r0, #0
100008f0:	f000 fcd6 	bl	100012a0 <drawHLine>
100008f4:	f7ff ff74 	bl	100007e0 <video_welcome_screen>
100008f8:	f001 faa4 	bl	10001e44 <print_mem_status>
100008fc:	2140      	movs	r1, #64	@ 0x40
100008fe:	2000      	movs	r0, #0
10000900:	f001 fb64 	bl	10001fcc <dump>
10000904:	4628      	mov	r0, r5
10000906:	f002 f983 	bl	10002c10 <cancel_repeating_timer>
1000090a:	6823      	ldr	r3, [r4, #0]
1000090c:	2600      	movs	r6, #0
1000090e:	689b      	ldr	r3, [r3, #8]
10000910:	4798      	blx	r3
10000912:	4604      	mov	r4, r0
10000914:	f001 ff6c 	bl	100027f0 <alarm_pool_get_default>
10000918:	f44f 727a 	mov.w	r2, #1000	@ 0x3e8
1000091c:	4b2b      	ldr	r3, [pc, #172]	@ (100009cc <main+0x160>)
1000091e:	e9cd 6501 	strd	r6, r5, [sp, #4]
10000922:	9300      	str	r3, [sp, #0]
10000924:	b223      	sxth	r3, r4
10000926:	fb83 2302 	smull	r2, r3, r3, r2
1000092a:	f002 f8e1 	bl	10002af0 <alarm_pool_add_repeating_timer_us>
1000092e:	f04f 4350 	mov.w	r3, #3489660928	@ 0xd0000000
10000932:	681b      	ldr	r3, [r3, #0]
10000934:	2b01      	cmp	r3, #1
10000936:	d01e      	beq.n	10000976 <main+0x10a>
10000938:	4a25      	ldr	r2, [pc, #148]	@ (100009d0 <main+0x164>)
1000093a:	6813      	ldr	r3, [r2, #0]
1000093c:	2b09      	cmp	r3, #9
1000093e:	dd0e      	ble.n	1000095e <main+0xf2>
10000940:	2200      	movs	r2, #0
10000942:	4b24      	ldr	r3, [pc, #144]	@ (100009d4 <main+0x168>)
10000944:	601a      	str	r2, [r3, #0]
10000946:	f7ff fe1f 	bl	10000588 <protothread_sched.constprop.0.isra.0>
1000094a:	2000      	movs	r0, #0
1000094c:	b004      	add	sp, #16
1000094e:	bd70      	pop	{r4, r5, r6, pc}
10000950:	7928      	ldrb	r0, [r5, #4]
10000952:	f001 f8a7 	bl	10001aa4 <create_screen>
10000956:	4c1a      	ldr	r4, [pc, #104]	@ (100009c0 <main+0x154>)
10000958:	792d      	ldrb	r5, [r5, #4]
1000095a:	6020      	str	r0, [r4, #0]
1000095c:	e7ab      	b.n	100008b6 <main+0x4a>
1000095e:	200c      	movs	r0, #12
10000960:	1c5d      	adds	r5, r3, #1
10000962:	6015      	str	r5, [r2, #0]
10000964:	fb00 f203 	mul.w	r2, r0, r3
10000968:	491b      	ldr	r1, [pc, #108]	@ (100009d8 <main+0x16c>)
1000096a:	4c1c      	ldr	r4, [pc, #112]	@ (100009dc <main+0x170>)
1000096c:	508e      	str	r6, [r1, r2]
1000096e:	440a      	add	r2, r1
10000970:	e9c2 3401 	strd	r3, r4, [r2, #4]
10000974:	e7e4      	b.n	10000940 <main+0xd4>
10000976:	4a1a      	ldr	r2, [pc, #104]	@ (100009e0 <main+0x174>)
10000978:	6813      	ldr	r3, [r2, #0]
1000097a:	2b09      	cmp	r3, #9
1000097c:	dc0a      	bgt.n	10000994 <main+0x128>
1000097e:	200c      	movs	r0, #12
10000980:	1c5d      	adds	r5, r3, #1
10000982:	6015      	str	r5, [r2, #0]
10000984:	fb00 f203 	mul.w	r2, r0, r3
10000988:	4916      	ldr	r1, [pc, #88]	@ (100009e4 <main+0x178>)
1000098a:	4c14      	ldr	r4, [pc, #80]	@ (100009dc <main+0x170>)
1000098c:	508e      	str	r6, [r1, r2]
1000098e:	440a      	add	r2, r1
10000990:	e9c2 3401 	strd	r3, r4, [r2, #4]
10000994:	2200      	movs	r2, #0
10000996:	4b14      	ldr	r3, [pc, #80]	@ (100009e8 <main+0x17c>)
10000998:	601a      	str	r2, [r3, #0]
1000099a:	f7ff fe8b 	bl	100006b4 <protothread_sched1.constprop.0.isra.0>
1000099e:	e7d4      	b.n	1000094a <main+0xde>
100009a0:	2301      	movs	r3, #1
100009a2:	4c04      	ldr	r4, [pc, #16]	@ (100009b4 <main+0x148>)
100009a4:	7023      	strb	r3, [r4, #0]
100009a6:	e770      	b.n	1000088a <main+0x1e>
100009a8:	000493e0 	.word	0x000493e0
100009ac:	400d8000 	.word	0x400d8000
100009b0:	deadbeef 	.word	0xdeadbeef
100009b4:	20026ab8 	.word	0x20026ab8
100009b8:	2000126c 	.word	0x2000126c
100009bc:	000249f0 	.word	0x000249f0
100009c0:	20001260 	.word	0x20001260
100009c4:	20026abb 	.word	0x20026abb
100009c8:	20000e98 	.word	0x20000e98
100009cc:	10000535 	.word	0x10000535
100009d0:	20001100 	.word	0x20001100
100009d4:	200010f4 	.word	0x200010f4
100009d8:	20001108 	.word	0x20001108
100009dc:	10000235 	.word	0x10000235
100009e0:	20001104 	.word	0x20001104
100009e4:	20001180 	.word	0x20001180
100009e8:	200010f8 	.word	0x200010f8
100009ec:	00000000 	.word	0x00000000

100009f0 <initReadBus_Pio>:
100009f0:	b5f0      	push	{r4, r5, r6, r7, lr}
100009f2:	492d      	ldr	r1, [pc, #180]	@ (10000aa8 <initReadBus_Pio+0xb8>)
100009f4:	b08b      	sub	sp, #44	@ 0x2c
100009f6:	482d      	ldr	r0, [pc, #180]	@ (10000aac <initReadBus_Pio+0xbc>)
100009f8:	f004 fc0e 	bl	10005218 <pio_add_program>
100009fc:	2400      	movs	r4, #0
100009fe:	4b2c      	ldr	r3, [pc, #176]	@ (10000ab0 <initReadBus_Pio+0xc0>)
10000a00:	4621      	mov	r1, r4
10000a02:	4605      	mov	r5, r0
10000a04:	4829      	ldr	r0, [pc, #164]	@ (10000aac <initReadBus_Pio+0xbc>)
10000a06:	601c      	str	r4, [r3, #0]
10000a08:	f004 fbe2 	bl	100051d0 <pio_sm_claim>
10000a0c:	2107      	movs	r1, #7
10000a0e:	2019      	movs	r0, #25
10000a10:	f001 fb40 	bl	10002094 <gpio_set_function>
10000a14:	2301      	movs	r3, #1
10000a16:	2219      	movs	r2, #25
10000a18:	4621      	mov	r1, r4
10000a1a:	4824      	ldr	r0, [pc, #144]	@ (10000aac <initReadBus_Pio+0xbc>)
10000a1c:	9300      	str	r3, [sp, #0]
10000a1e:	f004 fc8f 	bl	10005340 <pio_sm_set_consecutive_pindirs>
10000a22:	4626      	mov	r6, r4
10000a24:	2107      	movs	r1, #7
10000a26:	4620      	mov	r0, r4
10000a28:	f001 fb34 	bl	10002094 <gpio_set_function>
10000a2c:	f04f 0300 	mov.w	r3, #0
10000a30:	ec43 4044 	gpioc_bit_oe_put r4, r3
10000a34:	2200      	movs	r2, #0
10000a36:	4620      	mov	r0, r4
10000a38:	2101      	movs	r1, #1
10000a3a:	3401      	adds	r4, #1
10000a3c:	f001 fb48 	bl	100020d0 <gpio_set_pulls>
10000a40:	2c0e      	cmp	r4, #14
10000a42:	d1ef      	bne.n	10000a24 <initReadBus_Pio+0x34>
10000a44:	f44f 3080 	mov.w	r0, #65536	@ 0x10000
10000a48:	f44f 31f8 	mov.w	r1, #126976	@ 0x1f000
10000a4c:	f44f 2340 	mov.w	r3, #786432	@ 0xc0000
10000a50:	ed9f 7b13 	vldr	d7, [pc, #76]	@ 10000aa0 <initReadBus_Pio+0xb0>
10000a54:	e9cd 0102 	strd	r0, r1, [sp, #8]
10000a58:	9605      	str	r6, [sp, #20]
10000a5a:	9304      	str	r3, [sp, #16]
10000a5c:	ac02      	add	r4, sp, #8
10000a5e:	f10d 0c18 	add.w	ip, sp, #24
10000a62:	1d2a      	adds	r2, r5, #4
10000a64:	01ef      	lsls	r7, r5, #7
10000a66:	ea47 3702 	orr.w	r7, r7, r2, lsl #12
10000a6a:	e894 000f 	ldmia.w	r4, {r0, r1, r2, r3}
10000a6e:	e88c 000f 	stmia.w	ip, {r0, r1, r2, r3}
10000a72:	4e0e      	ldr	r6, [pc, #56]	@ (10000aac <initReadBus_Pio+0xbc>)
10000a74:	9707      	str	r7, [sp, #28]
10000a76:	e89c 000f 	ldmia.w	ip, {r0, r1, r2, r3}
10000a7a:	e884 000f 	stmia.w	r4, {r0, r1, r2, r3}
10000a7e:	4623      	mov	r3, r4
10000a80:	462a      	mov	r2, r5
10000a82:	2100      	movs	r1, #0
10000a84:	4630      	mov	r0, r6
10000a86:	ed8d 7b04 	vstr	d7, [sp, #16]
10000a8a:	f004 fc9f 	bl	100053cc <pio_sm_init>
10000a8e:	6833      	ldr	r3, [r6, #0]
10000a90:	f043 0301 	orr.w	r3, r3, #1
10000a94:	6033      	str	r3, [r6, #0]
10000a96:	b00b      	add	sp, #44	@ 0x2c
10000a98:	bdf0      	pop	{r4, r5, r6, r7, pc}
10000a9a:	bf00      	nop
10000a9c:	f3af 8000 	nop.w
10000aa0:	00d90000 	.word	0x00d90000
10000aa4:	04100339 	.word	0x04100339
10000aa8:	10006570 	.word	0x10006570
10000aac:	50300000 	.word	0x50300000
10000ab0:	2000104c 	.word	0x2000104c

10000ab4 <pioReset>:
10000ab4:	e92d 43f8 	stmdb	sp!, {r3, r4, r5, r6, r7, r8, r9, lr}
10000ab8:	2401      	movs	r4, #1
10000aba:	f8df 9098 	ldr.w	r9, [pc, #152]	@ 10000b54 <pioReset+0xa0>
10000abe:	f8df 8098 	ldr.w	r8, [pc, #152]	@ 10000b58 <pioReset+0xa4>
10000ac2:	4e21      	ldr	r6, [pc, #132]	@ (10000b48 <pioReset+0x94>)
10000ac4:	f8d9 3000 	ldr.w	r3, [r9]
10000ac8:	f8d8 1000 	ldr.w	r1, [r8]
10000acc:	481f      	ldr	r0, [pc, #124]	@ (10000b4c <pioReset+0x98>)
10000ace:	6832      	ldr	r2, [r6, #0]
10000ad0:	fa04 f101 	lsl.w	r1, r4, r1
10000ad4:	fa04 f303 	lsl.w	r3, r4, r3
10000ad8:	6805      	ldr	r5, [r0, #0]
10000ada:	fa04 f202 	lsl.w	r2, r4, r2
10000ade:	4f1c      	ldr	r7, [pc, #112]	@ (10000b50 <pioReset+0x9c>)
10000ae0:	430b      	orrs	r3, r1
10000ae2:	4313      	orrs	r3, r2
10000ae4:	ea25 0303 	bic.w	r3, r5, r3
10000ae8:	463d      	mov	r5, r7
10000aea:	6003      	str	r3, [r0, #0]
10000aec:	f004 fc0e 	bl	1000530c <pio_clear_instruction_memory>
10000af0:	4638      	mov	r0, r7
10000af2:	f04f 4100 	mov.w	r1, #2147483648	@ 0x80000000
10000af6:	f8d9 2000 	ldr.w	r2, [r9]
10000afa:	f8df c060 	ldr.w	ip, [pc, #96]	@ 10000b5c <pioReset+0xa8>
10000afe:	1d13      	adds	r3, r2, #4
10000b00:	fa04 f303 	lsl.w	r3, r4, r3
10000b04:	f8cc 3000 	str.w	r3, [ip]
10000b08:	eb02 0242 	add.w	r2, r2, r2, lsl #1
10000b0c:	f8d8 3000 	ldr.w	r3, [r8]
10000b10:	00d2      	lsls	r2, r2, #3
10000b12:	4417      	add	r7, r2
10000b14:	1d1a      	adds	r2, r3, #4
10000b16:	fa04 f202 	lsl.w	r2, r4, r2
10000b1a:	f8cc 2000 	str.w	r2, [ip]
10000b1e:	eb03 0343 	add.w	r3, r3, r3, lsl #1
10000b22:	6832      	ldr	r2, [r6, #0]
10000b24:	00db      	lsls	r3, r3, #3
10000b26:	441d      	add	r5, r3
10000b28:	eb02 0342 	add.w	r3, r2, r2, lsl #1
10000b2c:	00db      	lsls	r3, r3, #3
10000b2e:	3204      	adds	r2, #4
10000b30:	4418      	add	r0, r3
10000b32:	4094      	lsls	r4, r2
10000b34:	f8cc 4000 	str.w	r4, [ip]
10000b38:	6039      	str	r1, [r7, #0]
10000b3a:	6039      	str	r1, [r7, #0]
10000b3c:	6029      	str	r1, [r5, #0]
10000b3e:	6029      	str	r1, [r5, #0]
10000b40:	6001      	str	r1, [r0, #0]
10000b42:	6001      	str	r1, [r0, #0]
10000b44:	e8bd 83f8 	ldmia.w	sp!, {r3, r4, r5, r6, r7, r8, r9, pc}
10000b48:	20000684 	.word	0x20000684
10000b4c:	50200000 	.word	0x50200000
10000b50:	502010d0 	.word	0x502010d0
10000b54:	20001098 	.word	0x20001098
10000b58:	20000688 	.word	0x20000688
10000b5c:	50202000 	.word	0x50202000

10000b60 <initVGA>:
10000b60:	e92d 4ff0 	stmdb	sp!, {r4, r5, r6, r7, r8, r9, sl, fp, lr}
10000b64:	ed2d 8b02 	vpush	{d8}
10000b68:	4614      	mov	r4, r2
10000b6a:	b091      	sub	sp, #68	@ 0x44
10000b6c:	9004      	str	r0, [sp, #16]
10000b6e:	9106      	str	r1, [sp, #24]
10000b70:	f7ff ffa0 	bl	10000ab4 <pioReset>
10000b74:	2c05      	cmp	r4, #5
10000b76:	f200 812b 	bhi.w	10000dd0 <initVGA+0x270>
10000b7a:	e8df f014 	tbh	[pc, r4, lsl #1]
10000b7e:	0006      	.short	0x0006
10000b80:	01550006 	.word	0x01550006
10000b84:	00060155 	.word	0x00060155
10000b88:	0155      	.short	0x0155
10000b8a:	4999      	ldr	r1, [pc, #612]	@ (10000df0 <initVGA+0x290>)
10000b8c:	4899      	ldr	r0, [pc, #612]	@ (10000df4 <initVGA+0x294>)
10000b8e:	f004 fb43 	bl	10005218 <pio_add_program>
10000b92:	4999      	ldr	r1, [pc, #612]	@ (10000df8 <initVGA+0x298>)
10000b94:	4681      	mov	r9, r0
10000b96:	4897      	ldr	r0, [pc, #604]	@ (10000df4 <initVGA+0x294>)
10000b98:	f004 fb3e 	bl	10005218 <pio_add_program>
10000b9c:	4997      	ldr	r1, [pc, #604]	@ (10000dfc <initVGA+0x29c>)
10000b9e:	4680      	mov	r8, r0
10000ba0:	4894      	ldr	r0, [pc, #592]	@ (10000df4 <initVGA+0x294>)
10000ba2:	f004 fb39 	bl	10005218 <pio_add_program>
10000ba6:	ed9f 8b8e 	vldr	d8, [pc, #568]	@ 10000de0 <initVGA+0x280>
10000baa:	4b95      	ldr	r3, [pc, #596]	@ (10000e00 <initVGA+0x2a0>)
10000bac:	4607      	mov	r7, r0
10000bae:	6819      	ldr	r1, [r3, #0]
10000bb0:	4890      	ldr	r0, [pc, #576]	@ (10000df4 <initVGA+0x294>)
10000bb2:	f004 fb0d 	bl	100051d0 <pio_sm_claim>
10000bb6:	4a93      	ldr	r2, [pc, #588]	@ (10000e04 <initVGA+0x2a4>)
10000bb8:	f8df b260 	ldr.w	fp, [pc, #608]	@ 10000e1c <initVGA+0x2bc>
10000bbc:	6811      	ldr	r1, [r2, #0]
10000bbe:	488d      	ldr	r0, [pc, #564]	@ (10000df4 <initVGA+0x294>)
10000bc0:	9203      	str	r2, [sp, #12]
10000bc2:	f004 fb05 	bl	100051d0 <pio_sm_claim>
10000bc6:	488b      	ldr	r0, [pc, #556]	@ (10000df4 <initVGA+0x294>)
10000bc8:	f8db 1000 	ldr.w	r1, [fp]
10000bcc:	f004 fb00 	bl	100051d0 <pio_sm_claim>
10000bd0:	f44f 2a40 	mov.w	sl, #786432	@ 0xc0000
10000bd4:	2100      	movs	r1, #0
10000bd6:	ed8d 8b08 	vstr	d8, [sp, #32]
10000bda:	f109 0606 	add.w	r6, r9, #6
10000bde:	f109 0301 	add.w	r3, r9, #1
10000be2:	0336      	lsls	r6, r6, #12
10000be4:	ea46 16c3 	orr.w	r6, r6, r3, lsl #7
10000be8:	4b85      	ldr	r3, [pc, #532]	@ (10000e00 <initVGA+0x2a0>)
10000bea:	ac08      	add	r4, sp, #32
10000bec:	6818      	ldr	r0, [r3, #0]
10000bee:	ad0c      	add	r5, sp, #48	@ 0x30
10000bf0:	910b      	str	r1, [sp, #44]	@ 0x2c
10000bf2:	f8cd a028 	str.w	sl, [sp, #40]	@ 0x28
10000bf6:	9005      	str	r0, [sp, #20]
10000bf8:	e894 000f 	ldmia.w	r4, {r0, r1, r2, r3}
10000bfc:	e885 000f 	stmia.w	r5, {r0, r1, r2, r3}
10000c00:	960d      	str	r6, [sp, #52]	@ 0x34
10000c02:	2601      	movs	r6, #1
10000c04:	e895 000f 	ldmia.w	r5, {r0, r1, r2, r3}
10000c08:	f8df c214 	ldr.w	ip, [pc, #532]	@ 10000e20 <initVGA+0x2c0>
10000c0c:	e884 000f 	stmia.w	r4, {r0, r1, r2, r3}
10000c10:	2106      	movs	r1, #6
10000c12:	2010      	movs	r0, #16
10000c14:	f8cd c02c 	str.w	ip, [sp, #44]	@ 0x2c
10000c18:	f8cd a020 	str.w	sl, [sp, #32]
10000c1c:	f001 fa3a 	bl	10002094 <gpio_set_function>
10000c20:	4633      	mov	r3, r6
10000c22:	2210      	movs	r2, #16
10000c24:	9905      	ldr	r1, [sp, #20]
10000c26:	9600      	str	r6, [sp, #0]
10000c28:	4872      	ldr	r0, [pc, #456]	@ (10000df4 <initVGA+0x294>)
10000c2a:	f004 fb89 	bl	10005340 <pio_sm_set_consecutive_pindirs>
10000c2e:	4623      	mov	r3, r4
10000c30:	464a      	mov	r2, r9
10000c32:	9905      	ldr	r1, [sp, #20]
10000c34:	486f      	ldr	r0, [pc, #444]	@ (10000df4 <initVGA+0x294>)
10000c36:	f004 fbc9 	bl	100053cc <pio_sm_init>
10000c3a:	f44f 3340 	mov.w	r3, #196608	@ 0x30000
10000c3e:	930c      	str	r3, [sp, #48]	@ 0x30
10000c40:	f108 030d 	add.w	r3, r8, #13
10000c44:	eb08 0206 	add.w	r2, r8, r6
10000c48:	031b      	lsls	r3, r3, #12
10000c4a:	ea43 13c2 	orr.w	r3, r3, r2, lsl #7
10000c4e:	f023 43c0 	bic.w	r3, r3, #1610612736	@ 0x60000000
10000c52:	9a03      	ldr	r2, [sp, #12]
10000c54:	f043 4380 	orr.w	r3, r3, #1073741824	@ 0x40000000
10000c58:	f8d2 9000 	ldr.w	r9, [r2]
10000c5c:	930d      	str	r3, [sp, #52]	@ 0x34
10000c5e:	4b6a      	ldr	r3, [pc, #424]	@ (10000e08 <initVGA+0x2a8>)
10000c60:	2106      	movs	r1, #6
10000c62:	2011      	movs	r0, #17
10000c64:	930f      	str	r3, [sp, #60]	@ 0x3c
10000c66:	f8cd a038 	str.w	sl, [sp, #56]	@ 0x38
10000c6a:	f001 fa13 	bl	10002094 <gpio_set_function>
10000c6e:	4633      	mov	r3, r6
10000c70:	2211      	movs	r2, #17
10000c72:	4649      	mov	r1, r9
10000c74:	9600      	str	r6, [sp, #0]
10000c76:	485f      	ldr	r0, [pc, #380]	@ (10000df4 <initVGA+0x294>)
10000c78:	f004 fb62 	bl	10005340 <pio_sm_set_consecutive_pindirs>
10000c7c:	4642      	mov	r2, r8
10000c7e:	462b      	mov	r3, r5
10000c80:	4649      	mov	r1, r9
10000c82:	485c      	ldr	r0, [pc, #368]	@ (10000df4 <initVGA+0x294>)
10000c84:	f004 fba2 	bl	100053cc <pio_sm_init>
10000c88:	2100      	movs	r1, #0
10000c8a:	ed8d 8b08 	vstr	d8, [sp, #32]
10000c8e:	ed9f 7b56 	vldr	d7, [pc, #344]	@ 10000de8 <initVGA+0x288>
10000c92:	e9cd a10a 	strd	sl, r1, [sp, #40]	@ 0x28
10000c96:	f107 0c08 	add.w	ip, r7, #8
10000c9a:	1cbb      	adds	r3, r7, #2
10000c9c:	ea4f 3c0c 	mov.w	ip, ip, lsl #12
10000ca0:	ea4c 1cc3 	orr.w	ip, ip, r3, lsl #7
10000ca4:	e894 000f 	ldmia.w	r4, {r0, r1, r2, r3}
10000ca8:	e885 000f 	stmia.w	r5, {r0, r1, r2, r3}
10000cac:	f8cd c034 	str.w	ip, [sp, #52]	@ 0x34
10000cb0:	e895 000f 	ldmia.w	r5, {r0, r1, r2, r3}
10000cb4:	e884 000f 	stmia.w	r4, {r0, r1, r2, r3}
10000cb8:	2106      	movs	r1, #6
10000cba:	2012      	movs	r0, #18
10000cbc:	ed8d 7b0a 	vstr	d7, [sp, #40]	@ 0x28
10000cc0:	f8db 8000 	ldr.w	r8, [fp]
10000cc4:	f001 f9e6 	bl	10002094 <gpio_set_function>
10000cc8:	2106      	movs	r1, #6
10000cca:	2013      	movs	r0, #19
10000ccc:	f001 f9e2 	bl	10002094 <gpio_set_function>
10000cd0:	2106      	movs	r1, #6
10000cd2:	2014      	movs	r0, #20
10000cd4:	f001 f9de 	bl	10002094 <gpio_set_function>
10000cd8:	2303      	movs	r3, #3
10000cda:	2212      	movs	r2, #18
10000cdc:	4641      	mov	r1, r8
10000cde:	9600      	str	r6, [sp, #0]
10000ce0:	4844      	ldr	r0, [pc, #272]	@ (10000df4 <initVGA+0x294>)
10000ce2:	f004 fb2d 	bl	10005340 <pio_sm_set_consecutive_pindirs>
10000ce6:	4623      	mov	r3, r4
10000ce8:	4641      	mov	r1, r8
10000cea:	463a      	mov	r2, r7
10000cec:	4841      	ldr	r0, [pc, #260]	@ (10000df4 <initVGA+0x294>)
10000cee:	f004 fb6d 	bl	100053cc <pio_sm_init>
10000cf2:	4b43      	ldr	r3, [pc, #268]	@ (10000e00 <initVGA+0x2a0>)
10000cf4:	4c3f      	ldr	r4, [pc, #252]	@ (10000df4 <initVGA+0x294>)
10000cf6:	6819      	ldr	r1, [r3, #0]
10000cf8:	f101 0310 	add.w	r3, r1, #16
10000cfc:	409e      	lsls	r6, r3
10000cfe:	6863      	ldr	r3, [r4, #4]
10000d00:	4233      	tst	r3, r6
10000d02:	d1fc      	bne.n	10000cfe <initVGA+0x19e>
10000d04:	f240 1547 	movw	r5, #327	@ 0x147
10000d08:	2201      	movs	r2, #1
10000d0a:	9b03      	ldr	r3, [sp, #12]
10000d0c:	6818      	ldr	r0, [r3, #0]
10000d0e:	1d0b      	adds	r3, r1, #4
10000d10:	f844 5023 	str.w	r5, [r4, r3, lsl #2]
10000d14:	f100 0310 	add.w	r3, r0, #16
10000d18:	4d36      	ldr	r5, [pc, #216]	@ (10000df4 <initVGA+0x294>)
10000d1a:	409a      	lsls	r2, r3
10000d1c:	686b      	ldr	r3, [r5, #4]
10000d1e:	4213      	tst	r3, r2
10000d20:	d1fc      	bne.n	10000d1c <initVGA+0x1bc>
10000d22:	f240 16df 	movw	r6, #479	@ 0x1df
10000d26:	2201      	movs	r2, #1
10000d28:	f8db 4000 	ldr.w	r4, [fp]
10000d2c:	1d03      	adds	r3, r0, #4
10000d2e:	f845 6023 	str.w	r6, [r5, r3, lsl #2]
10000d32:	f8df 80c0 	ldr.w	r8, [pc, #192]	@ 10000df4 <initVGA+0x294>
10000d36:	f104 0310 	add.w	r3, r4, #16
10000d3a:	409a      	lsls	r2, r3
10000d3c:	f8d8 3004 	ldr.w	r3, [r8, #4]
10000d40:	4213      	tst	r3, r2
10000d42:	d1fb      	bne.n	10000d3c <initVGA+0x1dc>
10000d44:	2501      	movs	r5, #1
10000d46:	239f      	movs	r3, #159	@ 0x9f
10000d48:	9e04      	ldr	r6, [sp, #16]
10000d4a:	fa05 f000 	lsl.w	r0, r5, r0
10000d4e:	f8d6 c000 	ldr.w	ip, [r6]
10000d52:	1d26      	adds	r6, r4, #4
10000d54:	f848 3026 	str.w	r3, [r8, r6, lsl #2]
10000d58:	fa05 f301 	lsl.w	r3, r5, r1
10000d5c:	4303      	orrs	r3, r0
10000d5e:	fa05 f104 	lsl.w	r1, r5, r4
10000d62:	430b      	orrs	r3, r1
10000d64:	0219      	lsls	r1, r3, #8
10000d66:	f401 6170 	and.w	r1, r1, #3840	@ 0xf00
10000d6a:	f8df e0b8 	ldr.w	lr, [pc, #184]	@ 10000e24 <initVGA+0x2c4>
10000d6e:	f003 030f 	and.w	r3, r3, #15
10000d72:	430b      	orrs	r3, r1
10000d74:	4a25      	ldr	r2, [pc, #148]	@ (10000e0c <initVGA+0x2ac>)
10000d76:	4f26      	ldr	r7, [pc, #152]	@ (10000e10 <initVGA+0x2b0>)
10000d78:	f8ce 3000 	str.w	r3, [lr]
10000d7c:	4628      	mov	r0, r5
10000d7e:	f8c7 c000 	str.w	ip, [r7]
10000d82:	6817      	ldr	r7, [r2, #0]
10000d84:	f004 fb76 	bl	10005474 <dma_claim_unused_channel>
10000d88:	f04f 41a0 	mov.w	r1, #1342177280	@ 0x50000000
10000d8c:	4b21      	ldr	r3, [pc, #132]	@ (10000e14 <initVGA+0x2b4>)
10000d8e:	4085      	lsls	r5, r0
10000d90:	0182      	lsls	r2, r0, #6
10000d92:	6018      	str	r0, [r3, #0]
10000d94:	440a      	add	r2, r1
10000d96:	f8c1 5464 	str.w	r5, [r1, #1124]	@ 0x464
10000d9a:	68d3      	ldr	r3, [r2, #12]
10000d9c:	015b      	lsls	r3, r3, #5
10000d9e:	d4fc      	bmi.n	10000d9a <initVGA+0x23a>
10000da0:	f8c1 540c 	str.w	r5, [r1, #1036]	@ 0x40c
10000da4:	21a0      	movs	r1, #160	@ 0xa0
10000da6:	9b04      	ldr	r3, [sp, #16]
10000da8:	eb07 0686 	add.w	r6, r7, r6, lsl #2
10000dac:	6013      	str	r3, [r2, #0]
10000dae:	f107 432f 	add.w	r3, r7, #2936012800	@ 0xaf000000
10000db2:	f503 0360 	add.w	r3, r3, #14680064	@ 0xe00000
10000db6:	0d1b      	lsrs	r3, r3, #20
10000db8:	eb04 04c3 	add.w	r4, r4, r3, lsl #3
10000dbc:	4b16      	ldr	r3, [pc, #88]	@ (10000e18 <initVGA+0x2b8>)
10000dbe:	6056      	str	r6, [r2, #4]
10000dc0:	ea03 3340 	and.w	r3, r3, r0, lsl #13
10000dc4:	ea43 4344 	orr.w	r3, r3, r4, lsl #17
10000dc8:	f043 0311 	orr.w	r3, r3, #17
10000dcc:	6091      	str	r1, [r2, #8]
10000dce:	6113      	str	r3, [r2, #16]
10000dd0:	b011      	add	sp, #68	@ 0x44
10000dd2:	ecbd 8b02 	vpop	{d8}
10000dd6:	e8bd 8ff0 	ldmia.w	sp!, {r4, r5, r6, r7, r8, r9, sl, fp, pc}
10000dda:	bf00      	nop
10000ddc:	f3af 8000 	nop.w
10000de0:	00010000 	.word	0x00010000
10000de4:	0001f000 	.word	0x0001f000
10000de8:	400c0000 	.word	0x400c0000
10000dec:	0c300252 	.word	0x0c300252
10000df0:	10006620 	.word	0x10006620
10000df4:	50200000 	.word	0x50200000
10000df8:	100065fc 	.word	0x100065fc
10000dfc:	100065e0 	.word	0x100065e0
10000e00:	20001098 	.word	0x20001098
10000e04:	20000688 	.word	0x20000688
10000e08:	44004620 	.word	0x44004620
10000e0c:	20000690 	.word	0x20000690
10000e10:	20001268 	.word	0x20001268
10000e14:	200011f8 	.word	0x200011f8
10000e18:	fc01fffd 	.word	0xfc01fffd
10000e1c:	20000684 	.word	0x20000684
10000e20:	04000200 	.word	0x04000200
10000e24:	50202000 	.word	0x50202000
10000e28:	49ad      	ldr	r1, [pc, #692]	@ (100010e0 <initVGA+0x580>)
10000e2a:	48ae      	ldr	r0, [pc, #696]	@ (100010e4 <initVGA+0x584>)
10000e2c:	f004 f9f4 	bl	10005218 <pio_add_program>
10000e30:	49ad      	ldr	r1, [pc, #692]	@ (100010e8 <initVGA+0x588>)
10000e32:	4607      	mov	r7, r0
10000e34:	48ab      	ldr	r0, [pc, #684]	@ (100010e4 <initVGA+0x584>)
10000e36:	f004 f9ef 	bl	10005218 <pio_add_program>
10000e3a:	49ac      	ldr	r1, [pc, #688]	@ (100010ec <initVGA+0x58c>)
10000e3c:	4682      	mov	sl, r0
10000e3e:	48a9      	ldr	r0, [pc, #676]	@ (100010e4 <initVGA+0x584>)
10000e40:	f004 f9ea 	bl	10005218 <pio_add_program>
10000e44:	4603      	mov	r3, r0
10000e46:	ed9f 8ba2 	vldr	d8, [pc, #648]	@ 100010d0 <initVGA+0x570>
10000e4a:	4aa9      	ldr	r2, [pc, #676]	@ (100010f0 <initVGA+0x590>)
10000e4c:	48a5      	ldr	r0, [pc, #660]	@ (100010e4 <initVGA+0x584>)
10000e4e:	6811      	ldr	r1, [r2, #0]
10000e50:	9305      	str	r3, [sp, #20]
10000e52:	f004 f9bd 	bl	100051d0 <pio_sm_claim>
10000e56:	49a7      	ldr	r1, [pc, #668]	@ (100010f4 <initVGA+0x594>)
10000e58:	f8df b2b8 	ldr.w	fp, [pc, #696]	@ 10001114 <initVGA+0x5b4>
10000e5c:	48a1      	ldr	r0, [pc, #644]	@ (100010e4 <initVGA+0x584>)
10000e5e:	9103      	str	r1, [sp, #12]
10000e60:	6809      	ldr	r1, [r1, #0]
10000e62:	f004 f9b5 	bl	100051d0 <pio_sm_claim>
10000e66:	489f      	ldr	r0, [pc, #636]	@ (100010e4 <initVGA+0x584>)
10000e68:	f8db 1000 	ldr.w	r1, [fp]
10000e6c:	f004 f9b0 	bl	100051d0 <pio_sm_claim>
10000e70:	f44f 2940 	mov.w	r9, #786432	@ 0xc0000
10000e74:	2000      	movs	r0, #0
10000e76:	ed8d 8b08 	vstr	d8, [sp, #32]
10000e7a:	4a9d      	ldr	r2, [pc, #628]	@ (100010f0 <initVGA+0x590>)
10000e7c:	f107 0608 	add.w	r6, r7, #8
10000e80:	e9cd 900a 	strd	r9, r0, [sp, #40]	@ 0x28
10000e84:	1c7b      	adds	r3, r7, #1
10000e86:	0336      	lsls	r6, r6, #12
10000e88:	ea46 16c3 	orr.w	r6, r6, r3, lsl #7
10000e8c:	6813      	ldr	r3, [r2, #0]
10000e8e:	ac08      	add	r4, sp, #32
10000e90:	ad0c      	add	r5, sp, #48	@ 0x30
10000e92:	f44f 28c0 	mov.w	r8, #393216	@ 0x60000
10000e96:	9307      	str	r3, [sp, #28]
10000e98:	e894 000f 	ldmia.w	r4, {r0, r1, r2, r3}
10000e9c:	e885 000f 	stmia.w	r5, {r0, r1, r2, r3}
10000ea0:	960d      	str	r6, [sp, #52]	@ 0x34
10000ea2:	2601      	movs	r6, #1
10000ea4:	e895 000f 	ldmia.w	r5, {r0, r1, r2, r3}
10000ea8:	f8df c26c 	ldr.w	ip, [pc, #620]	@ 10001118 <initVGA+0x5b8>
10000eac:	e884 000f 	stmia.w	r4, {r0, r1, r2, r3}
10000eb0:	2106      	movs	r1, #6
10000eb2:	2010      	movs	r0, #16
10000eb4:	f8cd c02c 	str.w	ip, [sp, #44]	@ 0x2c
10000eb8:	f8cd 8020 	str.w	r8, [sp, #32]
10000ebc:	f001 f8ea 	bl	10002094 <gpio_set_function>
10000ec0:	4633      	mov	r3, r6
10000ec2:	2210      	movs	r2, #16
10000ec4:	9907      	ldr	r1, [sp, #28]
10000ec6:	9600      	str	r6, [sp, #0]
10000ec8:	4886      	ldr	r0, [pc, #536]	@ (100010e4 <initVGA+0x584>)
10000eca:	f004 fa39 	bl	10005340 <pio_sm_set_consecutive_pindirs>
10000ece:	4623      	mov	r3, r4
10000ed0:	463a      	mov	r2, r7
10000ed2:	9907      	ldr	r1, [sp, #28]
10000ed4:	4883      	ldr	r0, [pc, #524]	@ (100010e4 <initVGA+0x584>)
10000ed6:	f004 fa79 	bl	100053cc <pio_sm_init>
10000eda:	f10a 030d 	add.w	r3, sl, #13
10000ede:	eb0a 0206 	add.w	r2, sl, r6
10000ee2:	031b      	lsls	r3, r3, #12
10000ee4:	ea43 13c2 	orr.w	r3, r3, r2, lsl #7
10000ee8:	9f03      	ldr	r7, [sp, #12]
10000eea:	f023 43c0 	bic.w	r3, r3, #1610612736	@ 0x60000000
10000eee:	f043 4380 	orr.w	r3, r3, #1073741824	@ 0x40000000
10000ef2:	683f      	ldr	r7, [r7, #0]
10000ef4:	930d      	str	r3, [sp, #52]	@ 0x34
10000ef6:	4b80      	ldr	r3, [pc, #512]	@ (100010f8 <initVGA+0x598>)
10000ef8:	2106      	movs	r1, #6
10000efa:	2011      	movs	r0, #17
10000efc:	f8cd 8030 	str.w	r8, [sp, #48]	@ 0x30
10000f00:	f8cd 9038 	str.w	r9, [sp, #56]	@ 0x38
10000f04:	930f      	str	r3, [sp, #60]	@ 0x3c
10000f06:	f001 f8c5 	bl	10002094 <gpio_set_function>
10000f0a:	4633      	mov	r3, r6
10000f0c:	4639      	mov	r1, r7
10000f0e:	2211      	movs	r2, #17
10000f10:	9600      	str	r6, [sp, #0]
10000f12:	4874      	ldr	r0, [pc, #464]	@ (100010e4 <initVGA+0x584>)
10000f14:	f004 fa14 	bl	10005340 <pio_sm_set_consecutive_pindirs>
10000f18:	4639      	mov	r1, r7
10000f1a:	462b      	mov	r3, r5
10000f1c:	4652      	mov	r2, sl
10000f1e:	4871      	ldr	r0, [pc, #452]	@ (100010e4 <initVGA+0x584>)
10000f20:	f004 fa54 	bl	100053cc <pio_sm_init>
10000f24:	2000      	movs	r0, #0
10000f26:	ed8d 8b08 	vstr	d8, [sp, #32]
10000f2a:	9b05      	ldr	r3, [sp, #20]
10000f2c:	e9cd 900a 	strd	r9, r0, [sp, #40]	@ 0x28
10000f30:	f20f 19a4 	addw	r9, pc, #420	@ 0x1a4
10000f34:	e9d9 8900 	ldrd	r8, r9, [r9]
10000f38:	f103 0c08 	add.w	ip, r3, #8
10000f3c:	ea4f 3c0c 	mov.w	ip, ip, lsl #12
10000f40:	3302      	adds	r3, #2
10000f42:	ea4c 1cc3 	orr.w	ip, ip, r3, lsl #7
10000f46:	e894 000f 	ldmia.w	r4, {r0, r1, r2, r3}
10000f4a:	e885 000f 	stmia.w	r5, {r0, r1, r2, r3}
10000f4e:	f8cd c034 	str.w	ip, [sp, #52]	@ 0x34
10000f52:	e895 000f 	ldmia.w	r5, {r0, r1, r2, r3}
10000f56:	e884 000f 	stmia.w	r4, {r0, r1, r2, r3}
10000f5a:	2106      	movs	r1, #6
10000f5c:	2012      	movs	r0, #18
10000f5e:	f8db 7000 	ldr.w	r7, [fp]
10000f62:	e9cd 890a 	strd	r8, r9, [sp, #40]	@ 0x28
10000f66:	f001 f895 	bl	10002094 <gpio_set_function>
10000f6a:	2106      	movs	r1, #6
10000f6c:	2013      	movs	r0, #19
10000f6e:	f001 f891 	bl	10002094 <gpio_set_function>
10000f72:	2106      	movs	r1, #6
10000f74:	2014      	movs	r0, #20
10000f76:	f001 f88d 	bl	10002094 <gpio_set_function>
10000f7a:	2303      	movs	r3, #3
10000f7c:	2212      	movs	r2, #18
10000f7e:	4639      	mov	r1, r7
10000f80:	9600      	str	r6, [sp, #0]
10000f82:	4858      	ldr	r0, [pc, #352]	@ (100010e4 <initVGA+0x584>)
10000f84:	f004 f9dc 	bl	10005340 <pio_sm_set_consecutive_pindirs>
10000f88:	4623      	mov	r3, r4
10000f8a:	9a05      	ldr	r2, [sp, #20]
10000f8c:	4639      	mov	r1, r7
10000f8e:	4855      	ldr	r0, [pc, #340]	@ (100010e4 <initVGA+0x584>)
10000f90:	f004 fa1c 	bl	100053cc <pio_sm_init>
10000f94:	4a56      	ldr	r2, [pc, #344]	@ (100010f0 <initVGA+0x590>)
10000f96:	4c53      	ldr	r4, [pc, #332]	@ (100010e4 <initVGA+0x584>)
10000f98:	6812      	ldr	r2, [r2, #0]
10000f9a:	f102 0310 	add.w	r3, r2, #16
10000f9e:	409e      	lsls	r6, r3
10000fa0:	6863      	ldr	r3, [r4, #4]
10000fa2:	4233      	tst	r3, r6
10000fa4:	d1fc      	bne.n	10000fa0 <initVGA+0x440>
10000fa6:	f240 258f 	movw	r5, #655	@ 0x28f
10000faa:	2101      	movs	r1, #1
10000fac:	9b03      	ldr	r3, [sp, #12]
10000fae:	6818      	ldr	r0, [r3, #0]
10000fb0:	1d13      	adds	r3, r2, #4
10000fb2:	f844 5023 	str.w	r5, [r4, r3, lsl #2]
10000fb6:	f100 0310 	add.w	r3, r0, #16
10000fba:	4c4a      	ldr	r4, [pc, #296]	@ (100010e4 <initVGA+0x584>)
10000fbc:	4099      	lsls	r1, r3
10000fbe:	6863      	ldr	r3, [r4, #4]
10000fc0:	420b      	tst	r3, r1
10000fc2:	d1fc      	bne.n	10000fbe <initVGA+0x45e>
10000fc4:	f240 16df 	movw	r6, #479	@ 0x1df
10000fc8:	2101      	movs	r1, #1
10000fca:	f8db 5000 	ldr.w	r5, [fp]
10000fce:	1d03      	adds	r3, r0, #4
10000fd0:	f844 6023 	str.w	r6, [r4, r3, lsl #2]
10000fd4:	4f43      	ldr	r7, [pc, #268]	@ (100010e4 <initVGA+0x584>)
10000fd6:	f105 0310 	add.w	r3, r5, #16
10000fda:	4099      	lsls	r1, r3
10000fdc:	687b      	ldr	r3, [r7, #4]
10000fde:	420b      	tst	r3, r1
10000fe0:	d1fc      	bne.n	10000fdc <initVGA+0x47c>
10000fe2:	2301      	movs	r3, #1
10000fe4:	f240 1e3f 	movw	lr, #319	@ 0x13f
10000fe8:	f04f 41a0 	mov.w	r1, #1342177280	@ 0x50000000
10000fec:	fa03 f000 	lsl.w	r0, r3, r0
10000ff0:	fa03 f202 	lsl.w	r2, r3, r2
10000ff4:	f105 0c04 	add.w	ip, r5, #4
10000ff8:	4302      	orrs	r2, r0
10000ffa:	fa03 f505 	lsl.w	r5, r3, r5
10000ffe:	432a      	orrs	r2, r5
10001000:	0210      	lsls	r0, r2, #8
10001002:	f400 6070 	and.w	r0, r0, #3840	@ 0xf00
10001006:	4e3d      	ldr	r6, [pc, #244]	@ (100010fc <initVGA+0x59c>)
10001008:	4c3d      	ldr	r4, [pc, #244]	@ (10001100 <initVGA+0x5a0>)
1000100a:	f002 020f 	and.w	r2, r2, #15
1000100e:	4302      	orrs	r2, r0
10001010:	f847 e02c 	str.w	lr, [r7, ip, lsl #2]
10001014:	6032      	str	r2, [r6, #0]
10001016:	6822      	ldr	r2, [r4, #0]
10001018:	fa03 f002 	lsl.w	r0, r3, r2
1000101c:	4b39      	ldr	r3, [pc, #228]	@ (10001104 <initVGA+0x5a4>)
1000101e:	0192      	lsls	r2, r2, #6
10001020:	681d      	ldr	r5, [r3, #0]
10001022:	440a      	add	r2, r1
10001024:	f8c1 0464 	str.w	r0, [r1, #1124]	@ 0x464
10001028:	68d3      	ldr	r3, [r2, #12]
1000102a:	015e      	lsls	r6, r3, #5
1000102c:	d4fc      	bmi.n	10001028 <initVGA+0x4c8>
1000102e:	f8c1 040c 	str.w	r0, [r1, #1036]	@ 0x40c
10001032:	2001      	movs	r0, #1
10001034:	f04f 46a0 	mov.w	r6, #1342177280	@ 0x50000000
10001038:	4f33      	ldr	r7, [pc, #204]	@ (10001108 <initVGA+0x5a8>)
1000103a:	683b      	ldr	r3, [r7, #0]
1000103c:	019a      	lsls	r2, r3, #6
1000103e:	4098      	lsls	r0, r3
10001040:	4432      	add	r2, r6
10001042:	f8c1 0464 	str.w	r0, [r1, #1124]	@ 0x464
10001046:	68d3      	ldr	r3, [r2, #12]
10001048:	015b      	lsls	r3, r3, #5
1000104a:	d4fc      	bmi.n	10001046 <initVGA+0x4e6>
1000104c:	f8c6 040c 	str.w	r0, [r6, #1036]	@ 0x40c
10001050:	2001      	movs	r0, #1
10001052:	f004 fa0f 	bl	10005474 <dma_claim_unused_channel>
10001056:	6020      	str	r0, [r4, #0]
10001058:	2001      	movs	r0, #1
1000105a:	f004 fa0b 	bl	10005474 <dma_claim_unused_channel>
1000105e:	2101      	movs	r1, #1
10001060:	f8d4 c000 	ldr.w	ip, [r4]
10001064:	f8db 4000 	ldr.w	r4, [fp]
10001068:	4a28      	ldr	r2, [pc, #160]	@ (1000110c <initVGA+0x5ac>)
1000106a:	f104 0e04 	add.w	lr, r4, #4
1000106e:	eb05 048e 	add.w	r4, r5, lr, lsl #2
10001072:	9d04      	ldr	r5, [sp, #16]
10001074:	6038      	str	r0, [r7, #0]
10001076:	ea02 324c 	and.w	r2, r2, ip, lsl #13
1000107a:	682f      	ldr	r7, [r5, #0]
1000107c:	ea4f 158c 	mov.w	r5, ip, lsl #6
10001080:	f105 45a0 	add.w	r5, r5, #1342177280	@ 0x50000000
10001084:	ea42 3240 	orr.w	r2, r2, r0, lsl #13
10001088:	4b21      	ldr	r3, [pc, #132]	@ (10001110 <initVGA+0x5b0>)
1000108a:	602f      	str	r7, [r5, #0]
1000108c:	f442 2280 	orr.w	r2, r2, #262144	@ 0x40000
10001090:	606c      	str	r4, [r5, #4]
10001092:	9c06      	ldr	r4, [sp, #24]
10001094:	ea03 3340 	and.w	r3, r3, r0, lsl #13
10001098:	f042 0211 	orr.w	r2, r2, #17
1000109c:	60ac      	str	r4, [r5, #8]
1000109e:	ea43 334c 	orr.w	r3, r3, ip, lsl #13
100010a2:	612a      	str	r2, [r5, #16]
100010a4:	0180      	lsls	r0, r0, #6
100010a6:	9a04      	ldr	r2, [sp, #16]
100010a8:	f100 40a0 	add.w	r0, r0, #1342177280	@ 0x50000000
100010ac:	f443 03fc 	orr.w	r3, r3, #8257536	@ 0x7e0000
100010b0:	6002      	str	r2, [r0, #0]
100010b2:	f043 0309 	orr.w	r3, r3, #9
100010b6:	fa01 f20c 	lsl.w	r2, r1, ip
100010ba:	6045      	str	r5, [r0, #4]
100010bc:	6081      	str	r1, [r0, #8]
100010be:	6103      	str	r3, [r0, #16]
100010c0:	f8c6 2450 	str.w	r2, [r6, #1104]	@ 0x450
100010c4:	b011      	add	sp, #68	@ 0x44
100010c6:	ecbd 8b02 	vpop	{d8}
100010ca:	e8bd 8ff0 	ldmia.w	sp!, {r4, r5, r6, r7, r8, r9, sl, fp, pc}
100010ce:	bf00      	nop
100010d0:	00010000 	.word	0x00010000
100010d4:	0001f000 	.word	0x0001f000
100010d8:	400c0000 	.word	0x400c0000
100010dc:	0c300252 	.word	0x0c300252
100010e0:	100065c4 	.word	0x100065c4
100010e4:	50200000 	.word	0x50200000
100010e8:	100065a0 	.word	0x100065a0
100010ec:	10006584 	.word	0x10006584
100010f0:	20001098 	.word	0x20001098
100010f4:	20000688 	.word	0x20000688
100010f8:	44004620 	.word	0x44004620
100010fc:	50202000 	.word	0x50202000
10001100:	200011f8 	.word	0x200011f8
10001104:	20000690 	.word	0x20000690
10001108:	200011fc 	.word	0x200011fc
1000110c:	fc001ffd 	.word	0xfc001ffd
10001110:	fc7e1ffd 	.word	0xfc7e1ffd
10001114:	20000684 	.word	0x20000684
10001118:	04000200 	.word	0x04000200

1000111c <set_vga_data_array>:
1000111c:	4b02      	ldr	r3, [pc, #8]	@ (10001128 <set_vga_data_array+0xc>)
1000111e:	681b      	ldr	r3, [r3, #0]
10001120:	6c5b      	ldr	r3, [r3, #68]	@ 0x44
10001122:	6298      	str	r0, [r3, #40]	@ 0x28
10001124:	4770      	bx	lr
10001126:	bf00      	nop
10001128:	20001264 	.word	0x20001264

1000112c <set_vga_home>:
1000112c:	2100      	movs	r1, #0
1000112e:	4b02      	ldr	r3, [pc, #8]	@ (10001138 <set_vga_home+0xc>)
10001130:	4608      	mov	r0, r1
10001132:	681b      	ldr	r3, [r3, #0]
10001134:	691b      	ldr	r3, [r3, #16]
10001136:	4718      	bx	r3
10001138:	20001264 	.word	0x20001264

1000113c <set_vga_mode>:
1000113c:	4b0a      	ldr	r3, [pc, #40]	@ (10001168 <set_vga_mode+0x2c>)
1000113e:	681b      	ldr	r3, [r3, #0]
10001140:	6c5b      	ldr	r3, [r3, #68]	@ 0x44
10001142:	7218      	strb	r0, [r3, #8]
10001144:	2805      	cmp	r0, #5
10001146:	d80a      	bhi.n	1000115e <set_vga_mode+0x22>
10001148:	e8df f000 	tbb	[pc, r0]
1000114c:	03030606 	.word	0x03030606
10001150:	0306      	.short	0x0306
10001152:	4a06      	ldr	r2, [pc, #24]	@ (1000116c <set_vga_mode+0x30>)
10001154:	601a      	str	r2, [r3, #0]
10001156:	4770      	bx	lr
10001158:	4a05      	ldr	r2, [pc, #20]	@ (10001170 <set_vga_mode+0x34>)
1000115a:	601a      	str	r2, [r3, #0]
1000115c:	4770      	bx	lr
1000115e:	2202      	movs	r2, #2
10001160:	4902      	ldr	r1, [pc, #8]	@ (1000116c <set_vga_mode+0x30>)
10001162:	721a      	strb	r2, [r3, #8]
10001164:	6019      	str	r1, [r3, #0]
10001166:	4770      	bx	lr
10001168:	20001264 	.word	0x20001264
1000116c:	01e00280 	.word	0x01e00280
10001170:	00f00140 	.word	0x00f00140

10001174 <setTextCursor>:
10001174:	4b0f      	ldr	r3, [pc, #60]	@ (100011b4 <setTextCursor+0x40>)
10001176:	681b      	ldr	r3, [r3, #0]
10001178:	6c5b      	ldr	r3, [r3, #68]	@ 0x44
1000117a:	f8b3 c000 	ldrh.w	ip, [r3]
1000117e:	4584      	cmp	ip, r0
10001180:	d916      	bls.n	100011b0 <setTextCursor+0x3c>
10001182:	885a      	ldrh	r2, [r3, #2]
10001184:	428a      	cmp	r2, r1
10001186:	d913      	bls.n	100011b0 <setTextCursor+0x3c>
10001188:	b500      	push	{lr}
1000118a:	f893 e010 	ldrb.w	lr, [r3, #16]
1000118e:	7c5a      	ldrb	r2, [r3, #17]
10001190:	685b      	ldr	r3, [r3, #4]
10001192:	fb12 f201 	smulbb	r2, r2, r1
10001196:	fb0e f100 	mul.w	r1, lr, r0
1000119a:	4561      	cmp	r1, ip
1000119c:	bfb8      	it	lt
1000119e:	fb1e f000 	smulbblt	r0, lr, r0
100011a2:	b292      	uxth	r2, r2
100011a4:	bfb8      	it	lt
100011a6:	b280      	uxthlt	r0, r0
100011a8:	8018      	strh	r0, [r3, #0]
100011aa:	805a      	strh	r2, [r3, #2]
100011ac:	f85d fb04 	ldr.w	pc, [sp], #4
100011b0:	4770      	bx	lr
100011b2:	bf00      	nop
100011b4:	20001264 	.word	0x20001264

100011b8 <getTextSize>:
100011b8:	4b02      	ldr	r3, [pc, #8]	@ (100011c4 <getTextSize+0xc>)
100011ba:	681b      	ldr	r3, [r3, #0]
100011bc:	6c5b      	ldr	r3, [r3, #68]	@ 0x44
100011be:	7c98      	ldrb	r0, [r3, #18]
100011c0:	4770      	bx	lr
100011c2:	bf00      	nop
100011c4:	20001264 	.word	0x20001264

100011c8 <set_blink_interval>:
100011c8:	4b02      	ldr	r3, [pc, #8]	@ (100011d4 <set_blink_interval+0xc>)
100011ca:	681b      	ldr	r3, [r3, #0]
100011cc:	6c5b      	ldr	r3, [r3, #68]	@ 0x44
100011ce:	685b      	ldr	r3, [r3, #4]
100011d0:	80d8      	strh	r0, [r3, #6]
100011d2:	4770      	bx	lr
100011d4:	20001264 	.word	0x20001264

100011d8 <get_blink_interval>:
100011d8:	4b02      	ldr	r3, [pc, #8]	@ (100011e4 <get_blink_interval+0xc>)
100011da:	681b      	ldr	r3, [r3, #0]
100011dc:	6c5b      	ldr	r3, [r3, #68]	@ 0x44
100011de:	685b      	ldr	r3, [r3, #4]
100011e0:	88d8      	ldrh	r0, [r3, #6]
100011e2:	4770      	bx	lr
100011e4:	20001264 	.word	0x20001264

100011e8 <setTextCursorVisible>:
100011e8:	4b02      	ldr	r3, [pc, #8]	@ (100011f4 <setTextCursorVisible+0xc>)
100011ea:	681b      	ldr	r3, [r3, #0]
100011ec:	6c5b      	ldr	r3, [r3, #68]	@ 0x44
100011ee:	685b      	ldr	r3, [r3, #4]
100011f0:	7118      	strb	r0, [r3, #4]
100011f2:	4770      	bx	lr
100011f4:	20001264 	.word	0x20001264

100011f8 <setTextCursorBlink>:
100011f8:	4b02      	ldr	r3, [pc, #8]	@ (10001204 <setTextCursorBlink+0xc>)
100011fa:	681b      	ldr	r3, [r3, #0]
100011fc:	6c5b      	ldr	r3, [r3, #68]	@ 0x44
100011fe:	685b      	ldr	r3, [r3, #4]
10001200:	7158      	strb	r0, [r3, #5]
10001202:	4770      	bx	lr
10001204:	20001264 	.word	0x20001264

10001208 <setTextColor>:
10001208:	4b02      	ldr	r3, [pc, #8]	@ (10001214 <setTextColor+0xc>)
1000120a:	681b      	ldr	r3, [r3, #0]
1000120c:	6c5b      	ldr	r3, [r3, #68]	@ 0x44
1000120e:	7618      	strb	r0, [r3, #24]
10001210:	7659      	strb	r1, [r3, #25]
10001212:	4770      	bx	lr
10001214:	20001264 	.word	0x20001264

10001218 <getTextColor>:
10001218:	4b02      	ldr	r3, [pc, #8]	@ (10001224 <getTextColor+0xc>)
1000121a:	681b      	ldr	r3, [r3, #0]
1000121c:	6c5b      	ldr	r3, [r3, #68]	@ 0x44
1000121e:	7e18      	ldrb	r0, [r3, #24]
10001220:	4770      	bx	lr
10001222:	bf00      	nop
10001224:	20001264 	.word	0x20001264

10001228 <clrscr>:
10001228:	4b06      	ldr	r3, [pc, #24]	@ (10001244 <clrscr+0x1c>)
1000122a:	b510      	push	{r4, lr}
1000122c:	681b      	ldr	r3, [r3, #0]
1000122e:	2100      	movs	r1, #0
10001230:	6c5c      	ldr	r4, [r3, #68]	@ 0x44
10001232:	69e2      	ldr	r2, [r4, #28]
10001234:	6aa0      	ldr	r0, [r4, #40]	@ 0x28
10001236:	f004 fd13 	bl	10005c60 <memset>
1000123a:	2200      	movs	r2, #0
1000123c:	6863      	ldr	r3, [r4, #4]
1000123e:	601a      	str	r2, [r3, #0]
10001240:	bd10      	pop	{r4, pc}
10001242:	bf00      	nop
10001244:	20001264 	.word	0x20001264

10001248 <get_vga>:
10001248:	4b01      	ldr	r3, [pc, #4]	@ (10001250 <get_vga+0x8>)
1000124a:	6818      	ldr	r0, [r3, #0]
1000124c:	4770      	bx	lr
1000124e:	bf00      	nop
10001250:	20001264 	.word	0x20001264

10001254 <drawPixel>:
10001254:	4b11      	ldr	r3, [pc, #68]	@ (1000129c <drawPixel+0x48>)
10001256:	b530      	push	{r4, r5, lr}
10001258:	681b      	ldr	r3, [r3, #0]
1000125a:	6c5c      	ldr	r4, [r3, #68]	@ 0x44
1000125c:	ea40 0301 	orr.w	r3, r0, r1
10001260:	f8b4 e002 	ldrh.w	lr, [r4, #2]
10001264:	0fdb      	lsrs	r3, r3, #31
10001266:	458e      	cmp	lr, r1
10001268:	bfd8      	it	le
1000126a:	f043 0301 	orrle.w	r3, r3, #1
1000126e:	f8b4 c000 	ldrh.w	ip, [r4]
10001272:	b96b      	cbnz	r3, 10001290 <drawPixel+0x3c>
10001274:	4584      	cmp	ip, r0
10001276:	dd0b      	ble.n	10001290 <drawPixel+0x3c>
10001278:	fb01 000c 	mla	r0, r1, ip, r0
1000127c:	6aa5      	ldr	r5, [r4, #40]	@ 0x28
1000127e:	1041      	asrs	r1, r0, #1
10001280:	07c0      	lsls	r0, r0, #31
10001282:	5c6b      	ldrb	r3, [r5, r1]
10001284:	d505      	bpl.n	10001292 <drawPixel+0x3e>
10001286:	8c20      	ldrh	r0, [r4, #32]
10001288:	4003      	ands	r3, r0
1000128a:	ea43 1202 	orr.w	r2, r3, r2, lsl #4
1000128e:	546a      	strb	r2, [r5, r1]
10001290:	bd30      	pop	{r4, r5, pc}
10001292:	8c60      	ldrh	r0, [r4, #34]	@ 0x22
10001294:	4003      	ands	r3, r0
10001296:	431a      	orrs	r2, r3
10001298:	546a      	strb	r2, [r5, r1]
1000129a:	bd30      	pop	{r4, r5, pc}
1000129c:	20001264 	.word	0x20001264

100012a0 <drawHLine>:
100012a0:	e92d 41f0 	stmdb	sp!, {r4, r5, r6, r7, r8, lr}
100012a4:	4c21      	ldr	r4, [pc, #132]	@ (1000132c <drawHLine+0x8c>)
100012a6:	6824      	ldr	r4, [r4, #0]
100012a8:	f8d4 8044 	ldr.w	r8, [r4, #68]	@ 0x44
100012ac:	f8b8 c000 	ldrh.w	ip, [r8]
100012b0:	4584      	cmp	ip, r0
100012b2:	dd19      	ble.n	100012e8 <drawHLine+0x48>
100012b4:	461f      	mov	r7, r3
100012b6:	f8b8 3002 	ldrh.w	r3, [r8, #2]
100012ba:	460e      	mov	r6, r1
100012bc:	428b      	cmp	r3, r1
100012be:	dd13      	ble.n	100012e8 <drawHLine+0x48>
100012c0:	1883      	adds	r3, r0, r2
100012c2:	459c      	cmp	ip, r3
100012c4:	bfb8      	it	lt
100012c6:	ebac 0c00 	sublt.w	ip, ip, r0
100012ca:	4614      	mov	r4, r2
100012cc:	bfb8      	it	lt
100012ce:	f10c 34ff 	addlt.w	r4, ip, #4294967295	@ 0xffffffff
100012d2:	07c2      	lsls	r2, r0, #31
100012d4:	4605      	mov	r5, r0
100012d6:	d420      	bmi.n	1000131a <drawHLine+0x7a>
100012d8:	07e3      	lsls	r3, r4, #31
100012da:	d415      	bmi.n	10001308 <drawHLine+0x68>
100012dc:	1062      	asrs	r2, r4, #1
100012de:	2a00      	cmp	r2, #0
100012e0:	dd02      	ble.n	100012e8 <drawHLine+0x48>
100012e2:	f5b6 7ff0 	cmp.w	r6, #480	@ 0x1e0
100012e6:	db01      	blt.n	100012ec <drawHLine+0x4c>
100012e8:	e8bd 81f0 	ldmia.w	sp!, {r4, r5, r6, r7, r8, pc}
100012ec:	f8d8 0028 	ldr.w	r0, [r8, #40]	@ 0x28
100012f0:	eb06 0686 	add.w	r6, r6, r6, lsl #2
100012f4:	106d      	asrs	r5, r5, #1
100012f6:	eb05 1586 	add.w	r5, r5, r6, lsl #6
100012fa:	ea47 1107 	orr.w	r1, r7, r7, lsl #4
100012fe:	4428      	add	r0, r5
10001300:	e8bd 41f0 	ldmia.w	sp!, {r4, r5, r6, r7, r8, lr}
10001304:	f004 bcac 	b.w	10005c60 <memset>
10001308:	1928      	adds	r0, r5, r4
1000130a:	3801      	subs	r0, #1
1000130c:	463a      	mov	r2, r7
1000130e:	b200      	sxth	r0, r0
10001310:	b231      	sxth	r1, r6
10001312:	f7ff ff9f 	bl	10001254 <drawPixel>
10001316:	3c01      	subs	r4, #1
10001318:	e7e0      	b.n	100012dc <drawHLine+0x3c>
1000131a:	463a      	mov	r2, r7
1000131c:	b209      	sxth	r1, r1
1000131e:	b200      	sxth	r0, r0
10001320:	f7ff ff98 	bl	10001254 <drawPixel>
10001324:	3501      	adds	r5, #1
10001326:	3c01      	subs	r4, #1
10001328:	e7d6      	b.n	100012d8 <drawHLine+0x38>
1000132a:	bf00      	nop
1000132c:	20001264 	.word	0x20001264

10001330 <fillRect>:
10001330:	e92d 4ff0 	stmdb	sp!, {r4, r5, r6, r7, r8, r9, sl, fp, lr}
10001334:	4c25      	ldr	r4, [pc, #148]	@ (100013cc <fillRect+0x9c>)
10001336:	468a      	mov	sl, r1
10001338:	6826      	ldr	r6, [r4, #0]
1000133a:	1859      	adds	r1, r3, r1
1000133c:	6c74      	ldr	r4, [r6, #68]	@ 0x44
1000133e:	f89d 7024 	ldrb.w	r7, [sp, #36]	@ 0x24
10001342:	8865      	ldrh	r5, [r4, #2]
10001344:	42a9      	cmp	r1, r5
10001346:	dd03      	ble.n	10001350 <fillRect+0x20>
10001348:	1e6b      	subs	r3, r5, #1
1000134a:	eba3 030a 	sub.w	r3, r3, sl
1000134e:	b21b      	sxth	r3, r3
10001350:	4290      	cmp	r0, r2
10001352:	4684      	mov	ip, r0
10001354:	dc37      	bgt.n	100013c6 <fillRect+0x96>
10001356:	459a      	cmp	sl, r3
10001358:	dc35      	bgt.n	100013c6 <fillRect+0x96>
1000135a:	f102 0901 	add.w	r9, r2, #1
1000135e:	1c5d      	adds	r5, r3, #1
10001360:	ea4f 1807 	mov.w	r8, r7, lsl #4
10001364:	4653      	mov	r3, sl
10001366:	fa0f f18c 	sxth.w	r1, ip
1000136a:	e009      	b.n	10001380 <fillRect+0x50>
1000136c:	8c22      	ldrh	r2, [r4, #32]
1000136e:	4002      	ands	r2, r0
10001370:	ea42 0208 	orr.w	r2, r2, r8
10001374:	f80b 200e 	strb.w	r2, [fp, lr]
10001378:	3301      	adds	r3, #1
1000137a:	42ab      	cmp	r3, r5
1000137c:	d01d      	beq.n	100013ba <fillRect+0x8a>
1000137e:	6c74      	ldr	r4, [r6, #68]	@ 0x44
10001380:	8822      	ldrh	r2, [r4, #0]
10001382:	8860      	ldrh	r0, [r4, #2]
10001384:	ea41 0e03 	orr.w	lr, r1, r3
10001388:	4562      	cmp	r2, ip
1000138a:	bfc8      	it	gt
1000138c:	4298      	cmpgt	r0, r3
1000138e:	ddf3      	ble.n	10001378 <fillRect+0x48>
10001390:	f41e 4f00 	tst.w	lr, #32768	@ 0x8000
10001394:	d1f0      	bne.n	10001378 <fillRect+0x48>
10001396:	fb03 c202 	mla	r2, r3, r2, ip
1000139a:	f8d4 b028 	ldr.w	fp, [r4, #40]	@ 0x28
1000139e:	ea4f 0e62 	mov.w	lr, r2, asr #1
100013a2:	07d2      	lsls	r2, r2, #31
100013a4:	f81b 000e 	ldrb.w	r0, [fp, lr]
100013a8:	d4e0      	bmi.n	1000136c <fillRect+0x3c>
100013aa:	8c62      	ldrh	r2, [r4, #34]	@ 0x22
100013ac:	3301      	adds	r3, #1
100013ae:	4010      	ands	r0, r2
100013b0:	4338      	orrs	r0, r7
100013b2:	42ab      	cmp	r3, r5
100013b4:	f80b 000e 	strb.w	r0, [fp, lr]
100013b8:	d1e1      	bne.n	1000137e <fillRect+0x4e>
100013ba:	f10c 0c01 	add.w	ip, ip, #1
100013be:	45cc      	cmp	ip, r9
100013c0:	d001      	beq.n	100013c6 <fillRect+0x96>
100013c2:	6c74      	ldr	r4, [r6, #68]	@ 0x44
100013c4:	e7ce      	b.n	10001364 <fillRect+0x34>
100013c6:	e8bd 8ff0 	ldmia.w	sp!, {r4, r5, r6, r7, r8, r9, sl, fp, pc}
100013ca:	bf00      	nop
100013cc:	20001264 	.word	0x20001264

100013d0 <drawChar2>:
100013d0:	e92d 4ff0 	stmdb	sp!, {r4, r5, r6, r7, r8, r9, sl, fp, lr}
100013d4:	4691      	mov	r9, r2
100013d6:	469a      	mov	sl, r3
100013d8:	4b45      	ldr	r3, [pc, #276]	@ (100014f0 <drawChar2+0x120>)
100013da:	b089      	sub	sp, #36	@ 0x24
100013dc:	681c      	ldr	r4, [r3, #0]
100013de:	f89d 5048 	ldrb.w	r5, [sp, #72]	@ 0x48
100013e2:	f8d4 b044 	ldr.w	fp, [r4, #68]	@ 0x44
100013e6:	2208      	movs	r2, #8
100013e8:	2310      	movs	r3, #16
100013ea:	4607      	mov	r7, r0
100013ec:	4688      	mov	r8, r1
100013ee:	9500      	str	r5, [sp, #0]
100013f0:	b200      	sxth	r0, r0
100013f2:	b209      	sxth	r1, r1
100013f4:	f7ff ff9c 	bl	10001330 <fillRect>
100013f8:	f89b 6011 	ldrb.w	r6, [fp, #17]
100013fc:	fb19 f206 	smulbb	r2, r9, r6
10001400:	2e00      	cmp	r6, #0
10001402:	d071      	beq.n	100014e8 <drawChar2+0x118>
10001404:	493b      	ldr	r1, [pc, #236]	@ (100014f4 <drawChar2+0x124>)
10001406:	1e56      	subs	r6, r2, #1
10001408:	440e      	add	r6, r1
1000140a:	f1c1 0101 	rsb	r1, r1, #1
1000140e:	1a8a      	subs	r2, r1, r2
10001410:	fa5f fa8a 	uxtb.w	sl, sl
10001414:	0129      	lsls	r1, r5, #4
10001416:	b2bb      	uxth	r3, r7
10001418:	9104      	str	r1, [sp, #16]
1000141a:	ea4f 110a 	mov.w	r1, sl, lsl #4
1000141e:	e9cd 1b05 	strd	r1, fp, [sp, #20]
10001422:	4619      	mov	r1, r3
10001424:	fa1f f888 	uxth.w	r8, r8
10001428:	9207      	str	r2, [sp, #28]
1000142a:	f816 bf01 	ldrb.w	fp, [r6, #1]!
1000142e:	460a      	mov	r2, r1
10001430:	2707      	movs	r7, #7
10001432:	fa0f f988 	sxth.w	r9, r8
10001436:	9603      	str	r6, [sp, #12]
10001438:	e015      	b.n	10001466 <drawChar2+0x96>
1000143a:	b97b      	cbnz	r3, 1000145c <drawChar2+0x8c>
1000143c:	fb0e 0009 	mla	r0, lr, r9, r0
10001440:	f8d6 e028 	ldr.w	lr, [r6, #40]	@ 0x28
10001444:	ea4f 0c60 	mov.w	ip, r0, asr #1
10001448:	07c0      	lsls	r0, r0, #31
1000144a:	f81e 300c 	ldrb.w	r3, [lr, ip]
1000144e:	d533      	bpl.n	100014b8 <drawChar2+0xe8>
10001450:	8c30      	ldrh	r0, [r6, #32]
10001452:	4018      	ands	r0, r3
10001454:	9b05      	ldr	r3, [sp, #20]
10001456:	4318      	orrs	r0, r3
10001458:	f80e 000c 	strb.w	r0, [lr, ip]
1000145c:	3f01      	subs	r7, #1
1000145e:	3201      	adds	r2, #1
10001460:	1c7b      	adds	r3, r7, #1
10001462:	b292      	uxth	r2, r2
10001464:	d035      	beq.n	100014d2 <drawChar2+0x102>
10001466:	6c66      	ldr	r6, [r4, #68]	@ 0x44
10001468:	ea42 0008 	orr.w	r0, r2, r8
1000146c:	8873      	ldrh	r3, [r6, #2]
1000146e:	f8b6 e000 	ldrh.w	lr, [r6]
10001472:	4599      	cmp	r9, r3
10001474:	bfb4      	ite	lt
10001476:	2300      	movlt	r3, #0
10001478:	2301      	movge	r3, #1
1000147a:	fa4b fc07 	asr.w	ip, fp, r7
1000147e:	ea43 33d0 	orr.w	r3, r3, r0, lsr #15
10001482:	b210      	sxth	r0, r2
10001484:	4586      	cmp	lr, r0
10001486:	bfd8      	it	le
10001488:	f043 0301 	orrle.w	r3, r3, #1
1000148c:	f01c 0f01 	tst.w	ip, #1
10001490:	d1d3      	bne.n	1000143a <drawChar2+0x6a>
10001492:	2b00      	cmp	r3, #0
10001494:	d1e2      	bne.n	1000145c <drawChar2+0x8c>
10001496:	fb0e 0009 	mla	r0, lr, r9, r0
1000149a:	f8d6 e028 	ldr.w	lr, [r6, #40]	@ 0x28
1000149e:	ea4f 0c60 	mov.w	ip, r0, asr #1
100014a2:	07c0      	lsls	r0, r0, #31
100014a4:	f81e 300c 	ldrb.w	r3, [lr, ip]
100014a8:	d50d      	bpl.n	100014c6 <drawChar2+0xf6>
100014aa:	8c30      	ldrh	r0, [r6, #32]
100014ac:	4018      	ands	r0, r3
100014ae:	9b04      	ldr	r3, [sp, #16]
100014b0:	4318      	orrs	r0, r3
100014b2:	f80e 000c 	strb.w	r0, [lr, ip]
100014b6:	e7d1      	b.n	1000145c <drawChar2+0x8c>
100014b8:	8c70      	ldrh	r0, [r6, #34]	@ 0x22
100014ba:	4003      	ands	r3, r0
100014bc:	ea4a 0303 	orr.w	r3, sl, r3
100014c0:	f80e 300c 	strb.w	r3, [lr, ip]
100014c4:	e7ca      	b.n	1000145c <drawChar2+0x8c>
100014c6:	8c70      	ldrh	r0, [r6, #34]	@ 0x22
100014c8:	4003      	ands	r3, r0
100014ca:	432b      	orrs	r3, r5
100014cc:	f80e 300c 	strb.w	r3, [lr, ip]
100014d0:	e7c4      	b.n	1000145c <drawChar2+0x8c>
100014d2:	9b06      	ldr	r3, [sp, #24]
100014d4:	9e03      	ldr	r6, [sp, #12]
100014d6:	7c58      	ldrb	r0, [r3, #17]
100014d8:	9b07      	ldr	r3, [sp, #28]
100014da:	f108 0801 	add.w	r8, r8, #1
100014de:	199a      	adds	r2, r3, r6
100014e0:	4290      	cmp	r0, r2
100014e2:	fa1f f888 	uxth.w	r8, r8
100014e6:	dca0      	bgt.n	1000142a <drawChar2+0x5a>
100014e8:	b009      	add	sp, #36	@ 0x24
100014ea:	e8bd 8ff0 	ldmia.w	sp!, {r4, r5, r6, r7, r8, r9, sl, fp, pc}
100014ee:	bf00      	nop
100014f0:	20001264 	.word	0x20001264
100014f4:	10007b44 	.word	0x10007b44

100014f8 <drawChar>:
100014f8:	e92d 4ff0 	stmdb	sp!, {r4, r5, r6, r7, r8, r9, sl, fp, lr}
100014fc:	4c77      	ldr	r4, [pc, #476]	@ (100016dc <drawChar+0x1e4>)
100014fe:	2b02      	cmp	r3, #2
10001500:	f8d4 9000 	ldr.w	r9, [r4]
10001504:	4688      	mov	r8, r1
10001506:	f8d9 4044 	ldr.w	r4, [r9, #68]	@ 0x44
1000150a:	4616      	mov	r6, r2
1000150c:	6865      	ldr	r5, [r4, #4]
1000150e:	b087      	sub	sp, #28
10001510:	882f      	ldrh	r7, [r5, #0]
10001512:	f8b5 b002 	ldrh.w	fp, [r5, #2]
10001516:	d00a      	beq.n	1000152e <drawChar+0x36>
10001518:	4602      	mov	r2, r0
1000151a:	9301      	str	r3, [sp, #4]
1000151c:	4638      	mov	r0, r7
1000151e:	460b      	mov	r3, r1
10001520:	9600      	str	r6, [sp, #0]
10001522:	4659      	mov	r1, fp
10001524:	f7ff ff54 	bl	100013d0 <drawChar2>
10001528:	b007      	add	sp, #28
1000152a:	e8bd 8ff0 	ldmia.w	sp!, {r4, r5, r6, r7, r8, r9, sl, fp, pc}
1000152e:	8823      	ldrh	r3, [r4, #0]
10001530:	b23a      	sxth	r2, r7
10001532:	429a      	cmp	r2, r3
10001534:	4615      	mov	r5, r2
10001536:	daf7      	bge.n	10001528 <drawChar+0x30>
10001538:	8863      	ldrh	r3, [r4, #2]
1000153a:	fa0f f18b 	sxth.w	r1, fp
1000153e:	4299      	cmp	r1, r3
10001540:	daf2      	bge.n	10001528 <drawChar+0x30>
10001542:	f112 0f0b 	cmn.w	r2, #11
10001546:	dbef      	blt.n	10001528 <drawChar+0x30>
10001548:	f111 0f0f 	cmn.w	r1, #15
1000154c:	dbec      	blt.n	10001528 <drawChar+0x30>
1000154e:	f101 0c10 	add.w	ip, r1, #16
10001552:	4563      	cmp	r3, ip
10001554:	bfaf      	iteee	ge
10001556:	f04f 0a10 	movge.w	sl, #16
1000155a:	f103 3aff 	addlt.w	sl, r3, #4294967295	@ 0xffffffff
1000155e:	ebaa 0a0b 	sublt.w	sl, sl, fp
10001562:	fa1f fa8a 	uxthlt.w	sl, sl
10001566:	2a10      	cmp	r2, #16
10001568:	fa0f fa8a 	sxth.w	sl, sl
1000156c:	dc3b      	bgt.n	100015e6 <drawChar+0xee>
1000156e:	4551      	cmp	r1, sl
10001570:	dc39      	bgt.n	100015e6 <drawChar+0xee>
10001572:	e9cd 7b03 	strd	r7, fp, [sp, #12]
10001576:	f10a 0a01 	add.w	sl, sl, #1
1000157a:	460b      	mov	r3, r1
1000157c:	4693      	mov	fp, r2
1000157e:	e009      	b.n	10001594 <drawChar+0x9c>
10001580:	8c24      	ldrh	r4, [r4, #32]
10001582:	ea0e 0404 	and.w	r4, lr, r4
10001586:	f802 400c 	strb.w	r4, [r2, ip]
1000158a:	3301      	adds	r3, #1
1000158c:	4553      	cmp	r3, sl
1000158e:	d021      	beq.n	100015d4 <drawChar+0xdc>
10001590:	f8d9 4044 	ldr.w	r4, [r9, #68]	@ 0x44
10001594:	8827      	ldrh	r7, [r4, #0]
10001596:	f8b4 c002 	ldrh.w	ip, [r4, #2]
1000159a:	42af      	cmp	r7, r5
1000159c:	bf8c      	ite	hi
1000159e:	2200      	movhi	r2, #0
100015a0:	2201      	movls	r2, #1
100015a2:	459c      	cmp	ip, r3
100015a4:	bfd8      	it	le
100015a6:	f042 0201 	orrle.w	r2, r2, #1
100015aa:	2a00      	cmp	r2, #0
100015ac:	d1ed      	bne.n	1000158a <drawChar+0x92>
100015ae:	2b00      	cmp	r3, #0
100015b0:	dbeb      	blt.n	1000158a <drawChar+0x92>
100015b2:	fb03 5707 	mla	r7, r3, r7, r5
100015b6:	6aa2      	ldr	r2, [r4, #40]	@ 0x28
100015b8:	ea4f 0c67 	mov.w	ip, r7, asr #1
100015bc:	07ff      	lsls	r7, r7, #31
100015be:	f812 e00c 	ldrb.w	lr, [r2, ip]
100015c2:	d4dd      	bmi.n	10001580 <drawChar+0x88>
100015c4:	8c64      	ldrh	r4, [r4, #34]	@ 0x22
100015c6:	3301      	adds	r3, #1
100015c8:	ea0e 0e04 	and.w	lr, lr, r4
100015cc:	4553      	cmp	r3, sl
100015ce:	f802 e00c 	strb.w	lr, [r2, ip]
100015d2:	d1dd      	bne.n	10001590 <drawChar+0x98>
100015d4:	3501      	adds	r5, #1
100015d6:	2d11      	cmp	r5, #17
100015d8:	465a      	mov	r2, fp
100015da:	d002      	beq.n	100015e2 <drawChar+0xea>
100015dc:	f8d9 4044 	ldr.w	r4, [r9, #68]	@ 0x44
100015e0:	e7cb      	b.n	1000157a <drawChar+0x82>
100015e2:	e9dd 7b03 	ldrd	r7, fp, [sp, #12]
100015e6:	45b0      	cmp	r8, r6
100015e8:	eb00 0080 	add.w	r0, r0, r0, lsl #2
100015ec:	d049      	beq.n	10001682 <drawChar+0x18a>
100015ee:	4b3c      	ldr	r3, [pc, #240]	@ (100016e0 <drawChar+0x1e8>)
100015f0:	f10b 0910 	add.w	r9, fp, #16
100015f4:	eb00 0a03 	add.w	sl, r0, r3
100015f8:	f107 000a 	add.w	r0, r7, #10
100015fc:	b283      	uxth	r3, r0
100015fe:	9304      	str	r3, [sp, #16]
10001600:	4630      	mov	r0, r6
10001602:	4613      	mov	r3, r2
10001604:	4646      	mov	r6, r8
10001606:	4652      	mov	r2, sl
10001608:	46b8      	mov	r8, r7
1000160a:	46da      	mov	sl, fp
1000160c:	4607      	mov	r7, r0
1000160e:	469b      	mov	fp, r3
10001610:	fa1f f989 	uxth.w	r9, r9
10001614:	9105      	str	r1, [sp, #20]
10001616:	f812 5b01 	ldrb.w	r5, [r2], #1
1000161a:	f8cd 800c 	str.w	r8, [sp, #12]
1000161e:	4654      	mov	r4, sl
10001620:	4690      	mov	r8, r2
10001622:	2302      	movs	r3, #2
10001624:	07ea      	lsls	r2, r5, #31
10001626:	b221      	sxth	r1, r4
10001628:	f104 0402 	add.w	r4, r4, #2
1000162c:	bf4c      	ite	mi
1000162e:	9600      	strmi	r6, [sp, #0]
10001630:	9700      	strpl	r7, [sp, #0]
10001632:	4658      	mov	r0, fp
10001634:	461a      	mov	r2, r3
10001636:	b2a4      	uxth	r4, r4
10001638:	f7ff fe7a 	bl	10001330 <fillRect>
1000163c:	45a1      	cmp	r9, r4
1000163e:	ea4f 0555 	mov.w	r5, r5, lsr #1
10001642:	d1ee      	bne.n	10001622 <drawChar+0x12a>
10001644:	4642      	mov	r2, r8
10001646:	f8dd 800c 	ldr.w	r8, [sp, #12]
1000164a:	f108 0302 	add.w	r3, r8, #2
1000164e:	fa1f f883 	uxth.w	r8, r3
10001652:	9b04      	ldr	r3, [sp, #16]
10001654:	4598      	cmp	r8, r3
10001656:	d13e      	bne.n	100016d6 <drawChar+0x1de>
10001658:	463e      	mov	r6, r7
1000165a:	46d3      	mov	fp, sl
1000165c:	9905      	ldr	r1, [sp, #20]
1000165e:	fa0f f788 	sxth.w	r7, r8
10001662:	e001      	b.n	10001668 <drawChar+0x170>
10001664:	fa0f f18b 	sxth.w	r1, fp
10001668:	2302      	movs	r3, #2
1000166a:	f10b 0b02 	add.w	fp, fp, #2
1000166e:	4638      	mov	r0, r7
10001670:	461a      	mov	r2, r3
10001672:	9600      	str	r6, [sp, #0]
10001674:	fa1f fb8b 	uxth.w	fp, fp
10001678:	f7ff fe5a 	bl	10001330 <fillRect>
1000167c:	45d9      	cmp	r9, fp
1000167e:	d1f1      	bne.n	10001664 <drawChar+0x16c>
10001680:	e752      	b.n	10001528 <drawChar+0x30>
10001682:	4e17      	ldr	r6, [pc, #92]	@ (100016e0 <drawChar+0x1e8>)
10001684:	f107 0a0a 	add.w	sl, r7, #10
10001688:	4406      	add	r6, r0
1000168a:	fa1f fa8a 	uxth.w	sl, sl
1000168e:	f8cd a00c 	str.w	sl, [sp, #12]
10001692:	46b2      	mov	sl, r6
10001694:	4646      	mov	r6, r8
10001696:	4690      	mov	r8, r2
10001698:	f10b 0910 	add.w	r9, fp, #16
1000169c:	fa1f f989 	uxth.w	r9, r9
100016a0:	465c      	mov	r4, fp
100016a2:	f81a 5b01 	ldrb.w	r5, [sl], #1
100016a6:	07e9      	lsls	r1, r5, #31
100016a8:	d506      	bpl.n	100016b8 <drawChar+0x1c0>
100016aa:	2302      	movs	r3, #2
100016ac:	4640      	mov	r0, r8
100016ae:	461a      	mov	r2, r3
100016b0:	9600      	str	r6, [sp, #0]
100016b2:	b221      	sxth	r1, r4
100016b4:	f7ff fe3c 	bl	10001330 <fillRect>
100016b8:	3402      	adds	r4, #2
100016ba:	b2a4      	uxth	r4, r4
100016bc:	45a1      	cmp	r9, r4
100016be:	ea4f 0555 	mov.w	r5, r5, lsr #1
100016c2:	d1f0      	bne.n	100016a6 <drawChar+0x1ae>
100016c4:	9b03      	ldr	r3, [sp, #12]
100016c6:	3702      	adds	r7, #2
100016c8:	b2bf      	uxth	r7, r7
100016ca:	42bb      	cmp	r3, r7
100016cc:	f43f af2c 	beq.w	10001528 <drawChar+0x30>
100016d0:	fa0f f887 	sxth.w	r8, r7
100016d4:	e7e4      	b.n	100016a0 <drawChar+0x1a8>
100016d6:	fa0f fb88 	sxth.w	fp, r8
100016da:	e79c      	b.n	10001616 <drawChar+0x11e>
100016dc:	20001264 	.word	0x20001264
100016e0:	10006638 	.word	0x10006638

100016e4 <tft_write>:
100016e4:	4b1b      	ldr	r3, [pc, #108]	@ (10001754 <tft_write+0x70>)
100016e6:	280a      	cmp	r0, #10
100016e8:	681b      	ldr	r3, [r3, #0]
100016ea:	b510      	push	{r4, lr}
100016ec:	6c5c      	ldr	r4, [r3, #68]	@ 0x44
100016ee:	d00d      	beq.n	1000170c <tft_write+0x28>
100016f0:	280d      	cmp	r0, #13
100016f2:	d00a      	beq.n	1000170a <tft_write+0x26>
100016f4:	2809      	cmp	r0, #9
100016f6:	d111      	bne.n	1000171c <tft_write+0x38>
100016f8:	6862      	ldr	r2, [r4, #4]
100016fa:	f894 0024 	ldrb.w	r0, [r4, #36]	@ 0x24
100016fe:	8813      	ldrh	r3, [r2, #0]
10001700:	8821      	ldrh	r1, [r4, #0]
10001702:	4403      	add	r3, r0
10001704:	4299      	cmp	r1, r3
10001706:	dd00      	ble.n	1000170a <tft_write+0x26>
10001708:	8013      	strh	r3, [r2, #0]
1000170a:	bd10      	pop	{r4, pc}
1000170c:	2100      	movs	r1, #0
1000170e:	6863      	ldr	r3, [r4, #4]
10001710:	7c62      	ldrb	r2, [r4, #17]
10001712:	8858      	ldrh	r0, [r3, #2]
10001714:	8019      	strh	r1, [r3, #0]
10001716:	4402      	add	r2, r0
10001718:	805a      	strh	r2, [r3, #2]
1000171a:	bd10      	pop	{r4, pc}
1000171c:	7ca3      	ldrb	r3, [r4, #18]
1000171e:	7e62      	ldrb	r2, [r4, #25]
10001720:	7e21      	ldrb	r1, [r4, #24]
10001722:	f7ff fee9 	bl	100014f8 <drawChar>
10001726:	f64f 7cfa 	movw	ip, #65530	@ 0xfffa
1000172a:	6861      	ldr	r1, [r4, #4]
1000172c:	7ca2      	ldrb	r2, [r4, #18]
1000172e:	7c20      	ldrb	r0, [r4, #16]
10001730:	880b      	ldrh	r3, [r1, #0]
10001732:	fb00 3302 	mla	r3, r0, r2, r3
10001736:	8820      	ldrh	r0, [r4, #0]
10001738:	b29b      	uxth	r3, r3
1000173a:	fb12 020c 	smlabb	r2, r2, ip, r0
1000173e:	4293      	cmp	r3, r2
10001740:	800b      	strh	r3, [r1, #0]
10001742:	dde2      	ble.n	1000170a <tft_write+0x26>
10001744:	2200      	movs	r2, #0
10001746:	7c63      	ldrb	r3, [r4, #17]
10001748:	8848      	ldrh	r0, [r1, #2]
1000174a:	800a      	strh	r2, [r1, #0]
1000174c:	4403      	add	r3, r0
1000174e:	804b      	strh	r3, [r1, #2]
10001750:	bd10      	pop	{r4, pc}
10001752:	bf00      	nop
10001754:	20001264 	.word	0x20001264

10001758 <printString>:
10001758:	e92d 41f0 	stmdb	sp!, {r4, r5, r6, r7, r8, lr}
1000175c:	4605      	mov	r5, r0
1000175e:	7800      	ldrb	r0, [r0, #0]
10001760:	b310      	cbz	r0, 100017a8 <printString+0x50>
10001762:	4b1f      	ldr	r3, [pc, #124]	@ (100017e0 <printString+0x88>)
10001764:	f64f 78fa 	movw	r8, #65530	@ 0xfffa
10001768:	2700      	movs	r7, #0
1000176a:	681e      	ldr	r6, [r3, #0]
1000176c:	e00f      	b.n	1000178e <printString+0x36>
1000176e:	280d      	cmp	r0, #13
10001770:	d00a      	beq.n	10001788 <printString+0x30>
10001772:	2809      	cmp	r0, #9
10001774:	d11a      	bne.n	100017ac <printString+0x54>
10001776:	6862      	ldr	r2, [r4, #4]
10001778:	f894 0024 	ldrb.w	r0, [r4, #36]	@ 0x24
1000177c:	8813      	ldrh	r3, [r2, #0]
1000177e:	8821      	ldrh	r1, [r4, #0]
10001780:	4403      	add	r3, r0
10001782:	428b      	cmp	r3, r1
10001784:	da00      	bge.n	10001788 <printString+0x30>
10001786:	8013      	strh	r3, [r2, #0]
10001788:	f815 0f01 	ldrb.w	r0, [r5, #1]!
1000178c:	b160      	cbz	r0, 100017a8 <printString+0x50>
1000178e:	280a      	cmp	r0, #10
10001790:	6c74      	ldr	r4, [r6, #68]	@ 0x44
10001792:	d1ec      	bne.n	1000176e <printString+0x16>
10001794:	6863      	ldr	r3, [r4, #4]
10001796:	7c62      	ldrb	r2, [r4, #17]
10001798:	8859      	ldrh	r1, [r3, #2]
1000179a:	801f      	strh	r7, [r3, #0]
1000179c:	440a      	add	r2, r1
1000179e:	805a      	strh	r2, [r3, #2]
100017a0:	f815 0f01 	ldrb.w	r0, [r5, #1]!
100017a4:	2800      	cmp	r0, #0
100017a6:	d1f2      	bne.n	1000178e <printString+0x36>
100017a8:	e8bd 81f0 	ldmia.w	sp!, {r4, r5, r6, r7, r8, pc}
100017ac:	7ca3      	ldrb	r3, [r4, #18]
100017ae:	7e62      	ldrb	r2, [r4, #25]
100017b0:	7e21      	ldrb	r1, [r4, #24]
100017b2:	f7ff fea1 	bl	100014f8 <drawChar>
100017b6:	6861      	ldr	r1, [r4, #4]
100017b8:	7ca2      	ldrb	r2, [r4, #18]
100017ba:	7c20      	ldrb	r0, [r4, #16]
100017bc:	880b      	ldrh	r3, [r1, #0]
100017be:	fb00 3302 	mla	r3, r0, r2, r3
100017c2:	8820      	ldrh	r0, [r4, #0]
100017c4:	b29b      	uxth	r3, r3
100017c6:	fb12 0208 	smlabb	r2, r2, r8, r0
100017ca:	4293      	cmp	r3, r2
100017cc:	800b      	strh	r3, [r1, #0]
100017ce:	dddb      	ble.n	10001788 <printString+0x30>
100017d0:	2200      	movs	r2, #0
100017d2:	7c63      	ldrb	r3, [r4, #17]
100017d4:	800a      	strh	r2, [r1, #0]
100017d6:	884a      	ldrh	r2, [r1, #2]
100017d8:	4413      	add	r3, r2
100017da:	804b      	strh	r3, [r1, #2]
100017dc:	e7d4      	b.n	10001788 <printString+0x30>
100017de:	bf00      	nop
100017e0:	20001264 	.word	0x20001264

100017e4 <printString2>:
100017e4:	e92d 43f0 	stmdb	sp!, {r4, r5, r6, r7, r8, r9, lr}
100017e8:	4605      	mov	r5, r0
100017ea:	7800      	ldrb	r0, [r0, #0]
100017ec:	460f      	mov	r7, r1
100017ee:	b085      	sub	sp, #20
100017f0:	b320      	cbz	r0, 1000183c <printString2+0x58>
100017f2:	4b46      	ldr	r3, [pc, #280]	@ (1000190c <printString2+0x128>)
100017f4:	f64f 79fa 	movw	r9, #65530	@ 0xfffa
100017f8:	f04f 0800 	mov.w	r8, #0
100017fc:	681e      	ldr	r6, [r3, #0]
100017fe:	e00f      	b.n	10001820 <printString2+0x3c>
10001800:	280d      	cmp	r0, #13
10001802:	d00a      	beq.n	1000181a <printString2+0x36>
10001804:	2809      	cmp	r0, #9
10001806:	d14e      	bne.n	100018a6 <printString2+0xc2>
10001808:	6862      	ldr	r2, [r4, #4]
1000180a:	f894 0024 	ldrb.w	r0, [r4, #36]	@ 0x24
1000180e:	8813      	ldrh	r3, [r2, #0]
10001810:	8821      	ldrh	r1, [r4, #0]
10001812:	4403      	add	r3, r0
10001814:	428b      	cmp	r3, r1
10001816:	da00      	bge.n	1000181a <printString2+0x36>
10001818:	8013      	strh	r3, [r2, #0]
1000181a:	f815 0f01 	ldrb.w	r0, [r5, #1]!
1000181e:	b168      	cbz	r0, 1000183c <printString2+0x58>
10001820:	280a      	cmp	r0, #10
10001822:	6c74      	ldr	r4, [r6, #68]	@ 0x44
10001824:	d1ec      	bne.n	10001800 <printString2+0x1c>
10001826:	6863      	ldr	r3, [r4, #4]
10001828:	7c62      	ldrb	r2, [r4, #17]
1000182a:	8859      	ldrh	r1, [r3, #2]
1000182c:	f8a3 8000 	strh.w	r8, [r3]
10001830:	440a      	add	r2, r1
10001832:	805a      	strh	r2, [r3, #2]
10001834:	f815 0f01 	ldrb.w	r0, [r5, #1]!
10001838:	2800      	cmp	r0, #0
1000183a:	d1f1      	bne.n	10001820 <printString2+0x3c>
1000183c:	2400      	movs	r4, #0
1000183e:	463a      	mov	r2, r7
10001840:	4933      	ldr	r1, [pc, #204]	@ (10001910 <printString2+0x12c>)
10001842:	a801      	add	r0, sp, #4
10001844:	f003 fb34 	bl	10004eb0 <__wrap_sprintf>
10001848:	f89d 0004 	ldrb.w	r0, [sp, #4]
1000184c:	f88d 400c 	strb.w	r4, [sp, #12]
10001850:	b330      	cbz	r0, 100018a0 <printString2+0xbc>
10001852:	4b2e      	ldr	r3, [pc, #184]	@ (1000190c <printString2+0x128>)
10001854:	f64f 78fa 	movw	r8, #65530	@ 0xfffa
10001858:	4627      	mov	r7, r4
1000185a:	681e      	ldr	r6, [r3, #0]
1000185c:	e010      	b.n	10001880 <printString2+0x9c>
1000185e:	280d      	cmp	r0, #13
10001860:	d00a      	beq.n	10001878 <printString2+0x94>
10001862:	2809      	cmp	r0, #9
10001864:	d138      	bne.n	100018d8 <printString2+0xf4>
10001866:	686a      	ldr	r2, [r5, #4]
10001868:	f895 0024 	ldrb.w	r0, [r5, #36]	@ 0x24
1000186c:	8813      	ldrh	r3, [r2, #0]
1000186e:	8829      	ldrh	r1, [r5, #0]
10001870:	4403      	add	r3, r0
10001872:	428b      	cmp	r3, r1
10001874:	da00      	bge.n	10001878 <printString2+0x94>
10001876:	8013      	strh	r3, [r2, #0]
10001878:	eb0d 0304 	add.w	r3, sp, r4
1000187c:	7918      	ldrb	r0, [r3, #4]
1000187e:	b178      	cbz	r0, 100018a0 <printString2+0xbc>
10001880:	3401      	adds	r4, #1
10001882:	280a      	cmp	r0, #10
10001884:	6c75      	ldr	r5, [r6, #68]	@ 0x44
10001886:	b2e4      	uxtb	r4, r4
10001888:	d1e9      	bne.n	1000185e <printString2+0x7a>
1000188a:	686b      	ldr	r3, [r5, #4]
1000188c:	7c6a      	ldrb	r2, [r5, #17]
1000188e:	8859      	ldrh	r1, [r3, #2]
10001890:	801f      	strh	r7, [r3, #0]
10001892:	440a      	add	r2, r1
10001894:	805a      	strh	r2, [r3, #2]
10001896:	eb0d 0304 	add.w	r3, sp, r4
1000189a:	7918      	ldrb	r0, [r3, #4]
1000189c:	2800      	cmp	r0, #0
1000189e:	d1ef      	bne.n	10001880 <printString2+0x9c>
100018a0:	b005      	add	sp, #20
100018a2:	e8bd 83f0 	ldmia.w	sp!, {r4, r5, r6, r7, r8, r9, pc}
100018a6:	7ca3      	ldrb	r3, [r4, #18]
100018a8:	7e62      	ldrb	r2, [r4, #25]
100018aa:	7e21      	ldrb	r1, [r4, #24]
100018ac:	f7ff fe24 	bl	100014f8 <drawChar>
100018b0:	6861      	ldr	r1, [r4, #4]
100018b2:	7ca2      	ldrb	r2, [r4, #18]
100018b4:	7c20      	ldrb	r0, [r4, #16]
100018b6:	880b      	ldrh	r3, [r1, #0]
100018b8:	fb00 3302 	mla	r3, r0, r2, r3
100018bc:	8820      	ldrh	r0, [r4, #0]
100018be:	b29b      	uxth	r3, r3
100018c0:	fb12 0209 	smlabb	r2, r2, r9, r0
100018c4:	4293      	cmp	r3, r2
100018c6:	800b      	strh	r3, [r1, #0]
100018c8:	dda7      	ble.n	1000181a <printString2+0x36>
100018ca:	2200      	movs	r2, #0
100018cc:	7c63      	ldrb	r3, [r4, #17]
100018ce:	800a      	strh	r2, [r1, #0]
100018d0:	884a      	ldrh	r2, [r1, #2]
100018d2:	4413      	add	r3, r2
100018d4:	804b      	strh	r3, [r1, #2]
100018d6:	e7a0      	b.n	1000181a <printString2+0x36>
100018d8:	7cab      	ldrb	r3, [r5, #18]
100018da:	7e6a      	ldrb	r2, [r5, #25]
100018dc:	7e29      	ldrb	r1, [r5, #24]
100018de:	f7ff fe0b 	bl	100014f8 <drawChar>
100018e2:	6869      	ldr	r1, [r5, #4]
100018e4:	7caa      	ldrb	r2, [r5, #18]
100018e6:	7c28      	ldrb	r0, [r5, #16]
100018e8:	880b      	ldrh	r3, [r1, #0]
100018ea:	fb00 3302 	mla	r3, r0, r2, r3
100018ee:	8828      	ldrh	r0, [r5, #0]
100018f0:	b29b      	uxth	r3, r3
100018f2:	fb12 0208 	smlabb	r2, r2, r8, r0
100018f6:	4293      	cmp	r3, r2
100018f8:	800b      	strh	r3, [r1, #0]
100018fa:	ddbd      	ble.n	10001878 <printString2+0x94>
100018fc:	2200      	movs	r2, #0
100018fe:	7c6b      	ldrb	r3, [r5, #17]
10001900:	800a      	strh	r2, [r1, #0]
10001902:	884a      	ldrh	r2, [r1, #2]
10001904:	4413      	add	r3, r2
10001906:	804b      	strh	r3, [r1, #2]
10001908:	e7b6      	b.n	10001878 <printString2+0x94>
1000190a:	bf00      	nop
1000190c:	20001264 	.word	0x20001264
10001910:	10006334 	.word	0x10006334

10001914 <printString1>:
10001914:	e92d 47f0 	stmdb	sp!, {r4, r5, r6, r7, r8, r9, sl, lr}
10001918:	4605      	mov	r5, r0
1000191a:	7800      	ldrb	r0, [r0, #0]
1000191c:	460f      	mov	r7, r1
1000191e:	f8df 9134 	ldr.w	r9, [pc, #308]	@ 10001a54 <printString1+0x140>
10001922:	b084      	sub	sp, #16
10001924:	b320      	cbz	r0, 10001970 <printString1+0x5c>
10001926:	f64f 7afa 	movw	sl, #65530	@ 0xfffa
1000192a:	f04f 0800 	mov.w	r8, #0
1000192e:	f8d9 6000 	ldr.w	r6, [r9]
10001932:	e00f      	b.n	10001954 <printString1+0x40>
10001934:	280d      	cmp	r0, #13
10001936:	d00a      	beq.n	1000194e <printString1+0x3a>
10001938:	2809      	cmp	r0, #9
1000193a:	d155      	bne.n	100019e8 <printString1+0xd4>
1000193c:	6862      	ldr	r2, [r4, #4]
1000193e:	f894 0024 	ldrb.w	r0, [r4, #36]	@ 0x24
10001942:	8813      	ldrh	r3, [r2, #0]
10001944:	8821      	ldrh	r1, [r4, #0]
10001946:	4403      	add	r3, r0
10001948:	428b      	cmp	r3, r1
1000194a:	da00      	bge.n	1000194e <printString1+0x3a>
1000194c:	8013      	strh	r3, [r2, #0]
1000194e:	f815 0f01 	ldrb.w	r0, [r5, #1]!
10001952:	b168      	cbz	r0, 10001970 <printString1+0x5c>
10001954:	280a      	cmp	r0, #10
10001956:	6c74      	ldr	r4, [r6, #68]	@ 0x44
10001958:	d1ec      	bne.n	10001934 <printString1+0x20>
1000195a:	6863      	ldr	r3, [r4, #4]
1000195c:	7c62      	ldrb	r2, [r4, #17]
1000195e:	8859      	ldrh	r1, [r3, #2]
10001960:	f8a3 8000 	strh.w	r8, [r3]
10001964:	440a      	add	r2, r1
10001966:	805a      	strh	r2, [r3, #2]
10001968:	f815 0f01 	ldrb.w	r0, [r5, #1]!
1000196c:	2800      	cmp	r0, #0
1000196e:	d1f1      	bne.n	10001954 <printString1+0x40>
10001970:	2400      	movs	r4, #0
10001972:	463a      	mov	r2, r7
10001974:	4936      	ldr	r1, [pc, #216]	@ (10001a50 <printString1+0x13c>)
10001976:	a801      	add	r0, sp, #4
10001978:	f003 fa9a 	bl	10004eb0 <__wrap_sprintf>
1000197c:	f8d9 6000 	ldr.w	r6, [r9]
10001980:	f89d 0004 	ldrb.w	r0, [sp, #4]
10001984:	6c75      	ldr	r5, [r6, #68]	@ 0x44
10001986:	f88d 400c 	strb.w	r4, [sp, #12]
1000198a:	b318      	cbz	r0, 100019d4 <printString1+0xc0>
1000198c:	f64f 78fa 	movw	r8, #65530	@ 0xfffa
10001990:	4627      	mov	r7, r4
10001992:	e010      	b.n	100019b6 <printString1+0xa2>
10001994:	280d      	cmp	r0, #13
10001996:	d00a      	beq.n	100019ae <printString1+0x9a>
10001998:	2809      	cmp	r0, #9
1000199a:	d13e      	bne.n	10001a1a <printString1+0x106>
1000199c:	686a      	ldr	r2, [r5, #4]
1000199e:	f895 0024 	ldrb.w	r0, [r5, #36]	@ 0x24
100019a2:	8813      	ldrh	r3, [r2, #0]
100019a4:	8829      	ldrh	r1, [r5, #0]
100019a6:	4403      	add	r3, r0
100019a8:	428b      	cmp	r3, r1
100019aa:	da00      	bge.n	100019ae <printString1+0x9a>
100019ac:	8013      	strh	r3, [r2, #0]
100019ae:	eb0d 0304 	add.w	r3, sp, r4
100019b2:	7918      	ldrb	r0, [r3, #4]
100019b4:	b170      	cbz	r0, 100019d4 <printString1+0xc0>
100019b6:	3401      	adds	r4, #1
100019b8:	280a      	cmp	r0, #10
100019ba:	b2e4      	uxtb	r4, r4
100019bc:	d1ea      	bne.n	10001994 <printString1+0x80>
100019be:	686b      	ldr	r3, [r5, #4]
100019c0:	7c6a      	ldrb	r2, [r5, #17]
100019c2:	8859      	ldrh	r1, [r3, #2]
100019c4:	801f      	strh	r7, [r3, #0]
100019c6:	440a      	add	r2, r1
100019c8:	805a      	strh	r2, [r3, #2]
100019ca:	eb0d 0304 	add.w	r3, sp, r4
100019ce:	7918      	ldrb	r0, [r3, #4]
100019d0:	2800      	cmp	r0, #0
100019d2:	d1f0      	bne.n	100019b6 <printString1+0xa2>
100019d4:	2100      	movs	r1, #0
100019d6:	686b      	ldr	r3, [r5, #4]
100019d8:	7c6a      	ldrb	r2, [r5, #17]
100019da:	8858      	ldrh	r0, [r3, #2]
100019dc:	8019      	strh	r1, [r3, #0]
100019de:	4402      	add	r2, r0
100019e0:	805a      	strh	r2, [r3, #2]
100019e2:	b004      	add	sp, #16
100019e4:	e8bd 87f0 	ldmia.w	sp!, {r4, r5, r6, r7, r8, r9, sl, pc}
100019e8:	7ca3      	ldrb	r3, [r4, #18]
100019ea:	7e62      	ldrb	r2, [r4, #25]
100019ec:	7e21      	ldrb	r1, [r4, #24]
100019ee:	f7ff fd83 	bl	100014f8 <drawChar>
100019f2:	6861      	ldr	r1, [r4, #4]
100019f4:	7ca2      	ldrb	r2, [r4, #18]
100019f6:	7c20      	ldrb	r0, [r4, #16]
100019f8:	880b      	ldrh	r3, [r1, #0]
100019fa:	fb00 3302 	mla	r3, r0, r2, r3
100019fe:	8820      	ldrh	r0, [r4, #0]
10001a00:	b29b      	uxth	r3, r3
10001a02:	fb12 020a 	smlabb	r2, r2, sl, r0
10001a06:	4293      	cmp	r3, r2
10001a08:	800b      	strh	r3, [r1, #0]
10001a0a:	dda0      	ble.n	1000194e <printString1+0x3a>
10001a0c:	2200      	movs	r2, #0
10001a0e:	7c63      	ldrb	r3, [r4, #17]
10001a10:	800a      	strh	r2, [r1, #0]
10001a12:	884a      	ldrh	r2, [r1, #2]
10001a14:	4413      	add	r3, r2
10001a16:	804b      	strh	r3, [r1, #2]
10001a18:	e799      	b.n	1000194e <printString1+0x3a>
10001a1a:	7cab      	ldrb	r3, [r5, #18]
10001a1c:	7e6a      	ldrb	r2, [r5, #25]
10001a1e:	7e29      	ldrb	r1, [r5, #24]
10001a20:	f7ff fd6a 	bl	100014f8 <drawChar>
10001a24:	6869      	ldr	r1, [r5, #4]
10001a26:	7caa      	ldrb	r2, [r5, #18]
10001a28:	f895 c010 	ldrb.w	ip, [r5, #16]
10001a2c:	880b      	ldrh	r3, [r1, #0]
10001a2e:	8828      	ldrh	r0, [r5, #0]
10001a30:	fb0c 3302 	mla	r3, ip, r2, r3
10001a34:	fb12 0208 	smlabb	r2, r2, r8, r0
10001a38:	b29b      	uxth	r3, r3
10001a3a:	4293      	cmp	r3, r2
10001a3c:	800b      	strh	r3, [r1, #0]
10001a3e:	dd05      	ble.n	10001a4c <printString1+0x138>
10001a40:	2200      	movs	r2, #0
10001a42:	7c6b      	ldrb	r3, [r5, #17]
10001a44:	800a      	strh	r2, [r1, #0]
10001a46:	884a      	ldrh	r2, [r1, #2]
10001a48:	4413      	add	r3, r2
10001a4a:	804b      	strh	r3, [r1, #2]
10001a4c:	6c75      	ldr	r5, [r6, #68]	@ 0x44
10001a4e:	e7ae      	b.n	100019ae <printString1+0x9a>
10001a50:	10006334 	.word	0x10006334
10001a54:	20001264 	.word	0x20001264

10001a58 <put_cursor>:
10001a58:	4b11      	ldr	r3, [pc, #68]	@ (10001aa0 <put_cursor+0x48>)
10001a5a:	b570      	push	{r4, r5, r6, lr}
10001a5c:	681b      	ldr	r3, [r3, #0]
10001a5e:	b082      	sub	sp, #8
10001a60:	6c5c      	ldr	r4, [r3, #68]	@ 0x44
10001a62:	6862      	ldr	r2, [r4, #4]
10001a64:	7e23      	ldrb	r3, [r4, #24]
10001a66:	7915      	ldrb	r5, [r2, #4]
10001a68:	f8b2 c000 	ldrh.w	ip, [r2]
10001a6c:	8851      	ldrh	r1, [r2, #2]
10001a6e:	7e66      	ldrb	r6, [r4, #25]
10001a70:	b165      	cbz	r5, 10001a8c <put_cursor+0x34>
10001a72:	4604      	mov	r4, r0
10001a74:	7950      	ldrb	r0, [r2, #5]
10001a76:	b100      	cbz	r0, 10001a7a <put_cursor+0x22>
10001a78:	b144      	cbz	r4, 10001a8c <put_cursor+0x34>
10001a7a:	2401      	movs	r4, #1
10001a7c:	7a12      	ldrb	r2, [r2, #8]
10001a7e:	4660      	mov	r0, ip
10001a80:	9600      	str	r6, [sp, #0]
10001a82:	9401      	str	r4, [sp, #4]
10001a84:	f7ff fca4 	bl	100013d0 <drawChar2>
10001a88:	b002      	add	sp, #8
10001a8a:	bd70      	pop	{r4, r5, r6, pc}
10001a8c:	2401      	movs	r4, #1
10001a8e:	4660      	mov	r0, ip
10001a90:	2220      	movs	r2, #32
10001a92:	9600      	str	r6, [sp, #0]
10001a94:	9401      	str	r4, [sp, #4]
10001a96:	f7ff fc9b 	bl	100013d0 <drawChar2>
10001a9a:	b002      	add	sp, #8
10001a9c:	bd70      	pop	{r4, r5, r6, pc}
10001a9e:	bf00      	nop
10001aa0:	20001264 	.word	0x20001264

10001aa4 <create_screen>:
10001aa4:	e92d 4ff8 	stmdb	sp!, {r3, r4, r5, r6, r7, r8, r9, sl, fp, lr}
10001aa8:	4605      	mov	r5, r0
10001aaa:	2048      	movs	r0, #72	@ 0x48
10001aac:	f001 fe86 	bl	100037bc <__wrap_malloc>
10001ab0:	4606      	mov	r6, r0
10001ab2:	4f3f      	ldr	r7, [pc, #252]	@ (10001bb0 <create_screen+0x10c>)
10001ab4:	202c      	movs	r0, #44	@ 0x2c
10001ab6:	603e      	str	r6, [r7, #0]
10001ab8:	f001 fe80 	bl	100037bc <__wrap_malloc>
10001abc:	4604      	mov	r4, r0
10001abe:	2e00      	cmp	r6, #0
10001ac0:	d06d      	beq.n	10001b9e <create_screen+0xfa>
10001ac2:	2800      	cmp	r0, #0
10001ac4:	d06b      	beq.n	10001b9e <create_screen+0xfa>
10001ac6:	200c      	movs	r0, #12
10001ac8:	f000 f984 	bl	10001dd4 <set_font>
10001acc:	4603      	mov	r3, r0
10001ace:	4e39      	ldr	r6, [pc, #228]	@ (10001bb4 <create_screen+0x110>)
10001ad0:	f44f 3116 	mov.w	r1, #153600	@ 0x25800
10001ad4:	462a      	mov	r2, r5
10001ad6:	4838      	ldr	r0, [pc, #224]	@ (10001bb8 <create_screen+0x114>)
10001ad8:	6033      	str	r3, [r6, #0]
10001ada:	f7ff f841 	bl	10000b60 <initVGA>
10001ade:	2d01      	cmp	r5, #1
10001ae0:	d94b      	bls.n	10001b7a <create_screen+0xd6>
10001ae2:	2d04      	cmp	r5, #4
10001ae4:	d049      	beq.n	10001b7a <create_screen+0xd6>
10001ae6:	683b      	ldr	r3, [r7, #0]
10001ae8:	f8df 9104 	ldr.w	r9, [pc, #260]	@ 10001bf0 <create_screen+0x14c>
10001aec:	645c      	str	r4, [r3, #68]	@ 0x44
10001aee:	f000 f933 	bl	10001d58 <create_default_cursor>
10001af2:	2307      	movs	r3, #7
10001af4:	6060      	str	r0, [r4, #4]
10001af6:	f44f 3116 	mov.w	r1, #153600	@ 0x25800
10001afa:	4628      	mov	r0, r5
10001afc:	2504      	movs	r5, #4
10001afe:	8323      	strh	r3, [r4, #24]
10001b00:	6833      	ldr	r3, [r6, #0]
10001b02:	f8df 80f0 	ldr.w	r8, [pc, #240]	@ 10001bf4 <create_screen+0x150>
10001b06:	681a      	ldr	r2, [r3, #0]
10001b08:	f8df b0ec 	ldr.w	fp, [pc, #236]	@ 10001bf8 <create_screen+0x154>
10001b0c:	60e2      	str	r2, [r4, #12]
10001b0e:	889e      	ldrh	r6, [r3, #4]
10001b10:	f8df a0e8 	ldr.w	sl, [pc, #232]	@ 10001bfc <create_screen+0x158>
10001b14:	8226      	strh	r6, [r4, #16]
10001b16:	799b      	ldrb	r3, [r3, #6]
10001b18:	6162      	str	r2, [r4, #20]
10001b1a:	74a3      	strb	r3, [r4, #18]
10001b1c:	4b26      	ldr	r3, [pc, #152]	@ (10001bb8 <create_screen+0x114>)
10001b1e:	f884 5024 	strb.w	r5, [r4, #36]	@ 0x24
10001b22:	681b      	ldr	r3, [r3, #0]
10001b24:	4e25      	ldr	r6, [pc, #148]	@ (10001bbc <create_screen+0x118>)
10001b26:	62a3      	str	r3, [r4, #40]	@ 0x28
10001b28:	4b25      	ldr	r3, [pc, #148]	@ (10001bc0 <create_screen+0x11c>)
10001b2a:	4d26      	ldr	r5, [pc, #152]	@ (10001bc4 <create_screen+0x120>)
10001b2c:	e9c4 1307 	strd	r1, r3, [r4, #28]
10001b30:	f7ff fb04 	bl	1000113c <set_vga_mode>
10001b34:	6838      	ldr	r0, [r7, #0]
10001b36:	4b24      	ldr	r3, [pc, #144]	@ (10001bc8 <create_screen+0x124>)
10001b38:	4a24      	ldr	r2, [pc, #144]	@ (10001bcc <create_screen+0x128>)
10001b3a:	4c25      	ldr	r4, [pc, #148]	@ (10001bd0 <create_screen+0x12c>)
10001b3c:	60c3      	str	r3, [r0, #12]
10001b3e:	4b25      	ldr	r3, [pc, #148]	@ (10001bd4 <create_screen+0x130>)
10001b40:	4925      	ldr	r1, [pc, #148]	@ (10001bd8 <create_screen+0x134>)
10001b42:	e9c0 4200 	strd	r4, r2, [r0]
10001b46:	6383      	str	r3, [r0, #56]	@ 0x38
10001b48:	4a24      	ldr	r2, [pc, #144]	@ (10001bdc <create_screen+0x138>)
10001b4a:	4b25      	ldr	r3, [pc, #148]	@ (10001be0 <create_screen+0x13c>)
10001b4c:	f8df e0b0 	ldr.w	lr, [pc, #176]	@ 10001c00 <create_screen+0x15c>
10001b50:	f8df c0b0 	ldr.w	ip, [pc, #176]	@ 10001c04 <create_screen+0x160>
10001b54:	62c1      	str	r1, [r0, #44]	@ 0x2c
10001b56:	e9c0 9806 	strd	r9, r8, [r0, #24]
10001b5a:	4922      	ldr	r1, [pc, #136]	@ (10001be4 <create_screen+0x140>)
10001b5c:	e9c0 6509 	strd	r6, r5, [r0, #36]	@ 0x24
10001b60:	e9c0 230c 	strd	r2, r3, [r0, #48]	@ 0x30
10001b64:	f8c0 b010 	str.w	fp, [r0, #16]
10001b68:	f8c0 a03c 	str.w	sl, [r0, #60]	@ 0x3c
10001b6c:	f8c0 e008 	str.w	lr, [r0, #8]
10001b70:	f8c0 c014 	str.w	ip, [r0, #20]
10001b74:	6201      	str	r1, [r0, #32]
10001b76:	e8bd 8ff8 	ldmia.w	sp!, {r3, r4, r5, r6, r7, r8, r9, sl, fp, pc}
10001b7a:	f44f 7200 	mov.w	r2, #512	@ 0x200
10001b7e:	4b1a      	ldr	r3, [pc, #104]	@ (10001be8 <create_screen+0x144>)
10001b80:	200f      	movs	r0, #15
10001b82:	f8c3 2170 	str.w	r2, [r3, #368]	@ 0x170
10001b86:	4919      	ldr	r1, [pc, #100]	@ (10001bec <create_screen+0x148>)
10001b88:	f000 fbac 	bl	100022e4 <irq_set_exclusive_handler>
10001b8c:	2101      	movs	r1, #1
10001b8e:	200f      	movs	r0, #15
10001b90:	f000 fb92 	bl	100022b8 <irq_set_enabled>
10001b94:	2100      	movs	r1, #0
10001b96:	200f      	movs	r0, #15
10001b98:	f000 fbd4 	bl	10002344 <irq_set_priority>
10001b9c:	e7a3      	b.n	10001ae6 <create_screen+0x42>
10001b9e:	4630      	mov	r0, r6
10001ba0:	f001 fe28 	bl	100037f4 <__wrap_free>
10001ba4:	4620      	mov	r0, r4
10001ba6:	f001 fe25 	bl	100037f4 <__wrap_free>
10001baa:	2000      	movs	r0, #0
10001bac:	e7e3      	b.n	10001b76 <create_screen+0xd2>
10001bae:	bf00      	nop
10001bb0:	20001264 	.word	0x20001264
10001bb4:	20001090 	.word	0x20001090
10001bb8:	20000694 	.word	0x20000694
10001bbc:	1000112d 	.word	0x1000112d
10001bc0:	00f0000f 	.word	0x00f0000f
10001bc4:	1000113d 	.word	0x1000113d
10001bc8:	10001209 	.word	0x10001209
10001bcc:	100011b9 	.word	0x100011b9
10001bd0:	10001219 	.word	0x10001219
10001bd4:	100016e5 	.word	0x100016e5
10001bd8:	10001759 	.word	0x10001759
10001bdc:	10001915 	.word	0x10001915
10001be0:	100017e5 	.word	0x100017e5
10001be4:	1000111d 	.word	0x1000111d
10001be8:	50202000 	.word	0x50202000
10001bec:	20000111 	.word	0x20000111
10001bf0:	100011e9 	.word	0x100011e9
10001bf4:	100011f9 	.word	0x100011f9
10001bf8:	10001175 	.word	0x10001175
10001bfc:	10001229 	.word	0x10001229
10001c00:	100011d9 	.word	0x100011d9
10001c04:	100011c9 	.word	0x100011c9

10001c08 <change_mode>:
10001c08:	b570      	push	{r4, r5, r6, lr}
10001c0a:	4605      	mov	r5, r0
10001c0c:	4c16      	ldr	r4, [pc, #88]	@ (10001c68 <change_mode+0x60>)
10001c0e:	b090      	sub	sp, #64	@ 0x40
10001c10:	4620      	mov	r0, r4
10001c12:	4e16      	ldr	r6, [pc, #88]	@ (10001c6c <change_mode+0x64>)
10001c14:	f000 f962 	bl	10001edc <eeprom_load_config>
10001c18:	4915      	ldr	r1, [pc, #84]	@ (10001c70 <change_mode+0x68>)
10001c1a:	f994 2004 	ldrsb.w	r2, [r4, #4]
10001c1e:	4668      	mov	r0, sp
10001c20:	f003 f946 	bl	10004eb0 <__wrap_sprintf>
10001c24:	6833      	ldr	r3, [r6, #0]
10001c26:	4668      	mov	r0, sp
10001c28:	6adb      	ldr	r3, [r3, #44]	@ 0x2c
10001c2a:	4798      	blx	r3
10001c2c:	4620      	mov	r0, r4
10001c2e:	7125      	strb	r5, [r4, #4]
10001c30:	f000 f930 	bl	10001e94 <eeprom_save_config>
10001c34:	490f      	ldr	r1, [pc, #60]	@ (10001c74 <change_mode+0x6c>)
10001c36:	f994 2004 	ldrsb.w	r2, [r4, #4]
10001c3a:	4668      	mov	r0, sp
10001c3c:	f003 f938 	bl	10004eb0 <__wrap_sprintf>
10001c40:	6833      	ldr	r3, [r6, #0]
10001c42:	4668      	mov	r0, sp
10001c44:	6adb      	ldr	r3, [r3, #44]	@ 0x2c
10001c46:	4798      	blx	r3
10001c48:	f640 0204 	movw	r2, #2052	@ 0x804
10001c4c:	480a      	ldr	r0, [pc, #40]	@ (10001c78 <change_mode+0x70>)
10001c4e:	4b0b      	ldr	r3, [pc, #44]	@ (10001c7c <change_mode+0x74>)
10001c50:	490b      	ldr	r1, [pc, #44]	@ (10001c80 <change_mode+0x78>)
10001c52:	6002      	str	r2, [r0, #0]
10001c54:	601a      	str	r2, [r3, #0]
10001c56:	688b      	ldr	r3, [r1, #8]
10001c58:	ea32 0303 	bics.w	r3, r2, r3
10001c5c:	d1fb      	bne.n	10001c56 <change_mode+0x4e>
10001c5e:	f000 f913 	bl	10001e88 <reset>
10001c62:	b010      	add	sp, #64	@ 0x40
10001c64:	bd70      	pop	{r4, r5, r6, pc}
10001c66:	bf00      	nop
10001c68:	2000126c 	.word	0x2000126c
10001c6c:	20001264 	.word	0x20001264
10001c70:	10006338 	.word	0x10006338
10001c74:	10006358 	.word	0x10006358
10001c78:	40022000 	.word	0x40022000
10001c7c:	40023000 	.word	0x40023000
10001c80:	40020000 	.word	0x40020000

10001c84 <bus_try_get_event>:
10001c84:	f04f 0c01 	mov.w	ip, #1
10001c88:	b510      	push	{r4, lr}
10001c8a:	3308      	adds	r3, #8
10001c8c:	4686      	mov	lr, r0
10001c8e:	6850      	ldr	r0, [r2, #4]
10001c90:	fa0c f403 	lsl.w	r4, ip, r3
10001c94:	4204      	tst	r4, r0
10001c96:	d001      	beq.n	10001c9c <bus_try_get_event+0x18>
10001c98:	2000      	movs	r0, #0
10001c9a:	bd10      	pop	{r4, pc}
10001c9c:	f852 3023 	ldr.w	r3, [r2, r3, lsl #2]
10001ca0:	4660      	mov	r0, ip
10001ca2:	f3c3 2204 	ubfx	r2, r3, #8, #5
10001ca6:	700a      	strb	r2, [r1, #0]
10001ca8:	f88e 3000 	strb.w	r3, [lr]
10001cac:	bd10      	pop	{r4, pc}
10001cae:	bf00      	nop

10001cb0 <set_x>:
10001cb0:	f5b0 7f20 	cmp.w	r0, #640	@ 0x280
10001cb4:	d202      	bcs.n	10001cbc <set_x+0xc>
10001cb6:	4b02      	ldr	r3, [pc, #8]	@ (10001cc0 <set_x+0x10>)
10001cb8:	681b      	ldr	r3, [r3, #0]
10001cba:	8018      	strh	r0, [r3, #0]
10001cbc:	4770      	bx	lr
10001cbe:	bf00      	nop
10001cc0:	2000125c 	.word	0x2000125c

10001cc4 <set_y>:
10001cc4:	f5b0 7ff0 	cmp.w	r0, #480	@ 0x1e0
10001cc8:	d202      	bcs.n	10001cd0 <set_y+0xc>
10001cca:	4b02      	ldr	r3, [pc, #8]	@ (10001cd4 <set_y+0x10>)
10001ccc:	681b      	ldr	r3, [r3, #0]
10001cce:	8058      	strh	r0, [r3, #2]
10001cd0:	4770      	bx	lr
10001cd2:	bf00      	nop
10001cd4:	2000125c 	.word	0x2000125c

10001cd8 <set_position>:
10001cd8:	f5b0 7f20 	cmp.w	r0, #640	@ 0x280
10001cdc:	d202      	bcs.n	10001ce4 <set_position+0xc>
10001cde:	4b05      	ldr	r3, [pc, #20]	@ (10001cf4 <set_position+0x1c>)
10001ce0:	681b      	ldr	r3, [r3, #0]
10001ce2:	8018      	strh	r0, [r3, #0]
10001ce4:	f5b1 7ff0 	cmp.w	r1, #480	@ 0x1e0
10001ce8:	d202      	bcs.n	10001cf0 <set_position+0x18>
10001cea:	4b02      	ldr	r3, [pc, #8]	@ (10001cf4 <set_position+0x1c>)
10001cec:	681b      	ldr	r3, [r3, #0]
10001cee:	8059      	strh	r1, [r3, #2]
10001cf0:	4770      	bx	lr
10001cf2:	bf00      	nop
10001cf4:	2000125c 	.word	0x2000125c

10001cf8 <set_visible>:
10001cf8:	4b01      	ldr	r3, [pc, #4]	@ (10001d00 <set_visible+0x8>)
10001cfa:	681b      	ldr	r3, [r3, #0]
10001cfc:	7118      	strb	r0, [r3, #4]
10001cfe:	4770      	bx	lr
10001d00:	2000125c 	.word	0x2000125c

10001d04 <set_blink>:
10001d04:	4b01      	ldr	r3, [pc, #4]	@ (10001d0c <set_blink+0x8>)
10001d06:	681b      	ldr	r3, [r3, #0]
10001d08:	7158      	strb	r0, [r3, #5]
10001d0a:	4770      	bx	lr
10001d0c:	2000125c 	.word	0x2000125c

10001d10 <set_blink_interval>:
10001d10:	4b01      	ldr	r3, [pc, #4]	@ (10001d18 <set_blink_interval+0x8>)
10001d12:	681b      	ldr	r3, [r3, #0]
10001d14:	80d8      	strh	r0, [r3, #6]
10001d16:	4770      	bx	lr
10001d18:	2000125c 	.word	0x2000125c

10001d1c <get_blink_interval>:
10001d1c:	4b01      	ldr	r3, [pc, #4]	@ (10001d24 <get_blink_interval+0x8>)
10001d1e:	681b      	ldr	r3, [r3, #0]
10001d20:	88d8      	ldrh	r0, [r3, #6]
10001d22:	4770      	bx	lr
10001d24:	2000125c 	.word	0x2000125c

10001d28 <set_shape>:
10001d28:	4b01      	ldr	r3, [pc, #4]	@ (10001d30 <set_shape+0x8>)
10001d2a:	681b      	ldr	r3, [r3, #0]
10001d2c:	7218      	strb	r0, [r3, #8]
10001d2e:	4770      	bx	lr
10001d30:	2000125c 	.word	0x2000125c

10001d34 <get_x>:
10001d34:	4b01      	ldr	r3, [pc, #4]	@ (10001d3c <get_x+0x8>)
10001d36:	681b      	ldr	r3, [r3, #0]
10001d38:	8818      	ldrh	r0, [r3, #0]
10001d3a:	4770      	bx	lr
10001d3c:	2000125c 	.word	0x2000125c

10001d40 <get_y>:
10001d40:	4b01      	ldr	r3, [pc, #4]	@ (10001d48 <get_y+0x8>)
10001d42:	681b      	ldr	r3, [r3, #0]
10001d44:	8858      	ldrh	r0, [r3, #2]
10001d46:	4770      	bx	lr
10001d48:	2000125c 	.word	0x2000125c

10001d4c <is_visible>:
10001d4c:	4b01      	ldr	r3, [pc, #4]	@ (10001d54 <is_visible+0x8>)
10001d4e:	681b      	ldr	r3, [r3, #0]
10001d50:	7918      	ldrb	r0, [r3, #4]
10001d52:	4770      	bx	lr
10001d54:	2000125c 	.word	0x2000125c

10001d58 <create_default_cursor>:
10001d58:	b510      	push	{r4, lr}
10001d5a:	2038      	movs	r0, #56	@ 0x38
10001d5c:	f001 fd2e 	bl	100037bc <__wrap_malloc>
10001d60:	b1e8      	cbz	r0, 10001d9e <create_default_cursor+0x46>
10001d62:	2200      	movs	r2, #0
10001d64:	2380      	movs	r3, #128	@ 0x80
10001d66:	4c0e      	ldr	r4, [pc, #56]	@ (10001da0 <create_default_cursor+0x48>)
10001d68:	490e      	ldr	r1, [pc, #56]	@ (10001da4 <create_default_cursor+0x4c>)
10001d6a:	6020      	str	r0, [r4, #0]
10001d6c:	6041      	str	r1, [r0, #4]
10001d6e:	4c0e      	ldr	r4, [pc, #56]	@ (10001da8 <create_default_cursor+0x50>)
10001d70:	490e      	ldr	r1, [pc, #56]	@ (10001dac <create_default_cursor+0x54>)
10001d72:	6002      	str	r2, [r0, #0]
10001d74:	e9c0 4103 	strd	r4, r1, [r0, #12]
10001d78:	4c0d      	ldr	r4, [pc, #52]	@ (10001db0 <create_default_cursor+0x58>)
10001d7a:	490e      	ldr	r1, [pc, #56]	@ (10001db4 <create_default_cursor+0x5c>)
10001d7c:	7203      	strb	r3, [r0, #8]
10001d7e:	e9c0 4105 	strd	r4, r1, [r0, #20]
10001d82:	4c0d      	ldr	r4, [pc, #52]	@ (10001db8 <create_default_cursor+0x60>)
10001d84:	490d      	ldr	r1, [pc, #52]	@ (10001dbc <create_default_cursor+0x64>)
10001d86:	e9c0 4107 	strd	r4, r1, [r0, #28]
10001d8a:	4c0d      	ldr	r4, [pc, #52]	@ (10001dc0 <create_default_cursor+0x68>)
10001d8c:	490d      	ldr	r1, [pc, #52]	@ (10001dc4 <create_default_cursor+0x6c>)
10001d8e:	6344      	str	r4, [r0, #52]	@ 0x34
10001d90:	6241      	str	r1, [r0, #36]	@ 0x24
10001d92:	4c0d      	ldr	r4, [pc, #52]	@ (10001dc8 <create_default_cursor+0x70>)
10001d94:	490d      	ldr	r1, [pc, #52]	@ (10001dcc <create_default_cursor+0x74>)
10001d96:	e9c0 410a 	strd	r4, r1, [r0, #40]	@ 0x28
10001d9a:	490d      	ldr	r1, [pc, #52]	@ (10001dd0 <create_default_cursor+0x78>)
10001d9c:	6301      	str	r1, [r0, #48]	@ 0x30
10001d9e:	bd10      	pop	{r4, pc}
10001da0:	2000125c 	.word	0x2000125c
10001da4:	00fa0101 	.word	0x00fa0101
10001da8:	10001cb1 	.word	0x10001cb1
10001dac:	10001cc5 	.word	0x10001cc5
10001db0:	10001cd9 	.word	0x10001cd9
10001db4:	10001cf9 	.word	0x10001cf9
10001db8:	10001d05 	.word	0x10001d05
10001dbc:	10001d11 	.word	0x10001d11
10001dc0:	10001d1d 	.word	0x10001d1d
10001dc4:	10001d29 	.word	0x10001d29
10001dc8:	10001d35 	.word	0x10001d35
10001dcc:	10001d41 	.word	0x10001d41
10001dd0:	10001d4d 	.word	0x10001d4d

10001dd4 <set_font>:
10001dd4:	380a      	subs	r0, #10
10001dd6:	b2c0      	uxtb	r0, r0
10001dd8:	2803      	cmp	r0, #3
10001dda:	bf9a      	itte	ls
10001ddc:	4b02      	ldrls	r3, [pc, #8]	@ (10001de8 <set_font+0x14>)
10001dde:	f853 0020 	ldrls.w	r0, [r3, r0, lsl #2]
10001de2:	2000      	movhi	r0, #0
10001de4:	4770      	bx	lr
10001de6:	bf00      	nop
10001de8:	10006b34 	.word	0x10006b34

10001dec <pico_i2c_init>:
10001dec:	b508      	push	{r3, lr}
10001dee:	4907      	ldr	r1, [pc, #28]	@ (10001e0c <pico_i2c_init+0x20>)
10001df0:	4807      	ldr	r0, [pc, #28]	@ (10001e10 <pico_i2c_init+0x24>)
10001df2:	f003 fc27 	bl	10005644 <i2c_init>
10001df6:	2103      	movs	r1, #3
10001df8:	200e      	movs	r0, #14
10001dfa:	f000 f94b 	bl	10002094 <gpio_set_function>
10001dfe:	e8bd 4008 	ldmia.w	sp!, {r3, lr}
10001e02:	2103      	movs	r1, #3
10001e04:	200f      	movs	r0, #15
10001e06:	f000 b945 	b.w	10002094 <gpio_set_function>
10001e0a:	bf00      	nop
10001e0c:	00061a80 	.word	0x00061a80
10001e10:	200006e4 	.word	0x200006e4

10001e14 <eeprom_ping>:
10001e14:	b510      	push	{r4, lr}
10001e16:	2400      	movs	r4, #0
10001e18:	b084      	sub	sp, #16
10001e1a:	2301      	movs	r3, #1
10001e1c:	2150      	movs	r1, #80	@ 0x50
10001e1e:	f10d 020f 	add.w	r2, sp, #15
10001e22:	9400      	str	r4, [sp, #0]
10001e24:	4805      	ldr	r0, [pc, #20]	@ (10001e3c <eeprom_ping+0x28>)
10001e26:	f003 fc3b 	bl	100056a0 <i2c_read_blocking>
10001e2a:	42a0      	cmp	r0, r4
10001e2c:	bfb4      	ite	lt
10001e2e:	2000      	movlt	r0, #0
10001e30:	2001      	movge	r0, #1
10001e32:	4b03      	ldr	r3, [pc, #12]	@ (10001e40 <eeprom_ping+0x2c>)
10001e34:	7018      	strb	r0, [r3, #0]
10001e36:	b004      	add	sp, #16
10001e38:	bd10      	pop	{r4, pc}
10001e3a:	bf00      	nop
10001e3c:	200006e4 	.word	0x200006e4
10001e40:	20026ab7 	.word	0x20026ab7

10001e44 <print_mem_status>:
10001e44:	4b0c      	ldr	r3, [pc, #48]	@ (10001e78 <print_mem_status+0x34>)
10001e46:	b510      	push	{r4, lr}
10001e48:	781b      	ldrb	r3, [r3, #0]
10001e4a:	b13b      	cbz	r3, 10001e5c <print_mem_status+0x18>
10001e4c:	f7ff f9fc 	bl	10001248 <get_vga>
10001e50:	e8bd 4010 	ldmia.w	sp!, {r4, lr}
10001e54:	4603      	mov	r3, r0
10001e56:	4809      	ldr	r0, [pc, #36]	@ (10001e7c <print_mem_status+0x38>)
10001e58:	6adb      	ldr	r3, [r3, #44]	@ 0x2c
10001e5a:	4718      	bx	r3
10001e5c:	f7ff f9f4 	bl	10001248 <get_vga>
10001e60:	4603      	mov	r3, r0
10001e62:	4807      	ldr	r0, [pc, #28]	@ (10001e80 <print_mem_status+0x3c>)
10001e64:	6adb      	ldr	r3, [r3, #44]	@ 0x2c
10001e66:	4798      	blx	r3
10001e68:	f7ff f9ee 	bl	10001248 <get_vga>
10001e6c:	e8bd 4010 	ldmia.w	sp!, {r4, lr}
10001e70:	4603      	mov	r3, r0
10001e72:	4804      	ldr	r0, [pc, #16]	@ (10001e84 <print_mem_status+0x40>)
10001e74:	6adb      	ldr	r3, [r3, #44]	@ 0x2c
10001e76:	4718      	bx	r3
10001e78:	20026ab7 	.word	0x20026ab7
10001e7c:	100063a8 	.word	0x100063a8
10001e80:	100063cc 	.word	0x100063cc
10001e84:	100063ec 	.word	0x100063ec

10001e88 <reset>:
10001e88:	2200      	movs	r2, #0
10001e8a:	4611      	mov	r1, r2
10001e8c:	4610      	mov	r0, r2
10001e8e:	f001 b987 	b.w	100031a0 <watchdog_reboot>
10001e92:	bf00      	nop

10001e94 <eeprom_save_config>:
10001e94:	4b0f      	ldr	r3, [pc, #60]	@ (10001ed4 <eeprom_save_config+0x40>)
10001e96:	781b      	ldrb	r3, [r3, #0]
10001e98:	b1d3      	cbz	r3, 10001ed0 <eeprom_save_config+0x3c>
10001e9a:	b570      	push	{r4, r5, r6, lr}
10001e9c:	2400      	movs	r4, #0
10001e9e:	4626      	mov	r6, r4
10001ea0:	b084      	sub	sp, #16
10001ea2:	1e45      	subs	r5, r0, #1
10001ea4:	f815 cf01 	ldrb.w	ip, [r5, #1]!
10001ea8:	2302      	movs	r3, #2
10001eaa:	2150      	movs	r1, #80	@ 0x50
10001eac:	aa03      	add	r2, sp, #12
10001eae:	f88d 400c 	strb.w	r4, [sp, #12]
10001eb2:	4809      	ldr	r0, [pc, #36]	@ (10001ed8 <eeprom_save_config+0x44>)
10001eb4:	9600      	str	r6, [sp, #0]
10001eb6:	3401      	adds	r4, #1
10001eb8:	f88d c00d 	strb.w	ip, [sp, #13]
10001ebc:	b2a4      	uxth	r4, r4
10001ebe:	f003 fbe7 	bl	10005690 <i2c_write_blocking>
10001ec2:	200a      	movs	r0, #10
10001ec4:	f000 fd3c 	bl	10002940 <sleep_ms>
10001ec8:	2c44      	cmp	r4, #68	@ 0x44
10001eca:	d1eb      	bne.n	10001ea4 <eeprom_save_config+0x10>
10001ecc:	b004      	add	sp, #16
10001ece:	bd70      	pop	{r4, r5, r6, pc}
10001ed0:	4770      	bx	lr
10001ed2:	bf00      	nop
10001ed4:	20026ab7 	.word	0x20026ab7
10001ed8:	200006e4 	.word	0x200006e4

10001edc <eeprom_load_config>:
10001edc:	e92d 41f0 	stmdb	sp!, {r4, r5, r6, r7, r8, lr}
10001ee0:	4b37      	ldr	r3, [pc, #220]	@ (10001fc0 <eeprom_load_config+0xe4>)
10001ee2:	4680      	mov	r8, r0
10001ee4:	781b      	ldrb	r3, [r3, #0]
10001ee6:	b084      	sub	sp, #16
10001ee8:	2b00      	cmp	r3, #0
10001eea:	d062      	beq.n	10001fb2 <eeprom_load_config+0xd6>
10001eec:	2400      	movs	r4, #0
10001eee:	2701      	movs	r7, #1
10001ef0:	1e46      	subs	r6, r0, #1
10001ef2:	2500      	movs	r5, #0
10001ef4:	2301      	movs	r3, #1
10001ef6:	2150      	movs	r1, #80	@ 0x50
10001ef8:	f10d 020b 	add.w	r2, sp, #11
10001efc:	4831      	ldr	r0, [pc, #196]	@ (10001fc4 <eeprom_load_config+0xe8>)
10001efe:	9700      	str	r7, [sp, #0]
10001f00:	f88d 400b 	strb.w	r4, [sp, #11]
10001f04:	f003 fbc4 	bl	10005690 <i2c_write_blocking>
10001f08:	2301      	movs	r3, #1
10001f0a:	2150      	movs	r1, #80	@ 0x50
10001f0c:	482d      	ldr	r0, [pc, #180]	@ (10001fc4 <eeprom_load_config+0xe8>)
10001f0e:	aa03      	add	r2, sp, #12
10001f10:	9500      	str	r5, [sp, #0]
10001f12:	f003 fbc5 	bl	100056a0 <i2c_read_blocking>
10001f16:	3401      	adds	r4, #1
10001f18:	f89d 300c 	ldrb.w	r3, [sp, #12]
10001f1c:	2c44      	cmp	r4, #68	@ 0x44
10001f1e:	f806 3f01 	strb.w	r3, [r6, #1]!
10001f22:	d1e6      	bne.n	10001ef2 <eeprom_load_config+0x16>
10001f24:	4c28      	ldr	r4, [pc, #160]	@ (10001fc8 <eeprom_load_config+0xec>)
10001f26:	f8d8 3000 	ldr.w	r3, [r8]
10001f2a:	42a3      	cmp	r3, r4
10001f2c:	d102      	bne.n	10001f34 <eeprom_load_config+0x58>
10001f2e:	b004      	add	sp, #16
10001f30:	e8bd 81f0 	ldmia.w	sp!, {r4, r5, r6, r7, r8, pc}
10001f34:	2668      	movs	r6, #104	@ 0x68
10001f36:	aa03      	add	r2, sp, #12
10001f38:	2302      	movs	r3, #2
10001f3a:	2150      	movs	r1, #80	@ 0x50
10001f3c:	9500      	str	r5, [sp, #0]
10001f3e:	4821      	ldr	r0, [pc, #132]	@ (10001fc4 <eeprom_load_config+0xe8>)
10001f40:	f8ad 600c 	strh.w	r6, [sp, #12]
10001f44:	f003 fba4 	bl	10005690 <i2c_write_blocking>
10001f48:	200a      	movs	r0, #10
10001f4a:	f000 fcf9 	bl	10002940 <sleep_ms>
10001f4e:	f44f 7280 	mov.w	r2, #256	@ 0x100
10001f52:	2302      	movs	r3, #2
10001f54:	2150      	movs	r1, #80	@ 0x50
10001f56:	f8ad 200c 	strh.w	r2, [sp, #12]
10001f5a:	9500      	str	r5, [sp, #0]
10001f5c:	aa03      	add	r2, sp, #12
10001f5e:	4819      	ldr	r0, [pc, #100]	@ (10001fc4 <eeprom_load_config+0xe8>)
10001f60:	f003 fb96 	bl	10005690 <i2c_write_blocking>
10001f64:	200a      	movs	r0, #10
10001f66:	f000 fceb 	bl	10002940 <sleep_ms>
10001f6a:	f44f 7200 	mov.w	r2, #512	@ 0x200
10001f6e:	f44f 7640 	mov.w	r6, #768	@ 0x300
10001f72:	2302      	movs	r3, #2
10001f74:	2150      	movs	r1, #80	@ 0x50
10001f76:	f8ad 200c 	strh.w	r2, [sp, #12]
10001f7a:	9500      	str	r5, [sp, #0]
10001f7c:	aa03      	add	r2, sp, #12
10001f7e:	4811      	ldr	r0, [pc, #68]	@ (10001fc4 <eeprom_load_config+0xe8>)
10001f80:	f003 fb86 	bl	10005690 <i2c_write_blocking>
10001f84:	200a      	movs	r0, #10
10001f86:	f000 fcdb 	bl	10002940 <sleep_ms>
10001f8a:	2302      	movs	r3, #2
10001f8c:	2150      	movs	r1, #80	@ 0x50
10001f8e:	aa03      	add	r2, sp, #12
10001f90:	9500      	str	r5, [sp, #0]
10001f92:	480c      	ldr	r0, [pc, #48]	@ (10001fc4 <eeprom_load_config+0xe8>)
10001f94:	f8ad 600c 	strh.w	r6, [sp, #12]
10001f98:	f003 fb7a 	bl	10005690 <i2c_write_blocking>
10001f9c:	200a      	movs	r0, #10
10001f9e:	f000 fccf 	bl	10002940 <sleep_ms>
10001fa2:	2302      	movs	r3, #2
10001fa4:	f8c8 4000 	str.w	r4, [r8]
10001fa8:	f888 3004 	strb.w	r3, [r8, #4]
10001fac:	b004      	add	sp, #16
10001fae:	e8bd 81f0 	ldmia.w	sp!, {r4, r5, r6, r7, r8, pc}
10001fb2:	2202      	movs	r2, #2
10001fb4:	6003      	str	r3, [r0, #0]
10001fb6:	7102      	strb	r2, [r0, #4]
10001fb8:	b004      	add	sp, #16
10001fba:	e8bd 81f0 	ldmia.w	sp!, {r4, r5, r6, r7, r8, pc}
10001fbe:	bf00      	nop
10001fc0:	20026ab7 	.word	0x20026ab7
10001fc4:	200006e4 	.word	0x200006e4
10001fc8:	68000ace 	.word	0x68000ace

10001fcc <dump>:
10001fcc:	b5f0      	push	{r4, r5, r6, r7, lr}
10001fce:	b085      	sub	sp, #20
10001fd0:	460f      	mov	r7, r1
10001fd2:	f7ff f939 	bl	10001248 <get_vga>
10001fd6:	4603      	mov	r3, r0
10001fd8:	4639      	mov	r1, r7
10001fda:	6b5b      	ldr	r3, [r3, #52]	@ 0x34
10001fdc:	4826      	ldr	r0, [pc, #152]	@ (10002078 <dump+0xac>)
10001fde:	4798      	blx	r3
10001fe0:	f7ff f932 	bl	10001248 <get_vga>
10001fe4:	4603      	mov	r3, r0
10001fe6:	4825      	ldr	r0, [pc, #148]	@ (1000207c <dump+0xb0>)
10001fe8:	6adb      	ldr	r3, [r3, #44]	@ 0x2c
10001fea:	4798      	blx	r3
10001fec:	b37f      	cbz	r7, 1000204e <dump+0x82>
10001fee:	2600      	movs	r6, #0
10001ff0:	4634      	mov	r4, r6
10001ff2:	2501      	movs	r5, #1
10001ff4:	2150      	movs	r1, #80	@ 0x50
10001ff6:	462b      	mov	r3, r5
10001ff8:	f10d 020e 	add.w	r2, sp, #14
10001ffc:	9500      	str	r5, [sp, #0]
10001ffe:	4820      	ldr	r0, [pc, #128]	@ (10002080 <dump+0xb4>)
10002000:	f88d 600e 	strb.w	r6, [sp, #14]
10002004:	f003 fb44 	bl	10005690 <i2c_write_blocking>
10002008:	f04f 0c00 	mov.w	ip, #0
1000200c:	462b      	mov	r3, r5
1000200e:	2150      	movs	r1, #80	@ 0x50
10002010:	481b      	ldr	r0, [pc, #108]	@ (10002080 <dump+0xb4>)
10002012:	f10d 020f 	add.w	r2, sp, #15
10002016:	f8cd c000 	str.w	ip, [sp]
1000201a:	f003 fb41 	bl	100056a0 <i2c_read_blocking>
1000201e:	f89d 500f 	ldrb.w	r5, [sp, #15]
10002022:	2d0f      	cmp	r5, #15
10002024:	d915      	bls.n	10002052 <dump+0x86>
10002026:	f7ff f90f 	bl	10001248 <get_vga>
1000202a:	4603      	mov	r3, r0
1000202c:	4629      	mov	r1, r5
1000202e:	6b5b      	ldr	r3, [r3, #52]	@ 0x34
10002030:	4814      	ldr	r0, [pc, #80]	@ (10002084 <dump+0xb8>)
10002032:	4798      	blx	r3
10002034:	f7ff f908 	bl	10001248 <get_vga>
10002038:	4603      	mov	r3, r0
1000203a:	3401      	adds	r4, #1
1000203c:	4812      	ldr	r0, [pc, #72]	@ (10002088 <dump+0xbc>)
1000203e:	6adb      	ldr	r3, [r3, #44]	@ 0x2c
10002040:	b2e4      	uxtb	r4, r4
10002042:	4798      	blx	r3
10002044:	2c08      	cmp	r4, #8
10002046:	d00b      	beq.n	10002060 <dump+0x94>
10002048:	3601      	adds	r6, #1
1000204a:	42be      	cmp	r6, r7
1000204c:	d1d1      	bne.n	10001ff2 <dump+0x26>
1000204e:	b005      	add	sp, #20
10002050:	bdf0      	pop	{r4, r5, r6, r7, pc}
10002052:	f7ff f8f9 	bl	10001248 <get_vga>
10002056:	4603      	mov	r3, r0
10002058:	480c      	ldr	r0, [pc, #48]	@ (1000208c <dump+0xc0>)
1000205a:	6adb      	ldr	r3, [r3, #44]	@ 0x2c
1000205c:	4798      	blx	r3
1000205e:	e7e2      	b.n	10002026 <dump+0x5a>
10002060:	f7ff f8f2 	bl	10001248 <get_vga>
10002064:	4603      	mov	r3, r0
10002066:	3601      	adds	r6, #1
10002068:	4809      	ldr	r0, [pc, #36]	@ (10002090 <dump+0xc4>)
1000206a:	6adb      	ldr	r3, [r3, #44]	@ 0x2c
1000206c:	4798      	blx	r3
1000206e:	42be      	cmp	r6, r7
10002070:	d0ed      	beq.n	1000204e <dump+0x82>
10002072:	2400      	movs	r4, #0
10002074:	e7bd      	b.n	10001ff2 <dump+0x26>
10002076:	bf00      	nop
10002078:	10006410 	.word	0x10006410
1000207c:	1000641c 	.word	0x1000641c
10002080:	200006e4 	.word	0x200006e4
10002084:	100063c8 	.word	0x100063c8
10002088:	1000643c 	.word	0x1000643c
1000208c:	100064b0 	.word	0x100064b0
10002090:	10006278 	.word	0x10006278

10002094 <gpio_set_function>:
10002094:	b410      	push	{r4}
10002096:	f44f 7480 	mov.w	r4, #256	@ 0x100
1000209a:	4b0c      	ldr	r3, [pc, #48]	@ (100020cc <gpio_set_function+0x38>)
1000209c:	f853 2020 	ldr.w	r2, [r3, r0, lsl #2]
100020a0:	eb03 0380 	add.w	r3, r3, r0, lsl #2
100020a4:	00c0      	lsls	r0, r0, #3
100020a6:	f082 0240 	eor.w	r2, r2, #64	@ 0x40
100020aa:	f100 4080 	add.w	r0, r0, #1073741824	@ 0x40000000
100020ae:	f503 5c80 	add.w	ip, r3, #4096	@ 0x1000
100020b2:	f002 02c0 	and.w	r2, r2, #192	@ 0xc0
100020b6:	f500 3020 	add.w	r0, r0, #163840	@ 0x28000
100020ba:	f503 5340 	add.w	r3, r3, #12288	@ 0x3000
100020be:	f8cc 2000 	str.w	r2, [ip]
100020c2:	6041      	str	r1, [r0, #4]
100020c4:	601c      	str	r4, [r3, #0]
100020c6:	f85d 4b04 	ldr.w	r4, [sp], #4
100020ca:	4770      	bx	lr
100020cc:	40038004 	.word	0x40038004

100020d0 <gpio_set_pulls>:
100020d0:	b410      	push	{r4}
100020d2:	4c08      	ldr	r4, [pc, #32]	@ (100020f4 <gpio_set_pulls+0x24>)
100020d4:	00c9      	lsls	r1, r1, #3
100020d6:	ea41 0182 	orr.w	r1, r1, r2, lsl #2
100020da:	f854 2020 	ldr.w	r2, [r4, r0, lsl #2]
100020de:	eb04 0380 	add.w	r3, r4, r0, lsl #2
100020e2:	4051      	eors	r1, r2
100020e4:	f503 5380 	add.w	r3, r3, #4096	@ 0x1000
100020e8:	f001 010c 	and.w	r1, r1, #12
100020ec:	f85d 4b04 	ldr.w	r4, [sp], #4
100020f0:	6019      	str	r1, [r3, #0]
100020f2:	4770      	bx	lr
100020f4:	40038004 	.word	0x40038004

100020f8 <panic>:
100020f8:	b40f      	push	{r0, r1, r2, r3}
100020fa:	b500      	push	{lr}
100020fc:	b083      	sub	sp, #12
100020fe:	9c04      	ldr	r4, [sp, #16]
10002100:	4807      	ldr	r0, [pc, #28]	@ (10002120 <panic+0x28>)
10002102:	f003 f847 	bl	10005194 <__wrap_puts>
10002106:	b13c      	cbz	r4, 10002118 <panic+0x20>
10002108:	a905      	add	r1, sp, #20
1000210a:	4620      	mov	r0, r4
1000210c:	9101      	str	r1, [sp, #4]
1000210e:	f002 fee5 	bl	10004edc <weak_raw_vprintf>
10002112:	4804      	ldr	r0, [pc, #16]	@ (10002124 <panic+0x2c>)
10002114:	f003 f83e 	bl	10005194 <__wrap_puts>
10002118:	2001      	movs	r0, #1
1000211a:	f002 fef7 	bl	10004f0c <_exit>
1000211e:	bf00      	nop
10002120:	10006440 	.word	0x10006440
10002124:	10006278 	.word	0x10006278

10002128 <hw_claim_lock>:
10002128:	f3ef 8010 	mrs	r0, PRIMASK
1000212c:	b672      	cpsid	i
1000212e:	4b06      	ldr	r3, [pc, #24]	@ (10002148 <hw_claim_lock+0x20>)
10002130:	e8d3 1fcf 	ldaexb	r1, [r3]
10002134:	2201      	movs	r2, #1
10002136:	2900      	cmp	r1, #0
10002138:	d1fa      	bne.n	10002130 <hw_claim_lock+0x8>
1000213a:	e8c3 2f41 	strexb	r1, r2, [r3]
1000213e:	2900      	cmp	r1, #0
10002140:	d1f6      	bne.n	10002130 <hw_claim_lock+0x8>
10002142:	f3bf 8f5f 	dmb	sy
10002146:	4770      	bx	lr
10002148:	2000102b 	.word	0x2000102b

1000214c <hw_claim_unlock>:
1000214c:	2300      	movs	r3, #0
1000214e:	4a03      	ldr	r2, [pc, #12]	@ (1000215c <hw_claim_unlock+0x10>)
10002150:	e8c2 3f8f 	stlb	r3, [r2]
10002154:	f380 8810 	msr	PRIMASK, r0
10002158:	4770      	bx	lr
1000215a:	bf00      	nop
1000215c:	2000102b 	.word	0x2000102b

10002160 <hw_claim_or_assert>:
10002160:	b570      	push	{r4, r5, r6, lr}
10002162:	4686      	mov	lr, r0
10002164:	f3ef 8510 	mrs	r5, PRIMASK
10002168:	b672      	cpsid	i
1000216a:	4c12      	ldr	r4, [pc, #72]	@ (100021b4 <hw_claim_or_assert+0x54>)
1000216c:	e8d4 6fcf 	ldaexb	r6, [r4]
10002170:	2001      	movs	r0, #1
10002172:	2e00      	cmp	r6, #0
10002174:	d1fa      	bne.n	1000216c <hw_claim_or_assert+0xc>
10002176:	e8c4 0f46 	strexb	r6, r0, [r4]
1000217a:	2e00      	cmp	r6, #0
1000217c:	d1f6      	bne.n	1000216c <hw_claim_or_assert+0xc>
1000217e:	f3bf 8f5f 	dmb	sy
10002182:	f04f 0c01 	mov.w	ip, #1
10002186:	08c8      	lsrs	r0, r1, #3
10002188:	f001 0307 	and.w	r3, r1, #7
1000218c:	fa0c f303 	lsl.w	r3, ip, r3
10002190:	f81e c000 	ldrb.w	ip, [lr, r0]
10002194:	ea1c 0603 	ands.w	r6, ip, r3
10002198:	d108      	bne.n	100021ac <hw_claim_or_assert+0x4c>
1000219a:	ea4c 0c03 	orr.w	ip, ip, r3
1000219e:	f80e c000 	strb.w	ip, [lr, r0]
100021a2:	e8c4 6f8f 	stlb	r6, [r4]
100021a6:	f385 8810 	msr	PRIMASK, r5
100021aa:	bd70      	pop	{r4, r5, r6, pc}
100021ac:	4610      	mov	r0, r2
100021ae:	f7ff ffa3 	bl	100020f8 <panic>
100021b2:	bf00      	nop
100021b4:	2000102b 	.word	0x2000102b

100021b8 <hw_claim_unused_from_range>:
100021b8:	b5f8      	push	{r3, r4, r5, r6, r7, lr}
100021ba:	f3ef 8710 	mrs	r7, PRIMASK
100021be:	b672      	cpsid	i
100021c0:	4e1c      	ldr	r6, [pc, #112]	@ (10002234 <hw_claim_unused_from_range+0x7c>)
100021c2:	e8d6 5fcf 	ldaexb	r5, [r6]
100021c6:	2401      	movs	r4, #1
100021c8:	2d00      	cmp	r5, #0
100021ca:	d1fa      	bne.n	100021c2 <hw_claim_unused_from_range+0xa>
100021cc:	e8c6 4f45 	strexb	r5, r4, [r6]
100021d0:	2d00      	cmp	r5, #0
100021d2:	d1f6      	bne.n	100021c2 <hw_claim_unused_from_range+0xa>
100021d4:	f3bf 8f5f 	dmb	sy
100021d8:	429a      	cmp	r2, r3
100021da:	d81b      	bhi.n	10002214 <hw_claim_unused_from_range+0x5c>
100021dc:	2501      	movs	r5, #1
100021de:	e002      	b.n	100021e6 <hw_claim_unused_from_range+0x2e>
100021e0:	3201      	adds	r2, #1
100021e2:	4293      	cmp	r3, r2
100021e4:	d322      	bcc.n	1000222c <hw_claim_unused_from_range+0x74>
100021e6:	08d4      	lsrs	r4, r2, #3
100021e8:	f810 e004 	ldrb.w	lr, [r0, r4]
100021ec:	f002 0c07 	and.w	ip, r2, #7
100021f0:	fa05 fc0c 	lsl.w	ip, r5, ip
100021f4:	ea1e 0f0c 	tst.w	lr, ip
100021f8:	d1f2      	bne.n	100021e0 <hw_claim_unused_from_range+0x28>
100021fa:	ea4e 0e0c 	orr.w	lr, lr, ip
100021fe:	f800 e004 	strb.w	lr, [r0, r4]
10002202:	4610      	mov	r0, r2
10002204:	2300      	movs	r3, #0
10002206:	e8c6 3f8f 	stlb	r3, [r6]
1000220a:	f387 8810 	msr	PRIMASK, r7
1000220e:	4298      	cmp	r0, r3
10002210:	db07      	blt.n	10002222 <hw_claim_unused_from_range+0x6a>
10002212:	bdf8      	pop	{r3, r4, r5, r6, r7, pc}
10002214:	2300      	movs	r3, #0
10002216:	e8c6 3f8f 	stlb	r3, [r6]
1000221a:	f387 8810 	msr	PRIMASK, r7
1000221e:	f04f 30ff 	mov.w	r0, #4294967295	@ 0xffffffff
10002222:	2900      	cmp	r1, #0
10002224:	d0f5      	beq.n	10002212 <hw_claim_unused_from_range+0x5a>
10002226:	9806      	ldr	r0, [sp, #24]
10002228:	f7ff ff66 	bl	100020f8 <panic>
1000222c:	f04f 30ff 	mov.w	r0, #4294967295	@ 0xffffffff
10002230:	e7e8      	b.n	10002204 <hw_claim_unused_from_range+0x4c>
10002232:	bf00      	nop
10002234:	2000102b 	.word	0x2000102b

10002238 <next_striped_spin_lock_num>:
10002238:	4a04      	ldr	r2, [pc, #16]	@ (1000224c <next_striped_spin_lock_num+0x14>)
1000223a:	7810      	ldrb	r0, [r2, #0]
1000223c:	1c43      	adds	r3, r0, #1
1000223e:	b2db      	uxtb	r3, r3
10002240:	2b18      	cmp	r3, #24
10002242:	bf28      	it	cs
10002244:	2310      	movcs	r3, #16
10002246:	7013      	strb	r3, [r2, #0]
10002248:	4770      	bx	lr
1000224a:	bf00      	nop
1000224c:	200006c8 	.word	0x200006c8

10002250 <spinlock_set_extexclall>:
10002250:	f04f 22e0 	mov.w	r2, #3758153728	@ 0xe000e000
10002254:	6893      	ldr	r3, [r2, #8]
10002256:	f043 5300 	orr.w	r3, r3, #536870912	@ 0x20000000
1000225a:	6093      	str	r3, [r2, #8]
1000225c:	4770      	bx	lr
1000225e:	bf00      	nop

10002260 <spin_locks_reset>:
10002260:	2100      	movs	r1, #0
10002262:	4b04      	ldr	r3, [pc, #16]	@ (10002274 <spin_locks_reset+0x14>)
10002264:	f103 0220 	add.w	r2, r3, #32
10002268:	e8c3 1f8f 	stlb	r1, [r3]
1000226c:	3301      	adds	r3, #1
1000226e:	4293      	cmp	r3, r2
10002270:	d1fa      	bne.n	10002268 <spin_locks_reset+0x8>
10002272:	4770      	bx	lr
10002274:	20001020 	.word	0x20001020

10002278 <runtime_init_per_core_irq_priorities>:
10002278:	f04f 23e0 	mov.w	r3, #3758153728	@ 0xe000e000
1000227c:	f04f 3280 	mov.w	r2, #2155905152	@ 0x80808080
10002280:	f8c3 2400 	str.w	r2, [r3, #1024]	@ 0x400
10002284:	f8c3 2404 	str.w	r2, [r3, #1028]	@ 0x404
10002288:	f8c3 2408 	str.w	r2, [r3, #1032]	@ 0x408
1000228c:	f8c3 240c 	str.w	r2, [r3, #1036]	@ 0x40c
10002290:	f8c3 2410 	str.w	r2, [r3, #1040]	@ 0x410
10002294:	f8c3 2414 	str.w	r2, [r3, #1044]	@ 0x414
10002298:	f8c3 2418 	str.w	r2, [r3, #1048]	@ 0x418
1000229c:	f8c3 241c 	str.w	r2, [r3, #1052]	@ 0x41c
100022a0:	f8c3 2420 	str.w	r2, [r3, #1056]	@ 0x420
100022a4:	f8c3 2424 	str.w	r2, [r3, #1060]	@ 0x424
100022a8:	f8c3 2428 	str.w	r2, [r3, #1064]	@ 0x428
100022ac:	f8c3 242c 	str.w	r2, [r3, #1068]	@ 0x42c
100022b0:	f8c3 2430 	str.w	r2, [r3, #1072]	@ 0x430
100022b4:	b662      	cpsie	i
100022b6:	4770      	bx	lr

100022b8 <irq_set_enabled>:
100022b8:	2301      	movs	r3, #1
100022ba:	f000 021f 	and.w	r2, r0, #31
100022be:	4093      	lsls	r3, r2
100022c0:	0940      	lsrs	r0, r0, #5
100022c2:	b141      	cbz	r1, 100022d6 <irq_set_enabled+0x1e>
100022c4:	0080      	lsls	r0, r0, #2
100022c6:	f100 4060 	add.w	r0, r0, #3758096384	@ 0xe0000000
100022ca:	f500 4061 	add.w	r0, r0, #57600	@ 0xe100
100022ce:	f8c0 3180 	str.w	r3, [r0, #384]	@ 0x180
100022d2:	6003      	str	r3, [r0, #0]
100022d4:	4770      	bx	lr
100022d6:	4a02      	ldr	r2, [pc, #8]	@ (100022e0 <irq_set_enabled+0x28>)
100022d8:	3020      	adds	r0, #32
100022da:	f842 3020 	str.w	r3, [r2, r0, lsl #2]
100022de:	4770      	bx	lr
100022e0:	e000e100 	.word	0xe000e100

100022e4 <irq_set_exclusive_handler>:
100022e4:	b5f8      	push	{r3, r4, r5, r6, r7, lr}
100022e6:	460d      	mov	r5, r1
100022e8:	f3ef 8710 	mrs	r7, PRIMASK
100022ec:	b672      	cpsid	i
100022ee:	4e12      	ldr	r6, [pc, #72]	@ (10002338 <irq_set_exclusive_handler+0x54>)
100022f0:	e8d6 2fcf 	ldaexb	r2, [r6]
100022f4:	2301      	movs	r3, #1
100022f6:	2a00      	cmp	r2, #0
100022f8:	d1fa      	bne.n	100022f0 <irq_set_exclusive_handler+0xc>
100022fa:	e8c6 3f42 	strexb	r2, r3, [r6]
100022fe:	2a00      	cmp	r2, #0
10002300:	d1f6      	bne.n	100022f0 <irq_set_exclusive_handler+0xc>
10002302:	f3bf 8f5f 	dmb	sy
10002306:	4b0d      	ldr	r3, [pc, #52]	@ (1000233c <irq_set_exclusive_handler+0x58>)
10002308:	f100 0410 	add.w	r4, r0, #16
1000230c:	689b      	ldr	r3, [r3, #8]
1000230e:	4a0c      	ldr	r2, [pc, #48]	@ (10002340 <irq_set_exclusive_handler+0x5c>)
10002310:	f853 3024 	ldr.w	r3, [r3, r4, lsl #2]
10002314:	4293      	cmp	r3, r2
10002316:	d003      	beq.n	10002320 <irq_set_exclusive_handler+0x3c>
10002318:	4299      	cmp	r1, r3
1000231a:	d001      	beq.n	10002320 <irq_set_exclusive_handler+0x3c>
1000231c:	f000 ffd6 	bl	100032cc <hard_assertion_failure>
10002320:	4b06      	ldr	r3, [pc, #24]	@ (1000233c <irq_set_exclusive_handler+0x58>)
10002322:	689b      	ldr	r3, [r3, #8]
10002324:	f843 5024 	str.w	r5, [r3, r4, lsl #2]
10002328:	f3bf 8f5f 	dmb	sy
1000232c:	2300      	movs	r3, #0
1000232e:	e8c6 3f8f 	stlb	r3, [r6]
10002332:	f387 8810 	msr	PRIMASK, r7
10002336:	bdf8      	pop	{r3, r4, r5, r6, r7, pc}
10002338:	20001029 	.word	0x20001029
1000233c:	e000ed00 	.word	0xe000ed00
10002340:	10000111 	.word	0x10000111

10002344 <irq_set_priority>:
10002344:	f04f 0cff 	mov.w	ip, #255	@ 0xff
10002348:	f020 0303 	bic.w	r3, r0, #3
1000234c:	f103 4360 	add.w	r3, r3, #3758096384	@ 0xe0000000
10002350:	f503 4364 	add.w	r3, r3, #58368	@ 0xe400
10002354:	f000 0003 	and.w	r0, r0, #3
10002358:	681a      	ldr	r2, [r3, #0]
1000235a:	00c0      	lsls	r0, r0, #3
1000235c:	fa0c fc00 	lsl.w	ip, ip, r0
10002360:	ea22 020c 	bic.w	r2, r2, ip
10002364:	4081      	lsls	r1, r0
10002366:	430a      	orrs	r2, r1
10002368:	601a      	str	r2, [r3, #0]
1000236a:	4770      	bx	lr

1000236c <lock_init>:
1000236c:	4b01      	ldr	r3, [pc, #4]	@ (10002374 <lock_init+0x8>)
1000236e:	440b      	add	r3, r1
10002370:	6003      	str	r3, [r0, #0]
10002372:	4770      	bx	lr
10002374:	20001020 	.word	0x20001020

10002378 <runtime_init_mutex>:
10002378:	b570      	push	{r4, r5, r6, lr}
1000237a:	4c10      	ldr	r4, [pc, #64]	@ (100023bc <runtime_init_mutex+0x44>)
1000237c:	4d10      	ldr	r5, [pc, #64]	@ (100023c0 <runtime_init_mutex+0x48>)
1000237e:	42ac      	cmp	r4, r5
10002380:	d20e      	bcs.n	100023a0 <runtime_init_mutex+0x28>
10002382:	26ff      	movs	r6, #255	@ 0xff
10002384:	6823      	ldr	r3, [r4, #0]
10002386:	b163      	cbz	r3, 100023a2 <runtime_init_mutex+0x2a>
10002388:	f7ff ff56 	bl	10002238 <next_striped_spin_lock_num>
1000238c:	4601      	mov	r1, r0
1000238e:	4620      	mov	r0, r4
10002390:	f7ff ffec 	bl	1000236c <lock_init>
10002394:	80a6      	strh	r6, [r4, #4]
10002396:	f3bf 8f5f 	dmb	sy
1000239a:	3408      	adds	r4, #8
1000239c:	42ac      	cmp	r4, r5
1000239e:	d3f1      	bcc.n	10002384 <runtime_init_mutex+0xc>
100023a0:	bd70      	pop	{r4, r5, r6, pc}
100023a2:	f7ff ff49 	bl	10002238 <next_striped_spin_lock_num>
100023a6:	4601      	mov	r1, r0
100023a8:	4620      	mov	r0, r4
100023aa:	f7ff ffdf 	bl	1000236c <lock_init>
100023ae:	7126      	strb	r6, [r4, #4]
100023b0:	f3bf 8f5f 	dmb	sy
100023b4:	3408      	adds	r4, #8
100023b6:	42ac      	cmp	r4, r5
100023b8:	d3e4      	bcc.n	10002384 <runtime_init_mutex+0xc>
100023ba:	bd70      	pop	{r4, r5, r6, pc}
100023bc:	20000c50 	.word	0x20000c50
100023c0:	20000c60 	.word	0x20000c60

100023c4 <sleep_until_callback>:
100023c4:	4b0d      	ldr	r3, [pc, #52]	@ (100023fc <sleep_until_callback+0x38>)
100023c6:	681a      	ldr	r2, [r3, #0]
100023c8:	f3ef 8110 	mrs	r1, PRIMASK
100023cc:	b672      	cpsid	i
100023ce:	e8d2 cfcf 	ldaexb	ip, [r2]
100023d2:	2001      	movs	r0, #1
100023d4:	f1bc 0f00 	cmp.w	ip, #0
100023d8:	d1f9      	bne.n	100023ce <sleep_until_callback+0xa>
100023da:	e8c2 0f4c 	strexb	ip, r0, [r2]
100023de:	f1bc 0f00 	cmp.w	ip, #0
100023e2:	d1f4      	bne.n	100023ce <sleep_until_callback+0xa>
100023e4:	f3bf 8f5f 	dmb	sy
100023e8:	2200      	movs	r2, #0
100023ea:	681b      	ldr	r3, [r3, #0]
100023ec:	e8c3 2f8f 	stlb	r2, [r3]
100023f0:	f381 8810 	msr	PRIMASK, r1
100023f4:	bf40      	sev
100023f6:	2000      	movs	r0, #0
100023f8:	2100      	movs	r1, #0
100023fa:	4770      	bx	lr
100023fc:	20001258 	.word	0x20001258

10002400 <alarm_pool_irq_handler>:
10002400:	e92d 4ff0 	stmdb	sp!, {r4, r5, r6, r7, r8, r9, sl, fp, lr}
10002404:	ed2d 8b02 	vpush	{d8}
10002408:	b085      	sub	sp, #20
1000240a:	f3ef 8305 	mrs	r3, IPSR
1000240e:	b2db      	uxtb	r3, r3
10002410:	3b10      	subs	r3, #16
10002412:	089a      	lsrs	r2, r3, #2
10002414:	bf18      	it	ne
10002416:	2201      	movne	r2, #1
10002418:	f04f 0101 	mov.w	r1, #1
1000241c:	f003 0b03 	and.w	fp, r3, #3
10002420:	bf18      	it	ne
10002422:	4daf      	ldrne	r5, [pc, #700]	@ (100026e0 <alarm_pool_irq_handler+0x2e0>)
10002424:	4baf      	ldr	r3, [pc, #700]	@ (100026e4 <alarm_pool_irq_handler+0x2e4>)
10002426:	bf08      	it	eq
10002428:	4daf      	ldreq	r5, [pc, #700]	@ (100026e8 <alarm_pool_irq_handler+0x2e8>)
1000242a:	eb0b 0282 	add.w	r2, fp, r2, lsl #2
1000242e:	f853 6022 	ldr.w	r6, [r3, r2, lsl #2]
10002432:	fa01 f20b 	lsl.w	r2, r1, fp
10002436:	f505 5341 	add.w	r3, r5, #12352	@ 0x3040
1000243a:	ed9f 8ba7 	vldr	d8, [pc, #668]	@ 100026d8 <alarm_pool_irq_handler+0x2d8>
1000243e:	9201      	str	r2, [sp, #4]
10002440:	605a      	str	r2, [r3, #4]
10002442:	e02f      	b.n	100024a4 <alarm_pool_irq_handler+0xa4>
10002444:	88b3      	ldrh	r3, [r6, #4]
10002446:	041c      	lsls	r4, r3, #16
10002448:	f140 8093 	bpl.w	10002572 <alarm_pool_irq_handler+0x172>
1000244c:	79b3      	ldrb	r3, [r6, #6]
1000244e:	2b00      	cmp	r3, #0
10002450:	f040 80dd 	bne.w	1000260e <alarm_pool_irq_handler+0x20e>
10002454:	f9b6 2008 	ldrsh.w	r2, [r6, #8]
10002458:	2a00      	cmp	r2, #0
1000245a:	f2c0 811e 	blt.w	1000269a <alarm_pool_irq_handler+0x29a>
1000245e:	6973      	ldr	r3, [r6, #20]
10002460:	eb02 0242 	add.w	r2, r2, r2, lsl #1
10002464:	eb03 03c2 	add.w	r3, r3, r2, lsl #3
10002468:	e9d3 4702 	ldrd	r4, r7, [r3, #8]
1000246c:	f1b7 3fff 	cmp.w	r7, #4294967295	@ 0xffffffff
10002470:	bf08      	it	eq
10002472:	f1b4 3fff 	cmpeq.w	r4, #4294967295	@ 0xffffffff
10002476:	d00e      	beq.n	10002496 <alarm_pool_irq_handler+0x96>
10002478:	eb05 018b 	add.w	r1, r5, fp, lsl #2
1000247c:	6aab      	ldr	r3, [r5, #40]	@ 0x28
1000247e:	690a      	ldr	r2, [r1, #16]
10002480:	1ad2      	subs	r2, r2, r3
10002482:	1ae3      	subs	r3, r4, r3
10002484:	4293      	cmp	r3, r2
10002486:	d305      	bcc.n	10002494 <alarm_pool_irq_handler+0x94>
10002488:	2301      	movs	r3, #1
1000248a:	6a2a      	ldr	r2, [r5, #32]
1000248c:	fa03 f30b 	lsl.w	r3, r3, fp
10002490:	4213      	tst	r3, r2
10002492:	d100      	bne.n	10002496 <alarm_pool_irq_handler+0x96>
10002494:	610c      	str	r4, [r1, #16]
10002496:	4628      	mov	r0, r5
10002498:	f000 fc1a 	bl	10002cd0 <timer_time_us_64>
1000249c:	42a0      	cmp	r0, r4
1000249e:	41b9      	sbcs	r1, r7
100024a0:	f2c0 80fb 	blt.w	1000269a <alarm_pool_irq_handler+0x29a>
100024a4:	f9b6 3008 	ldrsh.w	r3, [r6, #8]
100024a8:	9a01      	ldr	r2, [sp, #4]
100024aa:	2b00      	cmp	r3, #0
100024ac:	9300      	str	r3, [sp, #0]
100024ae:	63ea      	str	r2, [r5, #60]	@ 0x3c
100024b0:	dbc8      	blt.n	10002444 <alarm_pool_irq_handler+0x44>
100024b2:	f8d6 8014 	ldr.w	r8, [r6, #20]
100024b6:	eb03 0943 	add.w	r9, r3, r3, lsl #1
100024ba:	4628      	mov	r0, r5
100024bc:	eb08 07c9 	add.w	r7, r8, r9, lsl #3
100024c0:	e9d7 4a02 	ldrd	r4, sl, [r7, #8]
100024c4:	f000 fc04 	bl	10002cd0 <timer_time_us_64>
100024c8:	42a0      	cmp	r0, r4
100024ca:	eb71 010a 	sbcs.w	r1, r1, sl
100024ce:	dbb9      	blt.n	10002444 <alarm_pool_irq_handler+0x44>
100024d0:	f1ba 0f00 	cmp.w	sl, #0
100024d4:	f2c0 80c3 	blt.w	1000265e <alarm_pool_irq_handler+0x25e>
100024d8:	e9d7 3104 	ldrd	r3, r1, [r7, #16]
100024dc:	4a83      	ldr	r2, [pc, #524]	@ (100026ec <alarm_pool_irq_handler+0x2ec>)
100024de:	4293      	cmp	r3, r2
100024e0:	f000 80ed 	beq.w	100026be <alarm_pool_irq_handler+0x2be>
100024e4:	887a      	ldrh	r2, [r7, #2]
100024e6:	f9b6 0008 	ldrsh.w	r0, [r6, #8]
100024ea:	b292      	uxth	r2, r2
100024ec:	ea42 4000 	orr.w	r0, r2, r0, lsl #16
100024f0:	4798      	blx	r3
100024f2:	4602      	mov	r2, r0
100024f4:	460b      	mov	r3, r1
100024f6:	ea52 0103 	orrs.w	r1, r2, r3
100024fa:	f000 80b0 	beq.w	1000265e <alarm_pool_irq_handler+0x25e>
100024fe:	2b00      	cmp	r3, #0
10002500:	f280 80d1 	bge.w	100026a6 <alarm_pool_irq_handler+0x2a6>
10002504:	ebb4 0e02 	subs.w	lr, r4, r2
10002508:	eb6a 0a03 	sbc.w	sl, sl, r3
1000250c:	f938 3039 	ldrsh.w	r3, [r8, r9, lsl #3]
10002510:	e9c7 ea02 	strd	lr, sl, [r7, #8]
10002514:	2b00      	cmp	r3, #0
10002516:	db95      	blt.n	10002444 <alarm_pool_irq_handler+0x44>
10002518:	6971      	ldr	r1, [r6, #20]
1000251a:	eb03 0243 	add.w	r2, r3, r3, lsl #1
1000251e:	eb01 02c2 	add.w	r2, r1, r2, lsl #3
10002522:	e9d2 7002 	ldrd	r7, r0, [r2, #8]
10002526:	45be      	cmp	lr, r7
10002528:	eb7a 0c00 	sbcs.w	ip, sl, r0
1000252c:	ea4f 0243 	mov.w	r2, r3, lsl #1
10002530:	db88      	blt.n	10002444 <alarm_pool_irq_handler+0x44>
10002532:	46b4      	mov	ip, r6
10002534:	f82c 3f08 	strh.w	r3, [ip, #8]!
10002538:	e006      	b.n	10002548 <alarm_pool_irq_handler+0x148>
1000253a:	eb03 0043 	add.w	r0, r3, r3, lsl #1
1000253e:	eb01 00c0 	add.w	r0, r1, r0, lsl #3
10002542:	005a      	lsls	r2, r3, #1
10002544:	e9d0 7002 	ldrd	r7, r0, [r0, #8]
10002548:	45be      	cmp	lr, r7
1000254a:	441a      	add	r2, r3
1000254c:	eb7a 0000 	sbcs.w	r0, sl, r0
10002550:	eb01 04c2 	add.w	r4, r1, r2, lsl #3
10002554:	db04      	blt.n	10002560 <alarm_pool_irq_handler+0x160>
10002556:	f931 3032 	ldrsh.w	r3, [r1, r2, lsl #3]
1000255a:	46a4      	mov	ip, r4
1000255c:	2b00      	cmp	r3, #0
1000255e:	daec      	bge.n	1000253a <alarm_pool_irq_handler+0x13a>
10002560:	f828 3039 	strh.w	r3, [r8, r9, lsl #3]
10002564:	9b00      	ldr	r3, [sp, #0]
10002566:	f8ac 3000 	strh.w	r3, [ip]
1000256a:	88b3      	ldrh	r3, [r6, #4]
1000256c:	041c      	lsls	r4, r3, #16
1000256e:	f53f af6d 	bmi.w	1000244c <alarm_pool_irq_handler+0x4c>
10002572:	6933      	ldr	r3, [r6, #16]
10002574:	f3ef 8210 	mrs	r2, PRIMASK
10002578:	b672      	cpsid	i
1000257a:	e8d3 0fcf 	ldaexb	r0, [r3]
1000257e:	2101      	movs	r1, #1
10002580:	2800      	cmp	r0, #0
10002582:	d1fa      	bne.n	1000257a <alarm_pool_irq_handler+0x17a>
10002584:	e8c3 1f40 	strexb	r0, r1, [r3]
10002588:	2800      	cmp	r0, #0
1000258a:	d1f6      	bne.n	1000257a <alarm_pool_irq_handler+0x17a>
1000258c:	f3bf 8f5f 	dmb	sy
10002590:	f64f 74ff 	movw	r4, #65535	@ 0xffff
10002594:	88b0      	ldrh	r0, [r6, #4]
10002596:	2300      	movs	r3, #0
10002598:	6931      	ldr	r1, [r6, #16]
1000259a:	b200      	sxth	r0, r0
1000259c:	80b4      	strh	r4, [r6, #4]
1000259e:	e8c1 3f8f 	stlb	r3, [r1]
100025a2:	f382 8810 	msr	PRIMASK, r2
100025a6:	4298      	cmp	r0, r3
100025a8:	f6ff af50 	blt.w	1000244c <alarm_pool_irq_handler+0x4c>
100025ac:	4607      	mov	r7, r0
100025ae:	46a9      	mov	r9, r5
100025b0:	6974      	ldr	r4, [r6, #20]
100025b2:	f106 0808 	add.w	r8, r6, #8
100025b6:	eb07 0e47 	add.w	lr, r7, r7, lsl #1
100025ba:	eb04 03ce 	add.w	r3, r4, lr, lsl #3
100025be:	e9d3 5002 	ldrd	r5, r0, [r3, #8]
100025c2:	f9b6 3008 	ldrsh.w	r3, [r6, #8]
100025c6:	46c4      	mov	ip, r8
100025c8:	2b00      	cmp	r3, #0
100025ca:	db13      	blt.n	100025f4 <alarm_pool_irq_handler+0x1f4>
100025cc:	46b2      	mov	sl, r6
100025ce:	9700      	str	r7, [sp, #0]
100025d0:	e004      	b.n	100025dc <alarm_pool_irq_handler+0x1dc>
100025d2:	f934 3036 	ldrsh.w	r3, [r4, r6, lsl #3]
100025d6:	4694      	mov	ip, r2
100025d8:	2b00      	cmp	r3, #0
100025da:	db09      	blt.n	100025f0 <alarm_pool_irq_handler+0x1f0>
100025dc:	eb03 0643 	add.w	r6, r3, r3, lsl #1
100025e0:	eb04 02c6 	add.w	r2, r4, r6, lsl #3
100025e4:	e9d2 7102 	ldrd	r7, r1, [r2, #8]
100025e8:	42bd      	cmp	r5, r7
100025ea:	eb70 0101 	sbcs.w	r1, r0, r1
100025ee:	daf0      	bge.n	100025d2 <alarm_pool_irq_handler+0x1d2>
100025f0:	4656      	mov	r6, sl
100025f2:	9f00      	ldr	r7, [sp, #0]
100025f4:	f8ac 7000 	strh.w	r7, [ip]
100025f8:	f934 703e 	ldrsh.w	r7, [r4, lr, lsl #3]
100025fc:	f824 303e 	strh.w	r3, [r4, lr, lsl #3]
10002600:	2f00      	cmp	r7, #0
10002602:	dad8      	bge.n	100025b6 <alarm_pool_irq_handler+0x1b6>
10002604:	79b3      	ldrb	r3, [r6, #6]
10002606:	464d      	mov	r5, r9
10002608:	2b00      	cmp	r3, #0
1000260a:	f43f af23 	beq.w	10002454 <alarm_pool_irq_handler+0x54>
1000260e:	2300      	movs	r3, #0
10002610:	71b3      	strb	r3, [r6, #6]
10002612:	f9b6 3008 	ldrsh.w	r3, [r6, #8]
10002616:	f106 0808 	add.w	r8, r6, #8
1000261a:	1c58      	adds	r0, r3, #1
1000261c:	d03d      	beq.n	1000269a <alarm_pool_irq_handler+0x29a>
1000261e:	461a      	mov	r2, r3
10002620:	6977      	ldr	r7, [r6, #20]
10002622:	e003      	b.n	1000262c <alarm_pool_irq_handler+0x22c>
10002624:	4680      	mov	r8, r0
10002626:	1c59      	adds	r1, r3, #1
10002628:	f43f af16 	beq.w	10002458 <alarm_pool_irq_handler+0x58>
1000262c:	eb03 0143 	add.w	r1, r3, r3, lsl #1
10002630:	eb07 00c1 	add.w	r0, r7, r1, lsl #3
10002634:	f8b0 c002 	ldrh.w	ip, [r0, #2]
10002638:	461c      	mov	r4, r3
1000263a:	f41c 4f00 	tst.w	ip, #32768	@ 0x8000
1000263e:	469e      	mov	lr, r3
10002640:	f937 3031 	ldrsh.w	r3, [r7, r1, lsl #3]
10002644:	d0ee      	beq.n	10002624 <alarm_pool_irq_handler+0x224>
10002646:	4294      	cmp	r4, r2
10002648:	ed80 8b02 	vstr	d8, [r0, #8]
1000264c:	d005      	beq.n	1000265a <alarm_pool_irq_handler+0x25a>
1000264e:	f8a8 3000 	strh.w	r3, [r8]
10002652:	8932      	ldrh	r2, [r6, #8]
10002654:	f827 2031 	strh.w	r2, [r7, r1, lsl #3]
10002658:	8134      	strh	r4, [r6, #8]
1000265a:	4672      	mov	r2, lr
1000265c:	e7e3      	b.n	10002626 <alarm_pool_irq_handler+0x226>
1000265e:	f838 3039 	ldrh.w	r3, [r8, r9, lsl #3]
10002662:	8133      	strh	r3, [r6, #8]
10002664:	6933      	ldr	r3, [r6, #16]
10002666:	f3ef 8210 	mrs	r2, PRIMASK
1000266a:	b672      	cpsid	i
1000266c:	e8d3 0fcf 	ldaexb	r0, [r3]
10002670:	2101      	movs	r1, #1
10002672:	2800      	cmp	r0, #0
10002674:	d1fa      	bne.n	1000266c <alarm_pool_irq_handler+0x26c>
10002676:	e8c3 1f40 	strexb	r0, r1, [r3]
1000267a:	2800      	cmp	r0, #0
1000267c:	d1f6      	bne.n	1000266c <alarm_pool_irq_handler+0x26c>
1000267e:	f3bf 8f5f 	dmb	sy
10002682:	8873      	ldrh	r3, [r6, #2]
10002684:	6931      	ldr	r1, [r6, #16]
10002686:	f828 3039 	strh.w	r3, [r8, r9, lsl #3]
1000268a:	9b00      	ldr	r3, [sp, #0]
1000268c:	8073      	strh	r3, [r6, #2]
1000268e:	2300      	movs	r3, #0
10002690:	e8c1 3f8f 	stlb	r3, [r1]
10002694:	f382 8810 	msr	PRIMASK, r2
10002698:	e6d4      	b.n	10002444 <alarm_pool_irq_handler+0x44>
1000269a:	bf40      	sev
1000269c:	b005      	add	sp, #20
1000269e:	ecbd 8b02 	vpop	{d8}
100026a2:	e8bd 8ff0 	ldmia.w	sp!, {r4, r5, r6, r7, r8, r9, sl, fp, pc}
100026a6:	4628      	mov	r0, r5
100026a8:	e9cd 2302 	strd	r2, r3, [sp, #8]
100026ac:	f000 fb10 	bl	10002cd0 <timer_time_us_64>
100026b0:	9a02      	ldr	r2, [sp, #8]
100026b2:	9b03      	ldr	r3, [sp, #12]
100026b4:	eb10 0e02 	adds.w	lr, r0, r2
100026b8:	eb43 0a01 	adc.w	sl, r3, r1
100026bc:	e726      	b.n	1000250c <alarm_pool_irq_handler+0x10c>
100026be:	4608      	mov	r0, r1
100026c0:	690b      	ldr	r3, [r1, #16]
100026c2:	9102      	str	r1, [sp, #8]
100026c4:	4798      	blx	r3
100026c6:	2800      	cmp	r0, #0
100026c8:	d0c9      	beq.n	1000265e <alarm_pool_irq_handler+0x25e>
100026ca:	9902      	ldr	r1, [sp, #8]
100026cc:	e9d1 2300 	ldrd	r2, r3, [r1]
100026d0:	e711      	b.n	100024f6 <alarm_pool_irq_handler+0xf6>
100026d2:	bf00      	nop
100026d4:	f3af 8000 	nop.w
100026d8:	ffffffff 	.word	0xffffffff
100026dc:	ffffffff 	.word	0xffffffff
100026e0:	400b8000 	.word	0x400b8000
100026e4:	200010cc 	.word	0x200010cc
100026e8:	400b0000 	.word	0x400b0000
100026ec:	10002401 	.word	0x10002401

100026f0 <runtime_init_default_alarm_pool>:
100026f0:	e92d 4ff8 	stmdb	sp!, {r3, r4, r5, r6, r7, r8, r9, sl, fp, lr}
100026f4:	4c36      	ldr	r4, [pc, #216]	@ (100027d0 <runtime_init_default_alarm_pool+0xe0>)
100026f6:	6925      	ldr	r5, [r4, #16]
100026f8:	b12d      	cbz	r5, 10002706 <runtime_init_default_alarm_pool+0x16>
100026fa:	e8bd 4ff8 	ldmia.w	sp!, {r3, r4, r5, r6, r7, r8, r9, sl, fp, lr}
100026fe:	210a      	movs	r1, #10
10002700:	4834      	ldr	r0, [pc, #208]	@ (100027d4 <runtime_init_default_alarm_pool+0xe4>)
10002702:	f7ff be33 	b.w	1000236c <lock_init>
10002706:	f8df 80e4 	ldr.w	r8, [pc, #228]	@ 100027ec <runtime_init_default_alarm_pool+0xfc>
1000270a:	2103      	movs	r1, #3
1000270c:	4640      	mov	r0, r8
1000270e:	f000 facd 	bl	10002cac <timer_hardware_alarm_claim>
10002712:	2603      	movs	r6, #3
10002714:	f8c4 800c 	str.w	r8, [r4, #12]
10002718:	f7ff fd8e 	bl	10002238 <next_striped_spin_lock_num>
1000271c:	f04f 4c50 	mov.w	ip, #3489660928	@ 0xd0000000
10002720:	4b2d      	ldr	r3, [pc, #180]	@ (100027d8 <runtime_init_default_alarm_pool+0xe8>)
10002722:	7026      	strb	r6, [r4, #0]
10002724:	4403      	add	r3, r0
10002726:	6123      	str	r3, [r4, #16]
10002728:	f8dc 3000 	ldr.w	r3, [ip]
1000272c:	210f      	movs	r1, #15
1000272e:	7063      	strb	r3, [r4, #1]
10002730:	6963      	ldr	r3, [r4, #20]
10002732:	8061      	strh	r1, [r4, #2]
10002734:	831d      	strh	r5, [r3, #24]
10002736:	f04f 0504 	mov.w	r5, #4
1000273a:	f8a3 5078 	strh.w	r5, [r3, #120]	@ 0x78
1000273e:	f04f 0505 	mov.w	r5, #5
10002742:	f8a3 5090 	strh.w	r5, [r3, #144]	@ 0x90
10002746:	f04f 0506 	mov.w	r5, #6
1000274a:	f8a3 50a8 	strh.w	r5, [r3, #168]	@ 0xa8
1000274e:	f04f 0507 	mov.w	r5, #7
10002752:	210e      	movs	r1, #14
10002754:	f64f 72ff 	movw	r2, #65535	@ 0xffff
10002758:	2708      	movs	r7, #8
1000275a:	f04f 0e0a 	mov.w	lr, #10
1000275e:	f8a3 50c0 	strh.w	r5, [r3, #192]	@ 0xc0
10002762:	f04f 0901 	mov.w	r9, #1
10002766:	f04f 0c0c 	mov.w	ip, #12
1000276a:	f04f 0b02 	mov.w	fp, #2
1000276e:	f04f 0a09 	mov.w	sl, #9
10002772:	200d      	movs	r0, #13
10002774:	f04f 050b 	mov.w	r5, #11
10002778:	f8a3 1168 	strh.w	r1, [r3, #360]	@ 0x168
1000277c:	4917      	ldr	r1, [pc, #92]	@ (100027dc <runtime_init_default_alarm_pool+0xec>)
1000277e:	80a2      	strh	r2, [r4, #4]
10002780:	f8a3 e108 	strh.w	lr, [r3, #264]	@ 0x108
10002784:	60a1      	str	r1, [r4, #8]
10002786:	f8a3 b048 	strh.w	fp, [r3, #72]	@ 0x48
1000278a:	f8a3 a0f0 	strh.w	sl, [r3, #240]	@ 0xf0
1000278e:	f8a3 5120 	strh.w	r5, [r3, #288]	@ 0x120
10002792:	f8a3 c138 	strh.w	ip, [r3, #312]	@ 0x138
10002796:	f8a3 0150 	strh.w	r0, [r3, #336]	@ 0x150
1000279a:	f8a3 9030 	strh.w	r9, [r3, #48]	@ 0x30
1000279e:	f8a3 6060 	strh.w	r6, [r3, #96]	@ 0x60
100027a2:	f8a3 70d8 	strh.w	r7, [r3, #216]	@ 0xd8
100027a6:	801a      	strh	r2, [r3, #0]
100027a8:	4b0d      	ldr	r3, [pc, #52]	@ (100027e0 <runtime_init_default_alarm_pool+0xf0>)
100027aa:	4630      	mov	r0, r6
100027ac:	f8c8 7020 	str.w	r7, [r8, #32]
100027b0:	490c      	ldr	r1, [pc, #48]	@ (100027e4 <runtime_init_default_alarm_pool+0xf4>)
100027b2:	60dc      	str	r4, [r3, #12]
100027b4:	f7ff fd96 	bl	100022e4 <irq_set_exclusive_handler>
100027b8:	4649      	mov	r1, r9
100027ba:	4630      	mov	r0, r6
100027bc:	f7ff fd7c 	bl	100022b8 <irq_set_enabled>
100027c0:	4b09      	ldr	r3, [pc, #36]	@ (100027e8 <runtime_init_default_alarm_pool+0xf8>)
100027c2:	210a      	movs	r1, #10
100027c4:	641f      	str	r7, [r3, #64]	@ 0x40
100027c6:	4803      	ldr	r0, [pc, #12]	@ (100027d4 <runtime_init_default_alarm_pool+0xe4>)
100027c8:	e8bd 4ff8 	ldmia.w	sp!, {r3, r4, r5, r6, r7, r8, r9, sl, fp, lr}
100027cc:	f7ff bdce 	b.w	1000236c <lock_init>
100027d0:	200006cc 	.word	0x200006cc
100027d4:	20001258 	.word	0x20001258
100027d8:	20001020 	.word	0x20001020
100027dc:	0010ffff 	.word	0x0010ffff
100027e0:	200010cc 	.word	0x200010cc
100027e4:	10002401 	.word	0x10002401
100027e8:	400b2000 	.word	0x400b2000
100027ec:	400b0000 	.word	0x400b0000

100027f0 <alarm_pool_get_default>:
100027f0:	4800      	ldr	r0, [pc, #0]	@ (100027f4 <alarm_pool_get_default+0x4>)
100027f2:	4770      	bx	lr
100027f4:	200006cc 	.word	0x200006cc

100027f8 <alarm_pool_add_alarm_at_force_in_context>:
100027f8:	4601      	mov	r1, r0
100027fa:	b5f0      	push	{r4, r5, r6, r7, lr}
100027fc:	6900      	ldr	r0, [r0, #16]
100027fe:	f3ef 8710 	mrs	r7, PRIMASK
10002802:	b672      	cpsid	i
10002804:	e8d0 5fcf 	ldaexb	r5, [r0]
10002808:	2401      	movs	r4, #1
1000280a:	2d00      	cmp	r5, #0
1000280c:	d1fa      	bne.n	10002804 <alarm_pool_add_alarm_at_force_in_context+0xc>
1000280e:	e8c0 4f45 	strexb	r5, r4, [r0]
10002812:	2d00      	cmp	r5, #0
10002814:	d1f6      	bne.n	10002804 <alarm_pool_add_alarm_at_force_in_context+0xc>
10002816:	f3bf 8f5f 	dmb	sy
1000281a:	f9b1 e002 	ldrsh.w	lr, [r1, #2]
1000281e:	694c      	ldr	r4, [r1, #20]
10002820:	eb0e 0c4e 	add.w	ip, lr, lr, lsl #1
10002824:	f1be 0f00 	cmp.w	lr, #0
10002828:	ea4f 05cc 	mov.w	r5, ip, lsl #3
1000282c:	6908      	ldr	r0, [r1, #16]
1000282e:	eb04 0ccc 	add.w	ip, r4, ip, lsl #3
10002832:	db3c      	blt.n	100028ae <alarm_pool_add_alarm_at_force_in_context+0xb6>
10002834:	5b66      	ldrh	r6, [r4, r5]
10002836:	804e      	strh	r6, [r1, #2]
10002838:	2600      	movs	r6, #0
1000283a:	e8c0 6f8f 	stlb	r6, [r0]
1000283e:	f387 8810 	msr	PRIMASK, r7
10002842:	f8bc 0002 	ldrh.w	r0, [ip, #2]
10002846:	e9cc 2302 	strd	r2, r3, [ip, #8]
1000284a:	3001      	adds	r0, #1
1000284c:	f3c0 000e 	ubfx	r0, r0, #0, #15
10002850:	2801      	cmp	r0, #1
10002852:	bf38      	it	cc
10002854:	2001      	movcc	r0, #1
10002856:	9b05      	ldr	r3, [sp, #20]
10002858:	f8ac 0002 	strh.w	r0, [ip, #2]
1000285c:	f8cc 3010 	str.w	r3, [ip, #16]
10002860:	9b06      	ldr	r3, [sp, #24]
10002862:	ea40 400e 	orr.w	r0, r0, lr, lsl #16
10002866:	f8cc 3014 	str.w	r3, [ip, #20]
1000286a:	690b      	ldr	r3, [r1, #16]
1000286c:	f3ef 8210 	mrs	r2, PRIMASK
10002870:	b672      	cpsid	i
10002872:	e8d3 cfcf 	ldaexb	ip, [r3]
10002876:	2701      	movs	r7, #1
10002878:	f1bc 0f00 	cmp.w	ip, #0
1000287c:	d1f9      	bne.n	10002872 <alarm_pool_add_alarm_at_force_in_context+0x7a>
1000287e:	e8c3 7f4c 	strexb	ip, r7, [r3]
10002882:	f1bc 0f00 	cmp.w	ip, #0
10002886:	d1f4      	bne.n	10002872 <alarm_pool_add_alarm_at_force_in_context+0x7a>
10002888:	f3bf 8f5f 	dmb	sy
1000288c:	888b      	ldrh	r3, [r1, #4]
1000288e:	5363      	strh	r3, [r4, r5]
10002890:	f8a1 e004 	strh.w	lr, [r1, #4]
10002894:	690b      	ldr	r3, [r1, #16]
10002896:	e8c3 6f8f 	stlb	r6, [r3]
1000289a:	f382 8810 	msr	PRIMASK, r2
1000289e:	2201      	movs	r2, #1
100028a0:	68cb      	ldr	r3, [r1, #12]
100028a2:	7809      	ldrb	r1, [r1, #0]
100028a4:	f503 5301 	add.w	r3, r3, #8256	@ 0x2040
100028a8:	408a      	lsls	r2, r1
100028aa:	605a      	str	r2, [r3, #4]
100028ac:	bdf0      	pop	{r4, r5, r6, r7, pc}
100028ae:	2300      	movs	r3, #0
100028b0:	e8c0 3f8f 	stlb	r3, [r0]
100028b4:	f387 8810 	msr	PRIMASK, r7
100028b8:	f04f 30ff 	mov.w	r0, #4294967295	@ 0xffffffff
100028bc:	bdf0      	pop	{r4, r5, r6, r7, pc}
100028be:	bf00      	nop

100028c0 <alarm_pool_cancel_alarm>:
100028c0:	4603      	mov	r3, r0
100028c2:	8940      	ldrh	r0, [r0, #10]
100028c4:	ebb0 4f21 	cmp.w	r0, r1, asr #16
100028c8:	dd37      	ble.n	1000293a <alarm_pool_cancel_alarm+0x7a>
100028ca:	6958      	ldr	r0, [r3, #20]
100028cc:	140a      	asrs	r2, r1, #16
100028ce:	eb02 0242 	add.w	r2, r2, r2, lsl #1
100028d2:	b510      	push	{r4, lr}
100028d4:	eb00 00c2 	add.w	r0, r0, r2, lsl #3
100028d8:	691c      	ldr	r4, [r3, #16]
100028da:	f3ef 8c10 	mrs	ip, PRIMASK
100028de:	b672      	cpsid	i
100028e0:	e8d4 efcf 	ldaexb	lr, [r4]
100028e4:	2201      	movs	r2, #1
100028e6:	f1be 0f00 	cmp.w	lr, #0
100028ea:	d1f9      	bne.n	100028e0 <alarm_pool_cancel_alarm+0x20>
100028ec:	e8c4 2f4e 	strexb	lr, r2, [r4]
100028f0:	f1be 0f00 	cmp.w	lr, #0
100028f4:	d1f4      	bne.n	100028e0 <alarm_pool_cancel_alarm+0x20>
100028f6:	f3bf 8f5f 	dmb	sy
100028fa:	8842      	ldrh	r2, [r0, #2]
100028fc:	b289      	uxth	r1, r1
100028fe:	b292      	uxth	r2, r2
10002900:	428a      	cmp	r2, r1
10002902:	d007      	beq.n	10002914 <alarm_pool_cancel_alarm+0x54>
10002904:	2200      	movs	r2, #0
10002906:	691b      	ldr	r3, [r3, #16]
10002908:	e8c3 2f8f 	stlb	r2, [r3]
1000290c:	f38c 8810 	msr	PRIMASK, ip
10002910:	2000      	movs	r0, #0
10002912:	bd10      	pop	{r4, pc}
10002914:	f442 4200 	orr.w	r2, r2, #32768	@ 0x8000
10002918:	8042      	strh	r2, [r0, #2]
1000291a:	2101      	movs	r1, #1
1000291c:	2200      	movs	r2, #0
1000291e:	6918      	ldr	r0, [r3, #16]
10002920:	7199      	strb	r1, [r3, #6]
10002922:	e8c0 2f8f 	stlb	r2, [r0]
10002926:	f38c 8810 	msr	PRIMASK, ip
1000292a:	781c      	ldrb	r4, [r3, #0]
1000292c:	68da      	ldr	r2, [r3, #12]
1000292e:	4608      	mov	r0, r1
10002930:	f502 5301 	add.w	r3, r2, #8256	@ 0x2040
10002934:	40a1      	lsls	r1, r4
10002936:	6059      	str	r1, [r3, #4]
10002938:	bd10      	pop	{r4, pc}
1000293a:	2000      	movs	r0, #0
1000293c:	4770      	bx	lr
1000293e:	bf00      	nop

10002940 <sleep_ms>:
10002940:	e92d 41f0 	stmdb	sp!, {r4, r5, r6, r7, r8, lr}
10002944:	b082      	sub	sp, #8
10002946:	4606      	mov	r6, r0
10002948:	f000 f9ca 	bl	10002ce0 <time_us_64>
1000294c:	f44f 737a 	mov.w	r3, #1000	@ 0x3e8
10002950:	4604      	mov	r4, r0
10002952:	f04f 30ff 	mov.w	r0, #4294967295	@ 0xffffffff
10002956:	f06f 4200 	mvn.w	r2, #2147483648	@ 0x80000000
1000295a:	fbe6 4103 	umlal	r4, r1, r6, r3
1000295e:	42a0      	cmp	r0, r4
10002960:	eb72 0301 	sbcs.w	r3, r2, r1
10002964:	bf3a      	itte	cc
10002966:	4604      	movcc	r4, r0
10002968:	4615      	movcc	r5, r2
1000296a:	460d      	movcs	r5, r1
1000296c:	1fa6      	subs	r6, r4, #6
1000296e:	f145 37ff 	adc.w	r7, r5, #4294967295	@ 0xffffffff
10002972:	42b4      	cmp	r4, r6
10002974:	eb75 0307 	sbcs.w	r3, r5, r7
10002978:	bf3c      	itt	cc
1000297a:	2600      	movcc	r6, #0
1000297c:	4637      	movcc	r7, r6
1000297e:	f000 f9af 	bl	10002ce0 <time_us_64>
10002982:	1a30      	subs	r0, r6, r0
10002984:	eb67 0101 	sbc.w	r1, r7, r1
10002988:	2801      	cmp	r0, #1
1000298a:	f171 0100 	sbcs.w	r1, r1, #0
1000298e:	da06      	bge.n	1000299e <sleep_ms+0x5e>
10002990:	4620      	mov	r0, r4
10002992:	4629      	mov	r1, r5
10002994:	b002      	add	sp, #8
10002996:	e8bd 41f0 	ldmia.w	sp!, {r4, r5, r6, r7, r8, lr}
1000299a:	f000 b9ab 	b.w	10002cf4 <busy_wait_until>
1000299e:	f000 f99f 	bl	10002ce0 <time_us_64>
100029a2:	4286      	cmp	r6, r0
100029a4:	eb67 0101 	sbc.w	r1, r7, r1
100029a8:	2900      	cmp	r1, #0
100029aa:	db0a      	blt.n	100029c2 <sleep_ms+0x82>
100029ac:	2100      	movs	r1, #0
100029ae:	4b17      	ldr	r3, [pc, #92]	@ (10002a0c <sleep_ms+0xcc>)
100029b0:	4632      	mov	r2, r6
100029b2:	9300      	str	r3, [sp, #0]
100029b4:	4816      	ldr	r0, [pc, #88]	@ (10002a10 <sleep_ms+0xd0>)
100029b6:	463b      	mov	r3, r7
100029b8:	9101      	str	r1, [sp, #4]
100029ba:	f7ff ff1d 	bl	100027f8 <alarm_pool_add_alarm_at_force_in_context>
100029be:	3001      	adds	r0, #1
100029c0:	d0e6      	beq.n	10002990 <sleep_ms+0x50>
100029c2:	f04f 0c00 	mov.w	ip, #0
100029c6:	4a13      	ldr	r2, [pc, #76]	@ (10002a14 <sleep_ms+0xd4>)
100029c8:	4913      	ldr	r1, [pc, #76]	@ (10002a18 <sleep_ms+0xd8>)
100029ca:	6a53      	ldr	r3, [r2, #36]	@ 0x24
100029cc:	429f      	cmp	r7, r3
100029ce:	d804      	bhi.n	100029da <sleep_ms+0x9a>
100029d0:	6a90      	ldr	r0, [r2, #40]	@ 0x28
100029d2:	42b0      	cmp	r0, r6
100029d4:	d2dc      	bcs.n	10002990 <sleep_ms+0x50>
100029d6:	429f      	cmp	r7, r3
100029d8:	d1da      	bne.n	10002990 <sleep_ms+0x50>
100029da:	680b      	ldr	r3, [r1, #0]
100029dc:	f3ef 8010 	mrs	r0, PRIMASK
100029e0:	b672      	cpsid	i
100029e2:	e8d3 8fcf 	ldaexb	r8, [r3]
100029e6:	f05f 0e01 	movs.w	lr, #1
100029ea:	f1b8 0f00 	cmp.w	r8, #0
100029ee:	d1f8      	bne.n	100029e2 <sleep_ms+0xa2>
100029f0:	e8c3 ef48 	strexb	r8, lr, [r3]
100029f4:	f1b8 0f00 	cmp.w	r8, #0
100029f8:	d1f3      	bne.n	100029e2 <sleep_ms+0xa2>
100029fa:	f3bf 8f5f 	dmb	sy
100029fe:	680b      	ldr	r3, [r1, #0]
10002a00:	e8c3 cf8f 	stlb	ip, [r3]
10002a04:	f380 8810 	msr	PRIMASK, r0
10002a08:	bf20      	wfe
10002a0a:	e7de      	b.n	100029ca <sleep_ms+0x8a>
10002a0c:	100023c5 	.word	0x100023c5
10002a10:	200006cc 	.word	0x200006cc
10002a14:	400b0000 	.word	0x400b0000
10002a18:	20001258 	.word	0x20001258

10002a1c <best_effort_wfe_or_timeout>:
10002a1c:	e92d 43f0 	stmdb	sp!, {r4, r5, r6, r7, r8, r9, lr}
10002a20:	4606      	mov	r6, r0
10002a22:	460d      	mov	r5, r1
10002a24:	b083      	sub	sp, #12
10002a26:	f3ef 8405 	mrs	r4, IPSR
10002a2a:	b2e4      	uxtb	r4, r4
10002a2c:	b13c      	cbz	r4, 10002a3e <best_effort_wfe_or_timeout+0x22>
10002a2e:	4b2d      	ldr	r3, [pc, #180]	@ (10002ae4 <best_effort_wfe_or_timeout+0xc8>)
10002a30:	6a5a      	ldr	r2, [r3, #36]	@ 0x24
10002a32:	42aa      	cmp	r2, r5
10002a34:	d21c      	bcs.n	10002a70 <best_effort_wfe_or_timeout+0x54>
10002a36:	2000      	movs	r0, #0
10002a38:	b003      	add	sp, #12
10002a3a:	e8bd 83f0 	ldmia.w	sp!, {r4, r5, r6, r7, r8, r9, pc}
10002a3e:	4f2a      	ldr	r7, [pc, #168]	@ (10002ae8 <best_effort_wfe_or_timeout+0xcc>)
10002a40:	f8d7 900c 	ldr.w	r9, [r7, #12]
10002a44:	f897 8000 	ldrb.w	r8, [r7]
10002a48:	4648      	mov	r0, r9
10002a4a:	f000 f941 	bl	10002cd0 <timer_time_us_64>
10002a4e:	f108 0804 	add.w	r8, r8, #4
10002a52:	f859 3028 	ldr.w	r3, [r9, r8, lsl #2]
10002a56:	1a1b      	subs	r3, r3, r0
10002a58:	1a30      	subs	r0, r6, r0
10002a5a:	eb65 0101 	sbc.w	r1, r5, r1
10002a5e:	4298      	cmp	r0, r3
10002a60:	f171 0100 	sbcs.w	r1, r1, #0
10002a64:	db10      	blt.n	10002a88 <best_effort_wfe_or_timeout+0x6c>
10002a66:	bf20      	wfe
10002a68:	4b1e      	ldr	r3, [pc, #120]	@ (10002ae4 <best_effort_wfe_or_timeout+0xc8>)
10002a6a:	6a5a      	ldr	r2, [r3, #36]	@ 0x24
10002a6c:	42aa      	cmp	r2, r5
10002a6e:	d3e2      	bcc.n	10002a36 <best_effort_wfe_or_timeout+0x1a>
10002a70:	bf14      	ite	ne
10002a72:	2401      	movne	r4, #1
10002a74:	2400      	moveq	r4, #0
10002a76:	6a9b      	ldr	r3, [r3, #40]	@ 0x28
10002a78:	42b3      	cmp	r3, r6
10002a7a:	bf34      	ite	cc
10002a7c:	4620      	movcc	r0, r4
10002a7e:	f044 0001 	orrcs.w	r0, r4, #1
10002a82:	b003      	add	sp, #12
10002a84:	e8bd 83f0 	ldmia.w	sp!, {r4, r5, r6, r7, r8, r9, pc}
10002a88:	f000 f92a 	bl	10002ce0 <time_us_64>
10002a8c:	4286      	cmp	r6, r0
10002a8e:	eb65 0101 	sbc.w	r1, r5, r1
10002a92:	2900      	cmp	r1, #0
10002a94:	db14      	blt.n	10002ac0 <best_effort_wfe_or_timeout+0xa4>
10002a96:	4b15      	ldr	r3, [pc, #84]	@ (10002aec <best_effort_wfe_or_timeout+0xd0>)
10002a98:	4638      	mov	r0, r7
10002a9a:	e9cd 3400 	strd	r3, r4, [sp]
10002a9e:	4632      	mov	r2, r6
10002aa0:	462b      	mov	r3, r5
10002aa2:	f7ff fea9 	bl	100027f8 <alarm_pool_add_alarm_at_force_in_context>
10002aa6:	1e01      	subs	r1, r0, #0
10002aa8:	dd0a      	ble.n	10002ac0 <best_effort_wfe_or_timeout+0xa4>
10002aaa:	4b0e      	ldr	r3, [pc, #56]	@ (10002ae4 <best_effort_wfe_or_timeout+0xc8>)
10002aac:	6a5a      	ldr	r2, [r3, #36]	@ 0x24
10002aae:	42aa      	cmp	r2, r5
10002ab0:	d316      	bcc.n	10002ae0 <best_effort_wfe_or_timeout+0xc4>
10002ab2:	6a9b      	ldr	r3, [r3, #40]	@ 0x28
10002ab4:	42b3      	cmp	r3, r6
10002ab6:	d311      	bcc.n	10002adc <best_effort_wfe_or_timeout+0xc0>
10002ab8:	480b      	ldr	r0, [pc, #44]	@ (10002ae8 <best_effort_wfe_or_timeout+0xcc>)
10002aba:	f7ff ff01 	bl	100028c0 <alarm_pool_cancel_alarm>
10002abe:	e7b6      	b.n	10002a2e <best_effort_wfe_or_timeout+0x12>
10002ac0:	4b08      	ldr	r3, [pc, #32]	@ (10002ae4 <best_effort_wfe_or_timeout+0xc8>)
10002ac2:	6a5c      	ldr	r4, [r3, #36]	@ 0x24
10002ac4:	42ac      	cmp	r4, r5
10002ac6:	d3b6      	bcc.n	10002a36 <best_effort_wfe_or_timeout+0x1a>
10002ac8:	1b64      	subs	r4, r4, r5
10002aca:	bf18      	it	ne
10002acc:	2401      	movne	r4, #1
10002ace:	6a9b      	ldr	r3, [r3, #40]	@ 0x28
10002ad0:	42b3      	cmp	r3, r6
10002ad2:	bf34      	ite	cc
10002ad4:	4620      	movcc	r0, r4
10002ad6:	f044 0001 	orrcs.w	r0, r4, #1
10002ada:	e7ad      	b.n	10002a38 <best_effort_wfe_or_timeout+0x1c>
10002adc:	42aa      	cmp	r2, r5
10002ade:	d1eb      	bne.n	10002ab8 <best_effort_wfe_or_timeout+0x9c>
10002ae0:	bf20      	wfe
10002ae2:	e7e9      	b.n	10002ab8 <best_effort_wfe_or_timeout+0x9c>
10002ae4:	400b0000 	.word	0x400b0000
10002ae8:	200006cc 	.word	0x200006cc
10002aec:	100023c5 	.word	0x100023c5

10002af0 <alarm_pool_add_repeating_timer_us>:
10002af0:	e92d 41f0 	stmdb	sp!, {r4, r5, r6, r7, r8, lr}
10002af4:	4604      	mov	r4, r0
10002af6:	e9dd 1507 	ldrd	r1, r5, [sp, #28]
10002afa:	ea52 0003 	orrs.w	r0, r2, r3
10002afe:	d072      	beq.n	10002be6 <alarm_pool_add_repeating_timer_us+0xf6>
10002b00:	2b00      	cmp	r3, #0
10002b02:	4616      	mov	r6, r2
10002b04:	461f      	mov	r7, r3
10002b06:	db73      	blt.n	10002bf0 <alarm_pool_add_repeating_timer_us+0x100>
10002b08:	9806      	ldr	r0, [sp, #24]
10002b0a:	e9c5 2300 	strd	r2, r3, [r5]
10002b0e:	6128      	str	r0, [r5, #16]
10002b10:	60ac      	str	r4, [r5, #8]
10002b12:	6169      	str	r1, [r5, #20]
10002b14:	f000 f8e4 	bl	10002ce0 <time_us_64>
10002b18:	f04f 32ff 	mov.w	r2, #4294967295	@ 0xffffffff
10002b1c:	f06f 4300 	mvn.w	r3, #2147483648	@ 0x80000000
10002b20:	1980      	adds	r0, r0, r6
10002b22:	eb47 0701 	adc.w	r7, r7, r1
10002b26:	4282      	cmp	r2, r0
10002b28:	eb73 0107 	sbcs.w	r1, r3, r7
10002b2c:	bf3c      	itt	cc
10002b2e:	461f      	movcc	r7, r3
10002b30:	4610      	movcc	r0, r2
10002b32:	6923      	ldr	r3, [r4, #16]
10002b34:	f3ef 8210 	mrs	r2, PRIMASK
10002b38:	b672      	cpsid	i
10002b3a:	e8d3 6fcf 	ldaexb	r6, [r3]
10002b3e:	2101      	movs	r1, #1
10002b40:	2e00      	cmp	r6, #0
10002b42:	d1fa      	bne.n	10002b3a <alarm_pool_add_repeating_timer_us+0x4a>
10002b44:	e8c3 1f46 	strexb	r6, r1, [r3]
10002b48:	2e00      	cmp	r6, #0
10002b4a:	d1f6      	bne.n	10002b3a <alarm_pool_add_repeating_timer_us+0x4a>
10002b4c:	f3bf 8f5f 	dmb	sy
10002b50:	f9b4 1002 	ldrsh.w	r1, [r4, #2]
10002b54:	6966      	ldr	r6, [r4, #20]
10002b56:	eb01 0341 	add.w	r3, r1, r1, lsl #1
10002b5a:	2900      	cmp	r1, #0
10002b5c:	ea4f 0cc3 	mov.w	ip, r3, lsl #3
10002b60:	f8d4 8010 	ldr.w	r8, [r4, #16]
10002b64:	eb06 03c3 	add.w	r3, r6, r3, lsl #3
10002b68:	db46      	blt.n	10002bf8 <alarm_pool_add_repeating_timer_us+0x108>
10002b6a:	f836 e00c 	ldrh.w	lr, [r6, ip]
10002b6e:	f8a4 e002 	strh.w	lr, [r4, #2]
10002b72:	f04f 0e00 	mov.w	lr, #0
10002b76:	e8c8 ef8f 	stlb	lr, [r8]
10002b7a:	f382 8810 	msr	PRIMASK, r2
10002b7e:	885a      	ldrh	r2, [r3, #2]
10002b80:	e9c3 0702 	strd	r0, r7, [r3, #8]
10002b84:	3201      	adds	r2, #1
10002b86:	f3c2 020e 	ubfx	r2, r2, #0, #15
10002b8a:	2a01      	cmp	r2, #1
10002b8c:	bf38      	it	cc
10002b8e:	2201      	movcc	r2, #1
10002b90:	481e      	ldr	r0, [pc, #120]	@ (10002c0c <alarm_pool_add_repeating_timer_us+0x11c>)
10002b92:	805a      	strh	r2, [r3, #2]
10002b94:	615d      	str	r5, [r3, #20]
10002b96:	6118      	str	r0, [r3, #16]
10002b98:	ea42 4201 	orr.w	r2, r2, r1, lsl #16
10002b9c:	6923      	ldr	r3, [r4, #16]
10002b9e:	f3ef 8010 	mrs	r0, PRIMASK
10002ba2:	b672      	cpsid	i
10002ba4:	e8d3 8fcf 	ldaexb	r8, [r3]
10002ba8:	2701      	movs	r7, #1
10002baa:	f1b8 0f00 	cmp.w	r8, #0
10002bae:	d1f9      	bne.n	10002ba4 <alarm_pool_add_repeating_timer_us+0xb4>
10002bb0:	e8c3 7f48 	strexb	r8, r7, [r3]
10002bb4:	f1b8 0f00 	cmp.w	r8, #0
10002bb8:	d1f4      	bne.n	10002ba4 <alarm_pool_add_repeating_timer_us+0xb4>
10002bba:	f3bf 8f5f 	dmb	sy
10002bbe:	88a3      	ldrh	r3, [r4, #4]
10002bc0:	f826 300c 	strh.w	r3, [r6, ip]
10002bc4:	80a1      	strh	r1, [r4, #4]
10002bc6:	6923      	ldr	r3, [r4, #16]
10002bc8:	e8c3 ef8f 	stlb	lr, [r3]
10002bcc:	f380 8810 	msr	PRIMASK, r0
10002bd0:	2001      	movs	r0, #1
10002bd2:	7821      	ldrb	r1, [r4, #0]
10002bd4:	68e3      	ldr	r3, [r4, #12]
10002bd6:	fa00 f101 	lsl.w	r1, r0, r1
10002bda:	f503 5301 	add.w	r3, r3, #8256	@ 0x2040
10002bde:	6059      	str	r1, [r3, #4]
10002be0:	60ea      	str	r2, [r5, #12]
10002be2:	e8bd 81f0 	ldmia.w	sp!, {r4, r5, r6, r7, r8, pc}
10002be6:	2601      	movs	r6, #1
10002be8:	2700      	movs	r7, #0
10002bea:	4632      	mov	r2, r6
10002bec:	463b      	mov	r3, r7
10002bee:	e78b      	b.n	10002b08 <alarm_pool_add_repeating_timer_us+0x18>
10002bf0:	4256      	negs	r6, r2
10002bf2:	eb63 0743 	sbc.w	r7, r3, r3, lsl #1
10002bf6:	e787      	b.n	10002b08 <alarm_pool_add_repeating_timer_us+0x18>
10002bf8:	2000      	movs	r0, #0
10002bfa:	e8c8 0f8f 	stlb	r0, [r8]
10002bfe:	f382 8810 	msr	PRIMASK, r2
10002c02:	f04f 32ff 	mov.w	r2, #4294967295	@ 0xffffffff
10002c06:	60ea      	str	r2, [r5, #12]
10002c08:	e8bd 81f0 	ldmia.w	sp!, {r4, r5, r6, r7, r8, pc}
10002c0c:	10002401 	.word	0x10002401

10002c10 <cancel_repeating_timer>:
10002c10:	4602      	mov	r2, r0
10002c12:	68c0      	ldr	r0, [r0, #12]
10002c14:	b900      	cbnz	r0, 10002c18 <cancel_repeating_timer+0x8>
10002c16:	4770      	bx	lr
10002c18:	6891      	ldr	r1, [r2, #8]
10002c1a:	1403      	asrs	r3, r0, #16
10002c1c:	f8b1 c00a 	ldrh.w	ip, [r1, #10]
10002c20:	ebbc 4f20 	cmp.w	ip, r0, asr #16
10002c24:	dd3d      	ble.n	10002ca2 <cancel_repeating_timer+0x92>
10002c26:	b530      	push	{r4, r5, lr}
10002c28:	694c      	ldr	r4, [r1, #20]
10002c2a:	eb03 0343 	add.w	r3, r3, r3, lsl #1
10002c2e:	eb04 0cc3 	add.w	ip, r4, r3, lsl #3
10002c32:	690b      	ldr	r3, [r1, #16]
10002c34:	f3ef 8e10 	mrs	lr, PRIMASK
10002c38:	b672      	cpsid	i
10002c3a:	e8d3 5fcf 	ldaexb	r5, [r3]
10002c3e:	2401      	movs	r4, #1
10002c40:	2d00      	cmp	r5, #0
10002c42:	d1fa      	bne.n	10002c3a <cancel_repeating_timer+0x2a>
10002c44:	e8c3 4f45 	strexb	r5, r4, [r3]
10002c48:	2d00      	cmp	r5, #0
10002c4a:	d1f6      	bne.n	10002c3a <cancel_repeating_timer+0x2a>
10002c4c:	f3bf 8f5f 	dmb	sy
10002c50:	b283      	uxth	r3, r0
10002c52:	f8bc 0002 	ldrh.w	r0, [ip, #2]
10002c56:	b280      	uxth	r0, r0
10002c58:	4283      	cmp	r3, r0
10002c5a:	d009      	beq.n	10002c70 <cancel_repeating_timer+0x60>
10002c5c:	2300      	movs	r3, #0
10002c5e:	6909      	ldr	r1, [r1, #16]
10002c60:	e8c1 3f8f 	stlb	r3, [r1]
10002c64:	f38e 8810 	msr	PRIMASK, lr
10002c68:	2300      	movs	r3, #0
10002c6a:	2000      	movs	r0, #0
10002c6c:	60d3      	str	r3, [r2, #12]
10002c6e:	bd30      	pop	{r4, r5, pc}
10002c70:	f443 4300 	orr.w	r3, r3, #32768	@ 0x8000
10002c74:	f8ac 3002 	strh.w	r3, [ip, #2]
10002c78:	f04f 0c01 	mov.w	ip, #1
10002c7c:	2300      	movs	r3, #0
10002c7e:	6908      	ldr	r0, [r1, #16]
10002c80:	f881 c006 	strb.w	ip, [r1, #6]
10002c84:	e8c0 3f8f 	stlb	r3, [r0]
10002c88:	f38e 8810 	msr	PRIMASK, lr
10002c8c:	68cb      	ldr	r3, [r1, #12]
10002c8e:	7809      	ldrb	r1, [r1, #0]
10002c90:	f503 5301 	add.w	r3, r3, #8256	@ 0x2040
10002c94:	fa0c f101 	lsl.w	r1, ip, r1
10002c98:	6059      	str	r1, [r3, #4]
10002c9a:	2300      	movs	r3, #0
10002c9c:	4660      	mov	r0, ip
10002c9e:	60d3      	str	r3, [r2, #12]
10002ca0:	bd30      	pop	{r4, r5, pc}
10002ca2:	2300      	movs	r3, #0
10002ca4:	2000      	movs	r0, #0
10002ca6:	60d3      	str	r3, [r2, #12]
10002ca8:	4770      	bx	lr
10002caa:	bf00      	nop

10002cac <timer_hardware_alarm_claim>:
10002cac:	b410      	push	{r4}
10002cae:	4b05      	ldr	r3, [pc, #20]	@ (10002cc4 <timer_hardware_alarm_claim+0x18>)
10002cb0:	4c05      	ldr	r4, [pc, #20]	@ (10002cc8 <timer_hardware_alarm_claim+0x1c>)
10002cb2:	4a06      	ldr	r2, [pc, #24]	@ (10002ccc <timer_hardware_alarm_claim+0x20>)
10002cb4:	42a0      	cmp	r0, r4
10002cb6:	bf14      	ite	ne
10002cb8:	4618      	movne	r0, r3
10002cba:	1c58      	addeq	r0, r3, #1
10002cbc:	f85d 4b04 	ldr.w	r4, [sp], #4
10002cc0:	f7ff ba4e 	b.w	10002160 <hw_claim_or_assert>
10002cc4:	20001050 	.word	0x20001050
10002cc8:	400b8000 	.word	0x400b8000
10002ccc:	10006450 	.word	0x10006450

10002cd0 <timer_time_us_64>:
10002cd0:	4603      	mov	r3, r0
10002cd2:	6a41      	ldr	r1, [r0, #36]	@ 0x24
10002cd4:	460a      	mov	r2, r1
10002cd6:	6a98      	ldr	r0, [r3, #40]	@ 0x28
10002cd8:	6a59      	ldr	r1, [r3, #36]	@ 0x24
10002cda:	428a      	cmp	r2, r1
10002cdc:	d1fa      	bne.n	10002cd4 <timer_time_us_64+0x4>
10002cde:	4770      	bx	lr

10002ce0 <time_us_64>:
10002ce0:	4b03      	ldr	r3, [pc, #12]	@ (10002cf0 <time_us_64+0x10>)
10002ce2:	6a59      	ldr	r1, [r3, #36]	@ 0x24
10002ce4:	460a      	mov	r2, r1
10002ce6:	6a98      	ldr	r0, [r3, #40]	@ 0x28
10002ce8:	6a59      	ldr	r1, [r3, #36]	@ 0x24
10002cea:	4291      	cmp	r1, r2
10002cec:	d1fa      	bne.n	10002ce4 <time_us_64+0x4>
10002cee:	4770      	bx	lr
10002cf0:	400b0000 	.word	0x400b0000

10002cf4 <busy_wait_until>:
10002cf4:	4a07      	ldr	r2, [pc, #28]	@ (10002d14 <busy_wait_until+0x20>)
10002cf6:	6a53      	ldr	r3, [r2, #36]	@ 0x24
10002cf8:	4299      	cmp	r1, r3
10002cfa:	d8fc      	bhi.n	10002cf6 <busy_wait_until+0x2>
10002cfc:	4299      	cmp	r1, r3
10002cfe:	d107      	bne.n	10002d10 <busy_wait_until+0x1c>
10002d00:	4b04      	ldr	r3, [pc, #16]	@ (10002d14 <busy_wait_until+0x20>)
10002d02:	e002      	b.n	10002d0a <busy_wait_until+0x16>
10002d04:	6a5a      	ldr	r2, [r3, #36]	@ 0x24
10002d06:	4291      	cmp	r1, r2
10002d08:	d102      	bne.n	10002d10 <busy_wait_until+0x1c>
10002d0a:	6a9a      	ldr	r2, [r3, #40]	@ 0x28
10002d0c:	4290      	cmp	r0, r2
10002d0e:	d8f9      	bhi.n	10002d04 <busy_wait_until+0x10>
10002d10:	4770      	bx	lr
10002d12:	bf00      	nop
10002d14:	400b0000 	.word	0x400b0000

10002d18 <clock_configure_undivided>:
10002d18:	eb00 0c40 	add.w	ip, r0, r0, lsl #1
10002d1c:	ea4f 0c8c 	mov.w	ip, ip, lsl #2
10002d20:	f10c 4c80 	add.w	ip, ip, #1073741824	@ 0x40000000
10002d24:	f50c 3c80 	add.w	ip, ip, #65536	@ 0x10000
10002d28:	b5f0      	push	{r4, r5, r6, r7, lr}
10002d2a:	4616      	mov	r6, r2
10002d2c:	f8dc 2004 	ldr.w	r2, [ip, #4]
10002d30:	1f05      	subs	r5, r0, #4
10002d32:	f5b2 3f80 	cmp.w	r2, #65536	@ 0x10000
10002d36:	bf38      	it	cc
10002d38:	f44f 3280 	movcc.w	r2, #65536	@ 0x10000
10002d3c:	b2ed      	uxtb	r5, r5
10002d3e:	bf38      	it	cc
10002d40:	f8cc 2004 	strcc.w	r2, [ip, #4]
10002d44:	2d01      	cmp	r5, #1
10002d46:	d92a      	bls.n	10002d9e <clock_configure_undivided+0x86>
10002d48:	f44f 6700 	mov.w	r7, #2048	@ 0x800
10002d4c:	4c25      	ldr	r4, [pc, #148]	@ (10002de4 <clock_configure_undivided+0xcc>)
10002d4e:	f50c 5240 	add.w	r2, ip, #12288	@ 0x3000
10002d52:	6017      	str	r7, [r2, #0]
10002d54:	f854 2020 	ldr.w	r2, [r4, r0, lsl #2]
10002d58:	b9b2      	cbnz	r2, 10002d88 <clock_configure_undivided+0x70>
10002d5a:	f8dc 2000 	ldr.w	r2, [ip]
10002d5e:	2d01      	cmp	r5, #1
10002d60:	ea82 1246 	eor.w	r2, r2, r6, lsl #5
10002d64:	f002 02e0 	and.w	r2, r2, #224	@ 0xe0
10002d68:	f50c 5680 	add.w	r6, ip, #4096	@ 0x1000
10002d6c:	6032      	str	r2, [r6, #0]
10002d6e:	d92a      	bls.n	10002dc6 <clock_configure_undivided+0xae>
10002d70:	f44f 6100 	mov.w	r1, #2048	@ 0x800
10002d74:	f844 3020 	str.w	r3, [r4, r0, lsl #2]
10002d78:	f44f 3380 	mov.w	r3, #65536	@ 0x10000
10002d7c:	f50c 5200 	add.w	r2, ip, #8192	@ 0x2000
10002d80:	6011      	str	r1, [r2, #0]
10002d82:	f8cc 3004 	str.w	r3, [ip, #4]
10002d86:	bdf0      	pop	{r4, r5, r6, r7, pc}
10002d88:	6967      	ldr	r7, [r4, #20]
10002d8a:	fbb7 fef2 	udiv	lr, r7, r2
10002d8e:	f10e 0e01 	add.w	lr, lr, #1
10002d92:	eb0e 0e4e 	add.w	lr, lr, lr, lsl #1
10002d96:	f1be 0e03 	subs.w	lr, lr, #3
10002d9a:	d2fc      	bcs.n	10002d96 <clock_configure_undivided+0x7e>
10002d9c:	e7dd      	b.n	10002d5a <clock_configure_undivided+0x42>
10002d9e:	2901      	cmp	r1, #1
10002da0:	d1d2      	bne.n	10002d48 <clock_configure_undivided+0x30>
10002da2:	2403      	movs	r4, #3
10002da4:	f50c 5240 	add.w	r2, ip, #12288	@ 0x3000
10002da8:	6014      	str	r4, [r2, #0]
10002daa:	f8dc 2008 	ldr.w	r2, [ip, #8]
10002dae:	07d2      	lsls	r2, r2, #31
10002db0:	d5fb      	bpl.n	10002daa <clock_configure_undivided+0x92>
10002db2:	f8dc 2000 	ldr.w	r2, [ip]
10002db6:	4c0b      	ldr	r4, [pc, #44]	@ (10002de4 <clock_configure_undivided+0xcc>)
10002db8:	ea82 1246 	eor.w	r2, r2, r6, lsl #5
10002dbc:	f002 02e0 	and.w	r2, r2, #224	@ 0xe0
10002dc0:	f50c 5680 	add.w	r6, ip, #4096	@ 0x1000
10002dc4:	6032      	str	r2, [r6, #0]
10002dc6:	2201      	movs	r2, #1
10002dc8:	f8dc 5000 	ldr.w	r5, [ip]
10002dcc:	404d      	eors	r5, r1
10002dce:	f005 0503 	and.w	r5, r5, #3
10002dd2:	6035      	str	r5, [r6, #0]
10002dd4:	fa02 f101 	lsl.w	r1, r2, r1
10002dd8:	f8dc 2008 	ldr.w	r2, [ip, #8]
10002ddc:	420a      	tst	r2, r1
10002dde:	d0fb      	beq.n	10002dd8 <clock_configure_undivided+0xc0>
10002de0:	e7c6      	b.n	10002d70 <clock_configure_undivided+0x58>
10002de2:	bf00      	nop
10002de4:	20001058 	.word	0x20001058

10002de8 <clock_get_hz>:
10002de8:	4b01      	ldr	r3, [pc, #4]	@ (10002df0 <clock_get_hz+0x8>)
10002dea:	f853 0020 	ldr.w	r0, [r3, r0, lsl #2]
10002dee:	4770      	bx	lr
10002df0:	20001058 	.word	0x20001058

10002df4 <set_sys_clock_pll>:
10002df4:	4b58      	ldr	r3, [pc, #352]	@ (10002f58 <set_sys_clock_pll+0x164>)
10002df6:	e92d 43f0 	stmdb	sp!, {r4, r5, r6, r7, r8, r9, lr}
10002dfa:	6c1c      	ldr	r4, [r3, #64]	@ 0x40
10002dfc:	4617      	mov	r7, r2
10002dfe:	f5b4 3f80 	cmp.w	r4, #65536	@ 0x10000
10002e02:	bf38      	it	cc
10002e04:	f44f 3280 	movcc.w	r2, #65536	@ 0x10000
10002e08:	b083      	sub	sp, #12
10002e0a:	bf38      	it	cc
10002e0c:	641a      	strcc	r2, [r3, #64]	@ 0x40
10002e0e:	2203      	movs	r2, #3
10002e10:	4680      	mov	r8, r0
10002e12:	460e      	mov	r6, r1
10002e14:	4b51      	ldr	r3, [pc, #324]	@ (10002f5c <set_sys_clock_pll+0x168>)
10002e16:	4d50      	ldr	r5, [pc, #320]	@ (10002f58 <set_sys_clock_pll+0x164>)
10002e18:	63da      	str	r2, [r3, #60]	@ 0x3c
10002e1a:	6c6c      	ldr	r4, [r5, #68]	@ 0x44
10002e1c:	07e3      	lsls	r3, r4, #31
10002e1e:	d5fc      	bpl.n	10002e1a <set_sys_clock_pll+0x26>
10002e20:	6beb      	ldr	r3, [r5, #60]	@ 0x3c
10002e22:	4a4f      	ldr	r2, [pc, #316]	@ (10002f60 <set_sys_clock_pll+0x16c>)
10002e24:	f083 0320 	eor.w	r3, r3, #32
10002e28:	f003 03e0 	and.w	r3, r3, #224	@ 0xe0
10002e2c:	63d3      	str	r3, [r2, #60]	@ 0x3c
10002e2e:	6beb      	ldr	r3, [r5, #60]	@ 0x3c
10002e30:	4d49      	ldr	r5, [pc, #292]	@ (10002f58 <set_sys_clock_pll+0x164>)
10002e32:	f083 0301 	eor.w	r3, r3, #1
10002e36:	f003 0303 	and.w	r3, r3, #3
10002e3a:	63d3      	str	r3, [r2, #60]	@ 0x3c
10002e3c:	6c6c      	ldr	r4, [r5, #68]	@ 0x44
10002e3e:	07a4      	lsls	r4, r4, #30
10002e40:	d5fc      	bpl.n	10002e3c <set_sys_clock_pll+0x48>
10002e42:	f44f 6200 	mov.w	r2, #2048	@ 0x800
10002e46:	f44f 3980 	mov.w	r9, #65536	@ 0x10000
10002e4a:	4b46      	ldr	r3, [pc, #280]	@ (10002f64 <set_sys_clock_pll+0x170>)
10002e4c:	4c46      	ldr	r4, [pc, #280]	@ (10002f68 <set_sys_clock_pll+0x174>)
10002e4e:	63da      	str	r2, [r3, #60]	@ 0x3c
10002e50:	4b46      	ldr	r3, [pc, #280]	@ (10002f6c <set_sys_clock_pll+0x178>)
10002e52:	4642      	mov	r2, r8
10002e54:	6163      	str	r3, [r4, #20]
10002e56:	2101      	movs	r1, #1
10002e58:	4633      	mov	r3, r6
10002e5a:	f8c5 9040 	str.w	r9, [r5, #64]	@ 0x40
10002e5e:	4844      	ldr	r0, [pc, #272]	@ (10002f70 <set_sys_clock_pll+0x17c>)
10002e60:	9700      	str	r7, [sp, #0]
10002e62:	f000 f957 	bl	10003114 <pll_init>
10002e66:	f44f 6100 	mov.w	r1, #2048	@ 0x800
10002e6a:	6b6b      	ldr	r3, [r5, #52]	@ 0x34
10002e6c:	fb07 f606 	mul.w	r6, r7, r6
10002e70:	454b      	cmp	r3, r9
10002e72:	bf38      	it	cc
10002e74:	f8c5 9034 	strcc.w	r9, [r5, #52]	@ 0x34
10002e78:	4b38      	ldr	r3, [pc, #224]	@ (10002f5c <set_sys_clock_pll+0x168>)
10002e7a:	6922      	ldr	r2, [r4, #16]
10002e7c:	fbb8 f6f6 	udiv	r6, r8, r6
10002e80:	6319      	str	r1, [r3, #48]	@ 0x30
10002e82:	b13a      	cbz	r2, 10002e94 <set_sys_clock_pll+0xa0>
10002e84:	6963      	ldr	r3, [r4, #20]
10002e86:	fbb3 f3f2 	udiv	r3, r3, r2
10002e8a:	3301      	adds	r3, #1
10002e8c:	eb03 0343 	add.w	r3, r3, r3, lsl #1
10002e90:	3b03      	subs	r3, #3
10002e92:	d2fd      	bcs.n	10002e90 <set_sys_clock_pll+0x9c>
10002e94:	4930      	ldr	r1, [pc, #192]	@ (10002f58 <set_sys_clock_pll+0x164>)
10002e96:	4a32      	ldr	r2, [pc, #200]	@ (10002f60 <set_sys_clock_pll+0x16c>)
10002e98:	6b0b      	ldr	r3, [r1, #48]	@ 0x30
10002e9a:	f003 03e0 	and.w	r3, r3, #224	@ 0xe0
10002e9e:	6313      	str	r3, [r2, #48]	@ 0x30
10002ea0:	6b0b      	ldr	r3, [r1, #48]	@ 0x30
10002ea2:	f083 0302 	eor.w	r3, r3, #2
10002ea6:	f003 0303 	and.w	r3, r3, #3
10002eaa:	6313      	str	r3, [r2, #48]	@ 0x30
10002eac:	6b8b      	ldr	r3, [r1, #56]	@ 0x38
10002eae:	0758      	lsls	r0, r3, #29
10002eb0:	d5fc      	bpl.n	10002eac <set_sys_clock_pll+0xb8>
10002eb2:	f44f 6500 	mov.w	r5, #2048	@ 0x800
10002eb6:	f44f 3380 	mov.w	r3, #65536	@ 0x10000
10002eba:	4a2a      	ldr	r2, [pc, #168]	@ (10002f64 <set_sys_clock_pll+0x170>)
10002ebc:	6315      	str	r5, [r2, #48]	@ 0x30
10002ebe:	4a2d      	ldr	r2, [pc, #180]	@ (10002f74 <set_sys_clock_pll+0x180>)
10002ec0:	634b      	str	r3, [r1, #52]	@ 0x34
10002ec2:	6122      	str	r2, [r4, #16]
10002ec4:	6c0a      	ldr	r2, [r1, #64]	@ 0x40
10002ec6:	429a      	cmp	r2, r3
10002ec8:	f04f 0203 	mov.w	r2, #3
10002ecc:	bf38      	it	cc
10002ece:	640b      	strcc	r3, [r1, #64]	@ 0x40
10002ed0:	4b22      	ldr	r3, [pc, #136]	@ (10002f5c <set_sys_clock_pll+0x168>)
10002ed2:	4921      	ldr	r1, [pc, #132]	@ (10002f58 <set_sys_clock_pll+0x164>)
10002ed4:	63da      	str	r2, [r3, #60]	@ 0x3c
10002ed6:	6c4b      	ldr	r3, [r1, #68]	@ 0x44
10002ed8:	07da      	lsls	r2, r3, #31
10002eda:	d5fc      	bpl.n	10002ed6 <set_sys_clock_pll+0xe2>
10002edc:	6bcb      	ldr	r3, [r1, #60]	@ 0x3c
10002ede:	4a20      	ldr	r2, [pc, #128]	@ (10002f60 <set_sys_clock_pll+0x16c>)
10002ee0:	f003 03e0 	and.w	r3, r3, #224	@ 0xe0
10002ee4:	63d3      	str	r3, [r2, #60]	@ 0x3c
10002ee6:	6bcb      	ldr	r3, [r1, #60]	@ 0x3c
10002ee8:	491b      	ldr	r1, [pc, #108]	@ (10002f58 <set_sys_clock_pll+0x164>)
10002eea:	f083 0301 	eor.w	r3, r3, #1
10002eee:	f003 0303 	and.w	r3, r3, #3
10002ef2:	63d3      	str	r3, [r2, #60]	@ 0x3c
10002ef4:	6c4b      	ldr	r3, [r1, #68]	@ 0x44
10002ef6:	079b      	lsls	r3, r3, #30
10002ef8:	d5fc      	bpl.n	10002ef4 <set_sys_clock_pll+0x100>
10002efa:	f44f 3380 	mov.w	r3, #65536	@ 0x10000
10002efe:	f44f 6500 	mov.w	r5, #2048	@ 0x800
10002f02:	4a18      	ldr	r2, [pc, #96]	@ (10002f64 <set_sys_clock_pll+0x170>)
10002f04:	6166      	str	r6, [r4, #20]
10002f06:	63d5      	str	r5, [r2, #60]	@ 0x3c
10002f08:	640b      	str	r3, [r1, #64]	@ 0x40
10002f0a:	6cca      	ldr	r2, [r1, #76]	@ 0x4c
10002f0c:	429a      	cmp	r2, r3
10002f0e:	bf38      	it	cc
10002f10:	64cb      	strcc	r3, [r1, #76]	@ 0x4c
10002f12:	f44f 6100 	mov.w	r1, #2048	@ 0x800
10002f16:	4b11      	ldr	r3, [pc, #68]	@ (10002f5c <set_sys_clock_pll+0x168>)
10002f18:	69a2      	ldr	r2, [r4, #24]
10002f1a:	6499      	str	r1, [r3, #72]	@ 0x48
10002f1c:	b13a      	cbz	r2, 10002f2e <set_sys_clock_pll+0x13a>
10002f1e:	6963      	ldr	r3, [r4, #20]
10002f20:	fbb3 f3f2 	udiv	r3, r3, r2
10002f24:	3301      	adds	r3, #1
10002f26:	eb03 0343 	add.w	r3, r3, r3, lsl #1
10002f2a:	3b03      	subs	r3, #3
10002f2c:	d2fd      	bcs.n	10002f2a <set_sys_clock_pll+0x136>
10002f2e:	f44f 6000 	mov.w	r0, #2048	@ 0x800
10002f32:	f44f 3180 	mov.w	r1, #65536	@ 0x10000
10002f36:	4a08      	ldr	r2, [pc, #32]	@ (10002f58 <set_sys_clock_pll+0x164>)
10002f38:	4d09      	ldr	r5, [pc, #36]	@ (10002f60 <set_sys_clock_pll+0x16c>)
10002f3a:	6c93      	ldr	r3, [r2, #72]	@ 0x48
10002f3c:	f083 0340 	eor.w	r3, r3, #64	@ 0x40
10002f40:	f003 03e0 	and.w	r3, r3, #224	@ 0xe0
10002f44:	64ab      	str	r3, [r5, #72]	@ 0x48
10002f46:	4b07      	ldr	r3, [pc, #28]	@ (10002f64 <set_sys_clock_pll+0x170>)
10002f48:	4d08      	ldr	r5, [pc, #32]	@ (10002f6c <set_sys_clock_pll+0x178>)
10002f4a:	61a5      	str	r5, [r4, #24]
10002f4c:	6498      	str	r0, [r3, #72]	@ 0x48
10002f4e:	64d1      	str	r1, [r2, #76]	@ 0x4c
10002f50:	b003      	add	sp, #12
10002f52:	e8bd 83f0 	ldmia.w	sp!, {r4, r5, r6, r7, r8, r9, pc}
10002f56:	bf00      	nop
10002f58:	40010000 	.word	0x40010000
10002f5c:	40013000 	.word	0x40013000
10002f60:	40011000 	.word	0x40011000
10002f64:	40012000 	.word	0x40012000
10002f68:	20001058 	.word	0x20001058
10002f6c:	02dc6c00 	.word	0x02dc6c00
10002f70:	40050000 	.word	0x40050000
10002f74:	00b71b00 	.word	0x00b71b00

10002f78 <check_sys_clock_khz>:
10002f78:	e92d 4ff0 	stmdb	sp!, {r4, r5, r6, r7, r8, r9, sl, fp, lr}
10002f7c:	f44f 78a0 	mov.w	r8, #320	@ 0x140
10002f80:	4699      	mov	r9, r3
10002f82:	b085      	sub	sp, #20
10002f84:	e9cd 1202 	strd	r1, r2, [sp, #8]
10002f88:	4c5f      	ldr	r4, [pc, #380]	@ (10003108 <check_sys_clock_khz+0x190>)
10002f8a:	f8df a184 	ldr.w	sl, [pc, #388]	@ 10003110 <check_sys_clock_khz+0x198>
10002f8e:	4554      	cmp	r4, sl
10002f90:	d90a      	bls.n	10002fa8 <check_sys_clock_khz+0x30>
10002f92:	f108 38ff 	add.w	r8, r8, #4294967295	@ 0xffffffff
10002f96:	f5a4 543b 	sub.w	r4, r4, #11968	@ 0x2ec0
10002f9a:	f1b8 0f0f 	cmp.w	r8, #15
10002f9e:	f1a4 0420 	sub.w	r4, r4, #32
10002fa2:	d1f4      	bne.n	10002f8e <check_sys_clock_khz+0x16>
10002fa4:	2000      	movs	r0, #0
10002fa6:	e069      	b.n	1000307c <check_sys_clock_khz+0x104>
10002fa8:	2307      	movs	r3, #7
10002faa:	f504 2237 	add.w	r2, r4, #749568	@ 0xb7000
10002fae:	9401      	str	r4, [sp, #4]
10002fb0:	fb03 f403 	mul.w	r4, r3, r3
10002fb4:	f502 72d8 	add.w	r2, r2, #432	@ 0x1b0
10002fb8:	fbb2 fef4 	udiv	lr, r2, r4
10002fbc:	4570      	cmp	r0, lr
10002fbe:	f04f 0c01 	mov.w	ip, #1
10002fc2:	f04f 0702 	mov.w	r7, #2
10002fc6:	f04f 0603 	mov.w	r6, #3
10002fca:	f04f 0504 	mov.w	r5, #4
10002fce:	f04f 0105 	mov.w	r1, #5
10002fd2:	d03f      	beq.n	10003054 <check_sys_clock_khz+0xdc>
10002fd4:	f1b3 0e01 	subs.w	lr, r3, #1
10002fd8:	f000 8094 	beq.w	10003104 <check_sys_clock_khz+0x18c>
10002fdc:	fb0e f403 	mul.w	r4, lr, r3
10002fe0:	fbb2 fbf4 	udiv	fp, r2, r4
10002fe4:	4558      	cmp	r0, fp
10002fe6:	d04c      	beq.n	10003082 <check_sys_clock_khz+0x10a>
10002fe8:	b319      	cbz	r1, 10003032 <check_sys_clock_khz+0xba>
10002fea:	fb01 f403 	mul.w	r4, r1, r3
10002fee:	fbb2 fbf4 	udiv	fp, r2, r4
10002ff2:	4558      	cmp	r0, fp
10002ff4:	d04f      	beq.n	10003096 <check_sys_clock_khz+0x11e>
10002ff6:	b1e5      	cbz	r5, 10003032 <check_sys_clock_khz+0xba>
10002ff8:	fb05 f403 	mul.w	r4, r5, r3
10002ffc:	fbb2 fbf4 	udiv	fp, r2, r4
10003000:	4558      	cmp	r0, fp
10003002:	d053      	beq.n	100030ac <check_sys_clock_khz+0x134>
10003004:	b1ae      	cbz	r6, 10003032 <check_sys_clock_khz+0xba>
10003006:	fb06 f403 	mul.w	r4, r6, r3
1000300a:	fbb2 fbf4 	udiv	fp, r2, r4
1000300e:	4558      	cmp	r0, fp
10003010:	d057      	beq.n	100030c2 <check_sys_clock_khz+0x14a>
10003012:	b177      	cbz	r7, 10003032 <check_sys_clock_khz+0xba>
10003014:	fb07 f403 	mul.w	r4, r7, r3
10003018:	fbb2 fbf4 	udiv	fp, r2, r4
1000301c:	4558      	cmp	r0, fp
1000301e:	d05b      	beq.n	100030d8 <check_sys_clock_khz+0x160>
10003020:	f1bc 0f00 	cmp.w	ip, #0
10003024:	d005      	beq.n	10003032 <check_sys_clock_khz+0xba>
10003026:	fb0c f403 	mul.w	r4, ip, r3
1000302a:	fbb2 fbf4 	udiv	fp, r2, r4
1000302e:	4583      	cmp	fp, r0
10003030:	d05d      	beq.n	100030ee <check_sys_clock_khz+0x176>
10003032:	4673      	mov	r3, lr
10003034:	fb03 f403 	mul.w	r4, r3, r3
10003038:	fbb2 fef4 	udiv	lr, r2, r4
1000303c:	4570      	cmp	r0, lr
1000303e:	f101 31ff 	add.w	r1, r1, #4294967295	@ 0xffffffff
10003042:	f105 35ff 	add.w	r5, r5, #4294967295	@ 0xffffffff
10003046:	f106 36ff 	add.w	r6, r6, #4294967295	@ 0xffffffff
1000304a:	f107 37ff 	add.w	r7, r7, #4294967295	@ 0xffffffff
1000304e:	f10c 3cff 	add.w	ip, ip, #4294967295	@ 0xffffffff
10003052:	d1bf      	bne.n	10002fd4 <check_sys_clock_khz+0x5c>
10003054:	fb04 2410 	mls	r4, r4, r0, r2
10003058:	2c00      	cmp	r4, #0
1000305a:	d1bb      	bne.n	10002fd4 <check_sys_clock_khz+0x5c>
1000305c:	469e      	mov	lr, r3
1000305e:	464a      	mov	r2, r9
10003060:	f8dd b008 	ldr.w	fp, [sp, #8]
10003064:	f8dd 900c 	ldr.w	r9, [sp, #12]
10003068:	2001      	movs	r0, #1
1000306a:	4928      	ldr	r1, [pc, #160]	@ (1000310c <check_sys_clock_khz+0x194>)
1000306c:	fb01 f108 	mul.w	r1, r1, r8
10003070:	f8cb 1000 	str.w	r1, [fp]
10003074:	f8c9 3000 	str.w	r3, [r9]
10003078:	f8c2 e000 	str.w	lr, [r2]
1000307c:	b005      	add	sp, #20
1000307e:	e8bd 8ff0 	ldmia.w	sp!, {r4, r5, r6, r7, r8, r9, sl, fp, pc}
10003082:	fb04 2410 	mls	r4, r4, r0, r2
10003086:	2c00      	cmp	r4, #0
10003088:	d1ae      	bne.n	10002fe8 <check_sys_clock_khz+0x70>
1000308a:	464a      	mov	r2, r9
1000308c:	f8dd b008 	ldr.w	fp, [sp, #8]
10003090:	f8dd 900c 	ldr.w	r9, [sp, #12]
10003094:	e7e8      	b.n	10003068 <check_sys_clock_khz+0xf0>
10003096:	fb04 2410 	mls	r4, r4, r0, r2
1000309a:	2c00      	cmp	r4, #0
1000309c:	d1ab      	bne.n	10002ff6 <check_sys_clock_khz+0x7e>
1000309e:	464a      	mov	r2, r9
100030a0:	468e      	mov	lr, r1
100030a2:	f8dd b008 	ldr.w	fp, [sp, #8]
100030a6:	f8dd 900c 	ldr.w	r9, [sp, #12]
100030aa:	e7dd      	b.n	10003068 <check_sys_clock_khz+0xf0>
100030ac:	fb04 2410 	mls	r4, r4, r0, r2
100030b0:	2c00      	cmp	r4, #0
100030b2:	d1a7      	bne.n	10003004 <check_sys_clock_khz+0x8c>
100030b4:	464a      	mov	r2, r9
100030b6:	46ae      	mov	lr, r5
100030b8:	f8dd b008 	ldr.w	fp, [sp, #8]
100030bc:	f8dd 900c 	ldr.w	r9, [sp, #12]
100030c0:	e7d2      	b.n	10003068 <check_sys_clock_khz+0xf0>
100030c2:	fb04 2410 	mls	r4, r4, r0, r2
100030c6:	2c00      	cmp	r4, #0
100030c8:	d1a3      	bne.n	10003012 <check_sys_clock_khz+0x9a>
100030ca:	464a      	mov	r2, r9
100030cc:	46b6      	mov	lr, r6
100030ce:	f8dd b008 	ldr.w	fp, [sp, #8]
100030d2:	f8dd 900c 	ldr.w	r9, [sp, #12]
100030d6:	e7c7      	b.n	10003068 <check_sys_clock_khz+0xf0>
100030d8:	fb04 2410 	mls	r4, r4, r0, r2
100030dc:	2c00      	cmp	r4, #0
100030de:	d19f      	bne.n	10003020 <check_sys_clock_khz+0xa8>
100030e0:	464a      	mov	r2, r9
100030e2:	46be      	mov	lr, r7
100030e4:	f8dd b008 	ldr.w	fp, [sp, #8]
100030e8:	f8dd 900c 	ldr.w	r9, [sp, #12]
100030ec:	e7bc      	b.n	10003068 <check_sys_clock_khz+0xf0>
100030ee:	fb04 2410 	mls	r4, r4, r0, r2
100030f2:	2c00      	cmp	r4, #0
100030f4:	d19d      	bne.n	10003032 <check_sys_clock_khz+0xba>
100030f6:	464a      	mov	r2, r9
100030f8:	46e6      	mov	lr, ip
100030fa:	f8dd b008 	ldr.w	fp, [sp, #8]
100030fe:	f8dd 900c 	ldr.w	r9, [sp, #12]
10003102:	e7b1      	b.n	10003068 <check_sys_clock_khz+0xf0>
10003104:	9c01      	ldr	r4, [sp, #4]
10003106:	e744      	b.n	10002f92 <check_sys_clock_khz+0x1a>
10003108:	002f2650 	.word	0x002f2650
1000310c:	00b71b00 	.word	0x00b71b00
10003110:	000cf850 	.word	0x000cf850

10003114 <pll_init>:
10003114:	b470      	push	{r4, r5, r6}
10003116:	9d03      	ldr	r5, [sp, #12]
10003118:	6804      	ldr	r4, [r0, #0]
1000311a:	032d      	lsls	r5, r5, #12
1000311c:	ea45 4503 	orr.w	r5, r5, r3, lsl #16
10003120:	4b1b      	ldr	r3, [pc, #108]	@ (10003190 <pll_init+0x7c>)
10003122:	2c00      	cmp	r4, #0
10003124:	fbb3 f3f1 	udiv	r3, r3, r1
10003128:	fbb2 f6f3 	udiv	r6, r2, r3
1000312c:	db1f      	blt.n	1000316e <pll_init+0x5a>
1000312e:	4a19      	ldr	r2, [pc, #100]	@ (10003194 <pll_init+0x80>)
10003130:	4b19      	ldr	r3, [pc, #100]	@ (10003198 <pll_init+0x84>)
10003132:	4290      	cmp	r0, r2
10003134:	bf14      	ite	ne
10003136:	f44f 4280 	movne.w	r2, #16384	@ 0x4000
1000313a:	f44f 4200 	moveq.w	r2, #32768	@ 0x8000
1000313e:	4c17      	ldr	r4, [pc, #92]	@ (1000319c <pll_init+0x88>)
10003140:	601a      	str	r2, [r3, #0]
10003142:	f503 5380 	add.w	r3, r3, #4096	@ 0x1000
10003146:	601a      	str	r2, [r3, #0]
10003148:	68a3      	ldr	r3, [r4, #8]
1000314a:	ea32 0303 	bics.w	r3, r2, r3
1000314e:	d1fb      	bne.n	10003148 <pll_init+0x34>
10003150:	2221      	movs	r2, #33	@ 0x21
10003152:	f500 5340 	add.w	r3, r0, #12288	@ 0x3000
10003156:	3304      	adds	r3, #4
10003158:	6001      	str	r1, [r0, #0]
1000315a:	6086      	str	r6, [r0, #8]
1000315c:	601a      	str	r2, [r3, #0]
1000315e:	6802      	ldr	r2, [r0, #0]
10003160:	2a00      	cmp	r2, #0
10003162:	dafc      	bge.n	1000315e <pll_init+0x4a>
10003164:	2208      	movs	r2, #8
10003166:	60c5      	str	r5, [r0, #12]
10003168:	601a      	str	r2, [r3, #0]
1000316a:	bc70      	pop	{r4, r5, r6}
1000316c:	4770      	bx	lr
1000316e:	6803      	ldr	r3, [r0, #0]
10003170:	f003 033f 	and.w	r3, r3, #63	@ 0x3f
10003174:	428b      	cmp	r3, r1
10003176:	d1da      	bne.n	1000312e <pll_init+0x1a>
10003178:	6883      	ldr	r3, [r0, #8]
1000317a:	f3c3 030b 	ubfx	r3, r3, #0, #12
1000317e:	42b3      	cmp	r3, r6
10003180:	d1d5      	bne.n	1000312e <pll_init+0x1a>
10003182:	68c3      	ldr	r3, [r0, #12]
10003184:	f403 23ee 	and.w	r3, r3, #487424	@ 0x77000
10003188:	42ab      	cmp	r3, r5
1000318a:	d1d0      	bne.n	1000312e <pll_init+0x1a>
1000318c:	e7ed      	b.n	1000316a <pll_init+0x56>
1000318e:	bf00      	nop
10003190:	00b71b00 	.word	0x00b71b00
10003194:	40058000 	.word	0x40058000
10003198:	40022000 	.word	0x40022000
1000319c:	40020000 	.word	0x40020000

100031a0 <watchdog_reboot>:
100031a0:	b430      	push	{r4, r5}
100031a2:	f04f 4480 	mov.w	r4, #1073741824	@ 0x40000000
100031a6:	4b1c      	ldr	r3, [pc, #112]	@ (10003218 <watchdog_reboot+0x78>)
100031a8:	601c      	str	r4, [r3, #0]
100031aa:	b1e0      	cbz	r0, 100031e6 <watchdog_reboot+0x46>
100031ac:	4c1b      	ldr	r4, [pc, #108]	@ (1000321c <watchdog_reboot+0x7c>)
100031ae:	f5a3 5340 	sub.w	r3, r3, #12288	@ 0x3000
100031b2:	61dc      	str	r4, [r3, #28]
100031b4:	4c1a      	ldr	r4, [pc, #104]	@ (10003220 <watchdog_reboot+0x80>)
100031b6:	f040 0001 	orr.w	r0, r0, #1
100031ba:	4044      	eors	r4, r0
100031bc:	621c      	str	r4, [r3, #32]
100031be:	6259      	str	r1, [r3, #36]	@ 0x24
100031c0:	6298      	str	r0, [r3, #40]	@ 0x28
100031c2:	f04f 4580 	mov.w	r5, #1073741824	@ 0x40000000
100031c6:	f04f 61e0 	mov.w	r1, #117440512	@ 0x7000000
100031ca:	4b13      	ldr	r3, [pc, #76]	@ (10003218 <watchdog_reboot+0x78>)
100031cc:	4815      	ldr	r0, [pc, #84]	@ (10003224 <watchdog_reboot+0x84>)
100031ce:	4c16      	ldr	r4, [pc, #88]	@ (10003228 <watchdog_reboot+0x88>)
100031d0:	601d      	str	r5, [r3, #0]
100031d2:	6084      	str	r4, [r0, #8]
100031d4:	6019      	str	r1, [r3, #0]
100031d6:	b94a      	cbnz	r2, 100031ec <watchdog_reboot+0x4c>
100031d8:	bc30      	pop	{r4, r5}
100031da:	f04f 4200 	mov.w	r2, #2147483648	@ 0x80000000
100031de:	f5a3 5380 	sub.w	r3, r3, #4096	@ 0x1000
100031e2:	601a      	str	r2, [r3, #0]
100031e4:	4770      	bx	lr
100031e6:	4b11      	ldr	r3, [pc, #68]	@ (1000322c <watchdog_reboot+0x8c>)
100031e8:	61d8      	str	r0, [r3, #28]
100031ea:	e7ea      	b.n	100031c2 <watchdog_reboot+0x22>
100031ec:	f44f 737a 	mov.w	r3, #1000	@ 0x3e8
100031f0:	fb03 f202 	mul.w	r2, r3, r2
100031f4:	f1b2 7f80 	cmp.w	r2, #16777216	@ 0x1000000
100031f8:	bf2a      	itet	cs
100031fa:	f06f 437f 	mvncs.w	r3, #4278190080	@ 0xff000000
100031fe:	4613      	movcc	r3, r2
10003200:	461a      	movcs	r2, r3
10003202:	f04f 4180 	mov.w	r1, #1073741824	@ 0x40000000
10003206:	4c0a      	ldr	r4, [pc, #40]	@ (10003230 <watchdog_reboot+0x90>)
10003208:	4808      	ldr	r0, [pc, #32]	@ (1000322c <watchdog_reboot+0x8c>)
1000320a:	6023      	str	r3, [r4, #0]
1000320c:	4b09      	ldr	r3, [pc, #36]	@ (10003234 <watchdog_reboot+0x94>)
1000320e:	6042      	str	r2, [r0, #4]
10003210:	bc30      	pop	{r4, r5}
10003212:	6019      	str	r1, [r3, #0]
10003214:	4770      	bx	lr
10003216:	bf00      	nop
10003218:	400db000 	.word	0x400db000
1000321c:	b007c0d3 	.word	0xb007c0d3
10003220:	4ff83f2d 	.word	0x4ff83f2d
10003224:	4001a000 	.word	0x4001a000
10003228:	01fffff3 	.word	0x01fffff3
1000322c:	400d8000 	.word	0x400d8000
10003230:	200010ac 	.word	0x200010ac
10003234:	400da000 	.word	0x400da000

10003238 <tick_start>:
10003238:	2301      	movs	r3, #1
1000323a:	eb00 0040 	add.w	r0, r0, r0, lsl #1
1000323e:	0080      	lsls	r0, r0, #2
10003240:	f100 4080 	add.w	r0, r0, #1073741824	@ 0x40000000
10003244:	f500 1084 	add.w	r0, r0, #1081344	@ 0x108000
10003248:	6041      	str	r1, [r0, #4]
1000324a:	6003      	str	r3, [r0, #0]
1000324c:	4770      	bx	lr
1000324e:	bf00      	nop

10003250 <rom_func_lookup>:
10003250:	2300      	movs	r3, #0
10003252:	8adb      	ldrh	r3, [r3, #22]
10003254:	2200      	movs	r2, #0
10003256:	e842 f200 	tt	r2, r2
1000325a:	0252      	lsls	r2, r2, #9
1000325c:	d401      	bmi.n	10003262 <rom_func_lookup+0x12>
1000325e:	2110      	movs	r1, #16
10003260:	4718      	bx	r3
10003262:	2104      	movs	r1, #4
10003264:	4718      	bx	r3
10003266:	bf00      	nop

10003268 <runtime_init_bootrom_locking_enable>:
10003268:	4a03      	ldr	r2, [pc, #12]	@ (10003278 <runtime_init_bootrom_locking_enable+0x10>)
1000326a:	f8d2 3828 	ldr.w	r3, [r2, #2088]	@ 0x828
1000326e:	2b00      	cmp	r3, #0
10003270:	d0fb      	beq.n	1000326a <runtime_init_bootrom_locking_enable+0x2>
10003272:	f3bf 8f5f 	dmb	sy
10003276:	4770      	bx	lr
10003278:	400e0000 	.word	0x400e0000

1000327c <runtime_init_boot_locks_reset>:
1000327c:	2100      	movs	r1, #0
1000327e:	4b04      	ldr	r3, [pc, #16]	@ (10003290 <runtime_init_boot_locks_reset+0x14>)
10003280:	4a04      	ldr	r2, [pc, #16]	@ (10003294 <runtime_init_boot_locks_reset+0x18>)
10003282:	f3bf 8f5f 	dmb	sy
10003286:	f843 1b04 	str.w	r1, [r3], #4
1000328a:	4293      	cmp	r3, r2
1000328c:	d1f9      	bne.n	10003282 <runtime_init_boot_locks_reset+0x6>
1000328e:	4770      	bx	lr
10003290:	400e080c 	.word	0x400e080c
10003294:	400e082c 	.word	0x400e082c

10003298 <xosc_init>:
10003298:	b410      	push	{r4}
1000329a:	f44f 708d 	mov.w	r0, #282	@ 0x11a
1000329e:	f44f 642a 	mov.w	r4, #2720	@ 0xaa0
100032a2:	4a06      	ldr	r2, [pc, #24]	@ (100032bc <xosc_init+0x24>)
100032a4:	4b06      	ldr	r3, [pc, #24]	@ (100032c0 <xosc_init+0x28>)
100032a6:	4907      	ldr	r1, [pc, #28]	@ (100032c4 <xosc_init+0x2c>)
100032a8:	6014      	str	r4, [r2, #0]
100032aa:	60d0      	str	r0, [r2, #12]
100032ac:	6019      	str	r1, [r3, #0]
100032ae:	6853      	ldr	r3, [r2, #4]
100032b0:	2b00      	cmp	r3, #0
100032b2:	dafc      	bge.n	100032ae <xosc_init+0x16>
100032b4:	f85d 4b04 	ldr.w	r4, [sp], #4
100032b8:	4770      	bx	lr
100032ba:	bf00      	nop
100032bc:	40048000 	.word	0x40048000
100032c0:	4004a000 	.word	0x4004a000
100032c4:	00fab000 	.word	0x00fab000

100032c8 <first_per_core_initializer>:
100032c8:	4770      	bx	lr
100032ca:	bf00      	nop

100032cc <hard_assertion_failure>:
100032cc:	b508      	push	{r3, lr}
100032ce:	4801      	ldr	r0, [pc, #4]	@ (100032d4 <hard_assertion_failure+0x8>)
100032d0:	f7fe ff12 	bl	100020f8 <panic>
100032d4:	10006474 	.word	0x10006474

100032d8 <runtime_run_initializers>:
100032d8:	b538      	push	{r3, r4, r5, lr}
100032da:	4c05      	ldr	r4, [pc, #20]	@ (100032f0 <runtime_run_initializers+0x18>)
100032dc:	4d05      	ldr	r5, [pc, #20]	@ (100032f4 <runtime_run_initializers+0x1c>)
100032de:	42ac      	cmp	r4, r5
100032e0:	d204      	bcs.n	100032ec <runtime_run_initializers+0x14>
100032e2:	f854 3b04 	ldr.w	r3, [r4], #4
100032e6:	4798      	blx	r3
100032e8:	42ac      	cmp	r4, r5
100032ea:	d3fa      	bcc.n	100032e2 <runtime_run_initializers+0xa>
100032ec:	bd38      	pop	{r3, r4, r5, pc}
100032ee:	bf00      	nop
100032f0:	10006160 	.word	0x10006160
100032f4:	100061a0 	.word	0x100061a0

100032f8 <runtime_init_early_resets>:
100032f8:	b410      	push	{r4}
100032fa:	4807      	ldr	r0, [pc, #28]	@ (10003318 <runtime_init_early_resets+0x20>)
100032fc:	4c07      	ldr	r4, [pc, #28]	@ (1000331c <runtime_init_early_resets+0x24>)
100032fe:	4b08      	ldr	r3, [pc, #32]	@ (10003320 <runtime_init_early_resets+0x28>)
10003300:	4a08      	ldr	r2, [pc, #32]	@ (10003324 <runtime_init_early_resets+0x2c>)
10003302:	4909      	ldr	r1, [pc, #36]	@ (10003328 <runtime_init_early_resets+0x30>)
10003304:	6004      	str	r4, [r0, #0]
10003306:	601a      	str	r2, [r3, #0]
10003308:	688b      	ldr	r3, [r1, #8]
1000330a:	ea32 0303 	bics.w	r3, r2, r3
1000330e:	d1fb      	bne.n	10003308 <runtime_init_early_resets+0x10>
10003310:	f85d 4b04 	ldr.w	r4, [sp], #4
10003314:	4770      	bx	lr
10003316:	bf00      	nop
10003318:	40022000 	.word	0x40022000
1000331c:	efef3b7f 	.word	0xefef3b7f
10003320:	40023000 	.word	0x40023000
10003324:	03f3fff6 	.word	0x03f3fff6
10003328:	40020000 	.word	0x40020000

1000332c <runtime_init_usb_power_down>:
1000332c:	4b04      	ldr	r3, [pc, #16]	@ (10003340 <runtime_init_usb_power_down+0x14>)
1000332e:	6cdb      	ldr	r3, [r3, #76]	@ 0x4c
10003330:	f5b3 4f00 	cmp.w	r3, #32768	@ 0x8000
10003334:	d103      	bne.n	1000333e <runtime_init_usb_power_down+0x12>
10003336:	f44f 2280 	mov.w	r2, #262144	@ 0x40000
1000333a:	4b02      	ldr	r3, [pc, #8]	@ (10003344 <runtime_init_usb_power_down+0x18>)
1000333c:	64da      	str	r2, [r3, #76]	@ 0x4c
1000333e:	4770      	bx	lr
10003340:	50110000 	.word	0x50110000
10003344:	50112000 	.word	0x50112000

10003348 <runtime_init_per_core_enable_coprocessors>:
10003348:	f04f 22e0 	mov.w	r2, #3758153728	@ 0xe000e000
1000334c:	4b04      	ldr	r3, [pc, #16]	@ (10003360 <runtime_init_per_core_enable_coprocessors+0x18>)
1000334e:	f8d2 1d88 	ldr.w	r1, [r2, #3464]	@ 0xd88
10003352:	430b      	orrs	r3, r1
10003354:	f8c2 3d88 	str.w	r3, [r2, #3464]	@ 0xd88
10003358:	ee10 0430 			dcp_rcmp r0
1000335c:	4770      	bx	lr
1000335e:	bf00      	nop
10003360:	00300303 	.word	0x00300303

10003364 <runtime_init_post_clock_resets>:
10003364:	f06f 4160 	mvn.w	r1, #3758096384	@ 0xe0000000
10003368:	4b04      	ldr	r3, [pc, #16]	@ (1000337c <runtime_init_post_clock_resets+0x18>)
1000336a:	4a05      	ldr	r2, [pc, #20]	@ (10003380 <runtime_init_post_clock_resets+0x1c>)
1000336c:	6019      	str	r1, [r3, #0]
1000336e:	6893      	ldr	r3, [r2, #8]
10003370:	43db      	mvns	r3, r3
10003372:	f033 4360 	bics.w	r3, r3, #3758096384	@ 0xe0000000
10003376:	d1fa      	bne.n	1000336e <runtime_init_post_clock_resets+0xa>
10003378:	4770      	bx	lr
1000337a:	bf00      	nop
1000337c:	40023000 	.word	0x40023000
10003380:	40020000 	.word	0x40020000

10003384 <runtime_init_bootrom_reset>:
10003384:	b510      	push	{r4, lr}
10003386:	f245 2053 	movw	r0, #21075	@ 0x5253
1000338a:	f7ff ff61 	bl	10003250 <rom_func_lookup>
1000338e:	e8bd 4010 	ldmia.w	sp!, {r4, lr}
10003392:	4603      	mov	r3, r0
10003394:	2004      	movs	r0, #4
10003396:	4718      	bx	r3

10003398 <runtime_init_per_core_bootrom_reset>:
10003398:	b510      	push	{r4, lr}
1000339a:	f245 2053 	movw	r0, #21075	@ 0x5253
1000339e:	f7ff ff57 	bl	10003250 <rom_func_lookup>
100033a2:	e8bd 4010 	ldmia.w	sp!, {r4, lr}
100033a6:	4603      	mov	r3, r0
100033a8:	2001      	movs	r0, #1
100033aa:	4718      	bx	r3

100033ac <runtime_init_spin_locks_reset>:
100033ac:	f7fe bf58 	b.w	10002260 <spin_locks_reset>

100033b0 <runtime_init_install_ram_vector_table>:
100033b0:	4914      	ldr	r1, [pc, #80]	@ (10003404 <runtime_init_install_ram_vector_table+0x54>)
100033b2:	4b15      	ldr	r3, [pc, #84]	@ (10003408 <runtime_init_install_ram_vector_table+0x58>)
100033b4:	b570      	push	{r4, r5, r6, lr}
100033b6:	1a5c      	subs	r4, r3, r1
100033b8:	10a6      	asrs	r6, r4, #2
100033ba:	2e44      	cmp	r6, #68	@ 0x44
100033bc:	4632      	mov	r2, r6
100033be:	bf28      	it	cs
100033c0:	2244      	movcs	r2, #68	@ 0x44
100033c2:	4d12      	ldr	r5, [pc, #72]	@ (1000340c <runtime_init_install_ram_vector_table+0x5c>)
100033c4:	0092      	lsls	r2, r2, #2
100033c6:	4628      	mov	r0, r5
100033c8:	f002 fcc2 	bl	10005d50 <memcpy>
100033cc:	f5b4 7f86 	cmp.w	r4, #268	@ 0x10c
100033d0:	d813      	bhi.n	100033fa <runtime_init_install_ram_vector_table+0x4a>
100033d2:	4a0f      	ldr	r2, [pc, #60]	@ (10003410 <runtime_init_install_ram_vector_table+0x60>)
100033d4:	f1c6 0044 	rsb	r0, r6, #68	@ 0x44
100033d8:	d012      	beq.n	10003400 <runtime_init_install_ram_vector_table+0x50>
100033da:	192b      	adds	r3, r5, r4
100033dc:	0841      	lsrs	r1, r0, #1
100033de:	eb03 01c1 	add.w	r1, r3, r1, lsl #3
100033e2:	e9c3 2200 	strd	r2, r2, [r3]
100033e6:	3308      	adds	r3, #8
100033e8:	428b      	cmp	r3, r1
100033ea:	d1fa      	bne.n	100033e2 <runtime_init_install_ram_vector_table+0x32>
100033ec:	07c3      	lsls	r3, r0, #31
100033ee:	d504      	bpl.n	100033fa <runtime_init_install_ram_vector_table+0x4a>
100033f0:	f020 0001 	bic.w	r0, r0, #1
100033f4:	4430      	add	r0, r6
100033f6:	f845 2020 	str.w	r2, [r5, r0, lsl #2]
100033fa:	4b06      	ldr	r3, [pc, #24]	@ (10003414 <runtime_init_install_ram_vector_table+0x64>)
100033fc:	609d      	str	r5, [r3, #8]
100033fe:	bd70      	pop	{r4, r5, r6, pc}
10003400:	2043      	movs	r0, #67	@ 0x43
10003402:	e7f8      	b.n	100033f6 <runtime_init_install_ram_vector_table+0x46>
10003404:	10000000 	.word	0x10000000
10003408:	10000110 	.word	0x10000110
1000340c:	20000000 	.word	0x20000000
10003410:	10000111 	.word	0x10000111
10003414:	e000ed00 	.word	0xe000ed00

10003418 <runtime_init_clocks>:
10003418:	2300      	movs	r3, #0
1000341a:	b570      	push	{r4, r5, r6, lr}
1000341c:	4c2b      	ldr	r4, [pc, #172]	@ (100034cc <runtime_init_clocks+0xb4>)
1000341e:	b082      	sub	sp, #8
10003420:	f8c4 3084 	str.w	r3, [r4, #132]	@ 0x84
10003424:	f7ff ff38 	bl	10003298 <xosc_init>
10003428:	2201      	movs	r2, #1
1000342a:	4b29      	ldr	r3, [pc, #164]	@ (100034d0 <runtime_init_clocks+0xb8>)
1000342c:	63da      	str	r2, [r3, #60]	@ 0x3c
1000342e:	6c63      	ldr	r3, [r4, #68]	@ 0x44
10003430:	2b01      	cmp	r3, #1
10003432:	d1fc      	bne.n	1000342e <runtime_init_clocks+0x16>
10003434:	2103      	movs	r1, #3
10003436:	4a26      	ldr	r2, [pc, #152]	@ (100034d0 <runtime_init_clocks+0xb8>)
10003438:	4b24      	ldr	r3, [pc, #144]	@ (100034cc <runtime_init_clocks+0xb4>)
1000343a:	6311      	str	r1, [r2, #48]	@ 0x30
1000343c:	6b9c      	ldr	r4, [r3, #56]	@ 0x38
1000343e:	2c01      	cmp	r4, #1
10003440:	d1fc      	bne.n	1000343c <runtime_init_clocks+0x24>
10003442:	2602      	movs	r6, #2
10003444:	2505      	movs	r5, #5
10003446:	4621      	mov	r1, r4
10003448:	2305      	movs	r3, #5
1000344a:	4a22      	ldr	r2, [pc, #136]	@ (100034d4 <runtime_init_clocks+0xbc>)
1000344c:	4822      	ldr	r0, [pc, #136]	@ (100034d8 <runtime_init_clocks+0xc0>)
1000344e:	9600      	str	r6, [sp, #0]
10003450:	f7ff fe60 	bl	10003114 <pll_init>
10003454:	4621      	mov	r1, r4
10003456:	462b      	mov	r3, r5
10003458:	4a20      	ldr	r2, [pc, #128]	@ (100034dc <runtime_init_clocks+0xc4>)
1000345a:	4821      	ldr	r0, [pc, #132]	@ (100034e0 <runtime_init_clocks+0xc8>)
1000345c:	9500      	str	r5, [sp, #0]
1000345e:	f7ff fe59 	bl	10003114 <pll_init>
10003462:	2200      	movs	r2, #0
10003464:	2004      	movs	r0, #4
10003466:	4631      	mov	r1, r6
10003468:	4b1e      	ldr	r3, [pc, #120]	@ (100034e4 <runtime_init_clocks+0xcc>)
1000346a:	f7ff fc55 	bl	10002d18 <clock_configure_undivided>
1000346e:	4621      	mov	r1, r4
10003470:	4628      	mov	r0, r5
10003472:	2200      	movs	r2, #0
10003474:	4b1c      	ldr	r3, [pc, #112]	@ (100034e8 <runtime_init_clocks+0xd0>)
10003476:	f7ff fc4f 	bl	10002d18 <clock_configure_undivided>
1000347a:	2200      	movs	r2, #0
1000347c:	2008      	movs	r0, #8
1000347e:	4611      	mov	r1, r2
10003480:	4b1a      	ldr	r3, [pc, #104]	@ (100034ec <runtime_init_clocks+0xd4>)
10003482:	f7ff fc49 	bl	10002d18 <clock_configure_undivided>
10003486:	2200      	movs	r2, #0
10003488:	2009      	movs	r0, #9
1000348a:	4611      	mov	r1, r2
1000348c:	4b17      	ldr	r3, [pc, #92]	@ (100034ec <runtime_init_clocks+0xd4>)
1000348e:	f7ff fc43 	bl	10002d18 <clock_configure_undivided>
10003492:	2200      	movs	r2, #0
10003494:	2006      	movs	r0, #6
10003496:	4611      	mov	r1, r2
10003498:	4b13      	ldr	r3, [pc, #76]	@ (100034e8 <runtime_init_clocks+0xd0>)
1000349a:	f7ff fc3d 	bl	10002d18 <clock_configure_undivided>
1000349e:	2200      	movs	r2, #0
100034a0:	4b11      	ldr	r3, [pc, #68]	@ (100034e8 <runtime_init_clocks+0xd0>)
100034a2:	2007      	movs	r0, #7
100034a4:	4611      	mov	r1, r2
100034a6:	f7ff fc37 	bl	10002d18 <clock_configure_undivided>
100034aa:	2004      	movs	r0, #4
100034ac:	f7ff fc9c 	bl	10002de8 <clock_get_hz>
100034b0:	2400      	movs	r4, #0
100034b2:	4b0f      	ldr	r3, [pc, #60]	@ (100034f0 <runtime_init_clocks+0xd8>)
100034b4:	fba3 3500 	umull	r3, r5, r3, r0
100034b8:	0cad      	lsrs	r5, r5, #18
100034ba:	b2e0      	uxtb	r0, r4
100034bc:	4629      	mov	r1, r5
100034be:	3401      	adds	r4, #1
100034c0:	f7ff feba 	bl	10003238 <tick_start>
100034c4:	2c06      	cmp	r4, #6
100034c6:	d1f8      	bne.n	100034ba <runtime_init_clocks+0xa2>
100034c8:	b002      	add	sp, #8
100034ca:	bd70      	pop	{r4, r5, r6, pc}
100034cc:	40010000 	.word	0x40010000
100034d0:	40013000 	.word	0x40013000
100034d4:	59682f00 	.word	0x59682f00
100034d8:	40050000 	.word	0x40050000
100034dc:	47868c00 	.word	0x47868c00
100034e0:	40058000 	.word	0x40058000
100034e4:	00b71b00 	.word	0x00b71b00
100034e8:	08f0d180 	.word	0x08f0d180
100034ec:	02dc6c00 	.word	0x02dc6c00
100034f0:	431bde83 	.word	0x431bde83

100034f4 <generic_save_state>:
100034f4:	b086      	sub	sp, #24
100034f6:	b403      	push	{r0, r1}
100034f8:	fc51 0408 	dcp_pxmd r0, r1
100034fc:	e9cd 0102 	strd	r0, r1, [sp, #8]
10003500:	fc51 0409 	dcp_pymd r0, r1
10003504:	e9cd 0104 	strd	r0, r1, [sp, #16]
10003508:	ec51 040a 	dcp_refd r0, r1
1000350c:	e9cd 0106 	strd	r0, r1, [sp, #24]
10003510:	bc03      	pop	{r0, r1}
10003512:	47f0      	blx	lr

10003514 <generic_restore_state>:
10003514:	e8bd 5000 	ldmia.w	sp!, {ip, lr}
10003518:	ec4e c400 	dcp_wxmd ip, lr
1000351c:	e8bd 5000 	ldmia.w	sp!, {ip, lr}
10003520:	ec4e c401 	dcp_wymd ip, lr
10003524:	e8bd 5000 	ldmia.w	sp!, {ip, lr}
10003528:	ec4e c402 	dcp_wefd ip, lr
1000352c:	bd00      	pop	{pc}
1000352e:	0000      	movs	r0, r0
10003530:	b500      	push	{lr}
10003532:	f7ff ffdf 	bl	100034f4 <generic_save_state>
10003536:	e002      	b.n	1000353e <__wrap___aeabi_dadd+0x6>

10003538 <__wrap___aeabi_dadd>:
10003538:	fe10 f430 	dcp_pcmp APSR_nzcv
1000353c:	d4f8      	bmi.n	10003530 <generic_restore_state+0x1c>
1000353e:	ec41 0410 	dcp_wxup r0, r1
10003542:	ec43 2411 	dcp_wyup r2, r3
10003546:	ee00 0401 			dcp_add0
1000354a:	ee10 0401 			dcp_add1
1000354e:	ee80 0420 			dcp_nrdd
10003552:	ec51 0410 	dcp_rdda r0, r1
10003556:	4770      	bx	lr
10003558:	b500      	push	{lr}
1000355a:	f7ff ffcb 	bl	100034f4 <generic_save_state>
1000355e:	e002      	b.n	10003566 <__wrap___aeabi_dsub+0x6>

10003560 <__wrap___aeabi_dsub>:
10003560:	fe10 f430 	dcp_pcmp APSR_nzcv
10003564:	d4f8      	bmi.n	10003558 <__wrap___aeabi_dadd+0x20>
10003566:	ec41 0410 	dcp_wxup r0, r1
1000356a:	ec43 2411 	dcp_wyup r2, r3
1000356e:	ee00 0401 			dcp_add0
10003572:	ee10 0421 			dcp_sub1
10003576:	ee80 0420 			dcp_nrdd
1000357a:	ec51 0430 	dcp_rdds r0, r1
1000357e:	4770      	bx	lr
10003580:	b500      	push	{lr}
10003582:	f7ff ffb7 	bl	100034f4 <generic_save_state>
10003586:	e002      	b.n	1000358e <__wrap___aeabi_dmul+0x6>

10003588 <__wrap___aeabi_dmul>:
10003588:	fe10 f430 	dcp_pcmp APSR_nzcv
1000358c:	d4f8      	bmi.n	10003580 <__wrap___aeabi_dsub+0x20>
1000358e:	b510      	push	{r4, lr}
10003590:	ec41 0410 	dcp_wxup r0, r1
10003594:	ec43 2411 	dcp_wyup r2, r3
10003598:	ec51 0404 	dcp_rxms r0, r1, #0x0
1000359c:	ec53 2405 	dcp_ryms r2, r3, #0x0
100035a0:	fba0 4c02 	umull	r4, ip, r0, r2
100035a4:	f05f 0e00 	movs.w	lr, #0
100035a8:	fbe0 ce03 	umlal	ip, lr, r0, r3
100035ac:	fbe1 ce02 	umlal	ip, lr, r1, r2
100035b0:	ec4c 4420 	dcp_wxms r4, ip
100035b4:	2400      	movs	r4, #0
100035b6:	fbe1 e403 	umlal	lr, r4, r1, r3
100035ba:	ec44 e430 	dcp_wxmo lr, r4
100035be:	ee80 0420 			dcp_nrdd
100035c2:	ec51 0450 	dcp_rddm r0, r1
100035c6:	e8bd 4010 	ldmia.w	sp!, {r4, lr}
100035ca:	4770      	bx	lr
100035cc:	b500      	push	{lr}
100035ce:	f7ff ff91 	bl	100034f4 <generic_save_state>
100035d2:	e002      	b.n	100035da <__wrap___aeabi_ddiv+0x6>

100035d4 <__wrap___aeabi_ddiv>:
100035d4:	fe10 f430 	dcp_pcmp APSR_nzcv
100035d8:	d4f8      	bmi.n	100035cc <__wrap___aeabi_dmul+0x44>
100035da:	ec41 0410 	dcp_wxup r0, r1
100035de:	ec43 2411 	dcp_wyup r2, r3
100035e2:	ec51 0421 	dcp_rymr r0, r1
100035e6:	fba0 1201 	umull	r1, r2, r0, r1
100035ea:	ea6f 0282 	mvn.w	r2, r2, lsl #2
100035ee:	fb52 0010 	smmlar	r0, r2, r0, r0
100035f2:	fb52 f212 	smmulr	r2, r2, r2
100035f6:	fb52 0010 	smmlar	r0, r2, r0, r0
100035fa:	eba0 7cd0 	sub.w	ip, r0, r0, lsr #31
100035fe:	ec53 2404 	dcp_rxms r2, r3, #0x0
10003602:	fb5c f113 	smmulr	r1, ip, r3
10003606:	ec53 2415 	dcp_ryms r2, r3, #0x1
1000360a:	fba1 2002 	umull	r2, r0, r1, r2
1000360e:	fb01 0003 	mla	r0, r1, r3, r0
10003612:	ec53 2444 	dcp_rxms r2, r3, #0x4
10003616:	eba2 0000 	sub.w	r0, r2, r0
1000361a:	fb50 f21c 	smmulr	r2, r0, ip
1000361e:	ea4f 1311 	mov.w	r3, r1, lsr #4
10003622:	eb12 7001 	adds.w	r0, r2, r1, lsl #28
10003626:	eb43 71e2 	adc.w	r1, r3, r2, asr #31
1000362a:	ea40 5051 	orr.w	r0, r0, r1, lsr #21
1000362e:	ea20 5091 	bic.w	r0, r0, r1, lsr #22
10003632:	f020 0007 	bic.w	r0, r0, #7
10003636:	ec53 2475 	dcp_ryms r2, r3, #0x7
1000363a:	fba0 3c02 	umull	r3, ip, r0, r2
1000363e:	ec53 2475 	dcp_ryms r2, r3, #0x7
10003642:	fb00 cc03 	mla	ip, r0, r3, ip
10003646:	fb01 cc02 	mla	ip, r1, r2, ip
1000364a:	ec53 2404 	dcp_rxms r2, r3, #0x0
1000364e:	ebac 4c82 	sub.w	ip, ip, r2, lsl #18
10003652:	ea40 705c 	orr.w	r0, r0, ip, lsr #29
10003656:	f1a0 0001 	sub.w	r0, r0, #1
1000365a:	ec41 0440 	dcp_wxdd r0, r1
1000365e:	ee80 0420 			dcp_nrdd
10003662:	ec51 0470 	dcp_rddd r0, r1
10003666:	4770      	bx	lr
10003668:	b500      	push	{lr}
1000366a:	f7ff ff43 	bl	100034f4 <generic_save_state>
1000366e:	e002      	b.n	10003676 <__wrap___aeabi_i2d+0x6>

10003670 <__wrap___aeabi_i2d>:
10003670:	fe10 f430 	dcp_pcmp APSR_nzcv
10003674:	d4f8      	bmi.n	10003668 <__wrap___aeabi_ddiv+0x94>
10003676:	ec40 0470 	dcp_wxic r0, r0
1000367a:	ee00 0401 			dcp_add0
1000367e:	ee10 0421 			dcp_sub1
10003682:	ee80 0420 			dcp_nrdd
10003686:	ec51 0430 	dcp_rdds r0, r1
1000368a:	4770      	bx	lr
1000368c:	b500      	push	{lr}
1000368e:	f7ff ff31 	bl	100034f4 <generic_save_state>
10003692:	e002      	b.n	1000369a <__wrap___aeabi_ui2d+0x6>

10003694 <__wrap___aeabi_ui2d>:
10003694:	fe10 f430 	dcp_pcmp APSR_nzcv
10003698:	d4f8      	bmi.n	1000368c <__wrap___aeabi_i2d+0x1c>
1000369a:	ec40 0460 	dcp_wxuc r0, r0
1000369e:	ee00 0401 			dcp_add0
100036a2:	ee10 0421 			dcp_sub1
100036a6:	ee80 0420 			dcp_nrdd
100036aa:	ec51 0430 	dcp_rdds r0, r1
100036ae:	4770      	bx	lr
100036b0:	b500      	push	{lr}
100036b2:	f7ff ff1f 	bl	100034f4 <generic_save_state>
100036b6:	e002      	b.n	100036be <double2int_z_entry>

100036b8 <__wrap___aeabi_d2iz>:
100036b8:	fe10 f430 	dcp_pcmp APSR_nzcv
100036bc:	d4f8      	bmi.n	100036b0 <__wrap___aeabi_ui2d+0x1c>

100036be <double2int_z_entry>:
100036be:	ec41 0480 	dcp_wxdc r0, r1
100036c2:	ee00 0401 			dcp_add0
100036c6:	ee10 0401 			dcp_add1
100036ca:	ee80 0440 			dcp_ntdc
100036ce:	ee10 0413 			dcp_rdic r0
100036d2:	4770      	bx	lr
100036d4:	b500      	push	{lr}
100036d6:	f7ff ff0d 	bl	100034f4 <generic_save_state>
100036da:	e002      	b.n	100036e2 <double2uint_z_entry>

100036dc <__wrap___aeabi_d2uiz>:
100036dc:	fe10 f430 	dcp_pcmp APSR_nzcv
100036e0:	d4f8      	bmi.n	100036d4 <double2int_z_entry+0x16>

100036e2 <double2uint_z_entry>:
100036e2:	ec41 0480 	dcp_wxdc r0, r1
100036e6:	ee00 0401 			dcp_add0
100036ea:	ee10 0401 			dcp_add1
100036ee:	ee80 0440 			dcp_ntdc
100036f2:	ee10 0433 			dcp_rduc r0
100036f6:	4770      	bx	lr
100036f8:	b500      	push	{lr}
100036fa:	f7ff fefb 	bl	100034f4 <generic_save_state>
100036fe:	e002      	b.n	10003706 <__wrap___aeabi_dcmpun+0x6>

10003700 <__wrap___aeabi_dcmpun>:
10003700:	fe10 f430 	dcp_pcmp APSR_nzcv
10003704:	d4f8      	bmi.n	100036f8 <double2uint_z_entry+0x16>
10003706:	ec41 0410 	dcp_wxup r0, r1
1000370a:	ec43 2411 	dcp_wyup r2, r3
1000370e:	ee00 0401 			dcp_add0
10003712:	ee10 0430 			dcp_rcmp r0
10003716:	f3c0 7000 	ubfx	r0, r0, #28, #1
1000371a:	4770      	bx	lr
1000371c:	b500      	push	{lr}
1000371e:	f7ff fee9 	bl	100034f4 <generic_save_state>
10003722:	e002      	b.n	1000372a <__wrap___aeabi_dcmplt+0x6>

10003724 <__wrap___aeabi_dcmplt>:
10003724:	fe10 f430 	dcp_pcmp APSR_nzcv
10003728:	d4f8      	bmi.n	1000371c <__wrap___aeabi_dcmpun+0x1c>
1000372a:	ec43 2410 	dcp_wxup r2, r3
1000372e:	ec41 0411 	dcp_wyup r0, r1
10003732:	ee00 0401 			dcp_add0
10003736:	ee10 f430 			dcp_rcmp APSR_nzcv
1000373a:	bf8c      	ite	hi
1000373c:	2001      	movhi	r0, #1
1000373e:	2000      	movls	r0, #0
10003740:	4770      	bx	lr
10003742:	bf00      	nop
10003744:	b500      	push	{lr}
10003746:	f7ff fed5 	bl	100034f4 <generic_save_state>
1000374a:	e002      	b.n	10003752 <__wrap___aeabi_dcmple+0x6>

1000374c <__wrap___aeabi_dcmple>:
1000374c:	fe10 f430 	dcp_pcmp APSR_nzcv
10003750:	d4f8      	bmi.n	10003744 <__wrap___aeabi_dcmplt+0x20>
10003752:	ec43 2410 	dcp_wxup r2, r3
10003756:	ec41 0411 	dcp_wyup r0, r1
1000375a:	ee00 0401 			dcp_add0
1000375e:	ee10 f430 			dcp_rcmp APSR_nzcv
10003762:	bf2c      	ite	cs
10003764:	2001      	movcs	r0, #1
10003766:	2000      	movcc	r0, #0
10003768:	4770      	bx	lr
1000376a:	bf00      	nop
1000376c:	b500      	push	{lr}
1000376e:	f7ff fec1 	bl	100034f4 <generic_save_state>
10003772:	e002      	b.n	1000377a <__wrap___aeabi_dcmpge+0x6>

10003774 <__wrap___aeabi_dcmpge>:
10003774:	fe10 f430 	dcp_pcmp APSR_nzcv
10003778:	d4f8      	bmi.n	1000376c <__wrap___aeabi_dcmple+0x20>
1000377a:	ec41 0410 	dcp_wxup r0, r1
1000377e:	ec43 2411 	dcp_wyup r2, r3
10003782:	ee00 0401 			dcp_add0
10003786:	ee10 f430 			dcp_rcmp APSR_nzcv
1000378a:	bf2c      	ite	cs
1000378c:	2001      	movcs	r0, #1
1000378e:	2000      	movcc	r0, #0
10003790:	4770      	bx	lr
10003792:	bf00      	nop
10003794:	b500      	push	{lr}
10003796:	f7ff fead 	bl	100034f4 <generic_save_state>
1000379a:	e002      	b.n	100037a2 <__wrap___aeabi_dcmpgt+0x6>

1000379c <__wrap___aeabi_dcmpgt>:
1000379c:	fe10 f430 	dcp_pcmp APSR_nzcv
100037a0:	d4f8      	bmi.n	10003794 <__wrap___aeabi_dcmpge+0x20>
100037a2:	ec41 0410 	dcp_wxup r0, r1
100037a6:	ec43 2411 	dcp_wyup r2, r3
100037aa:	ee00 0401 			dcp_add0
100037ae:	ee10 f430 			dcp_rcmp APSR_nzcv
100037b2:	bf8c      	ite	hi
100037b4:	2001      	movhi	r0, #1
100037b6:	2000      	movls	r0, #0
100037b8:	4770      	bx	lr
100037ba:	bf00      	nop

100037bc <__wrap_malloc>:
100037bc:	b538      	push	{r3, r4, r5, lr}
100037be:	4604      	mov	r4, r0
100037c0:	4809      	ldr	r0, [pc, #36]	@ (100037e8 <__wrap_malloc+0x2c>)
100037c2:	f002 fcc5 	bl	10006150 <__mutex_enter_blocking_veneer>
100037c6:	4620      	mov	r0, r4
100037c8:	f001 ff72 	bl	100056b0 <malloc>
100037cc:	4605      	mov	r5, r0
100037ce:	4806      	ldr	r0, [pc, #24]	@ (100037e8 <__wrap_malloc+0x2c>)
100037d0:	f002 fcba 	bl	10006148 <__mutex_exit_veneer>
100037d4:	b12d      	cbz	r5, 100037e2 <__wrap_malloc+0x26>
100037d6:	4b05      	ldr	r3, [pc, #20]	@ (100037ec <__wrap_malloc+0x30>)
100037d8:	442c      	add	r4, r5
100037da:	429c      	cmp	r4, r3
100037dc:	d801      	bhi.n	100037e2 <__wrap_malloc+0x26>
100037de:	4628      	mov	r0, r5
100037e0:	bd38      	pop	{r3, r4, r5, pc}
100037e2:	4803      	ldr	r0, [pc, #12]	@ (100037f0 <__wrap_malloc+0x34>)
100037e4:	f7fe fc88 	bl	100020f8 <panic>
100037e8:	20000c50 	.word	0x20000c50
100037ec:	20080000 	.word	0x20080000
100037f0:	10006480 	.word	0x10006480

100037f4 <__wrap_free>:
100037f4:	b510      	push	{r4, lr}
100037f6:	4604      	mov	r4, r0
100037f8:	4805      	ldr	r0, [pc, #20]	@ (10003810 <__wrap_free+0x1c>)
100037fa:	f002 fca9 	bl	10006150 <__mutex_enter_blocking_veneer>
100037fe:	4620      	mov	r0, r4
10003800:	f001 ff5e 	bl	100056c0 <free>
10003804:	e8bd 4010 	ldmia.w	sp!, {r4, lr}
10003808:	4801      	ldr	r0, [pc, #4]	@ (10003810 <__wrap_free+0x1c>)
1000380a:	f002 bc9d 	b.w	10006148 <__mutex_exit_veneer>
1000380e:	bf00      	nop
10003810:	20000c50 	.word	0x20000c50

10003814 <_out_buffer>:
10003814:	429a      	cmp	r2, r3
10003816:	bf38      	it	cc
10003818:	5488      	strbcc	r0, [r1, r2]
1000381a:	4770      	bx	lr

1000381c <_out_null>:
1000381c:	4770      	bx	lr
1000381e:	bf00      	nop

10003820 <_out_rev>:
10003820:	e92d 4ff0 	stmdb	sp!, {r4, r5, r6, r7, r8, r9, sl, fp, lr}
10003824:	b083      	sub	sp, #12
10003826:	4699      	mov	r9, r3
10003828:	e9dd ab0d 	ldrd	sl, fp, [sp, #52]	@ 0x34
1000382c:	9b0f      	ldr	r3, [sp, #60]	@ 0x3c
1000382e:	4688      	mov	r8, r1
10003830:	4611      	mov	r1, r2
10003832:	079a      	lsls	r2, r3, #30
10003834:	4607      	mov	r7, r0
10003836:	d116      	bne.n	10003866 <_out_rev+0x46>
10003838:	45da      	cmp	sl, fp
1000383a:	d23a      	bcs.n	100038b2 <_out_rev+0x92>
1000383c:	460c      	mov	r4, r1
1000383e:	460d      	mov	r5, r1
10003840:	ebab 060a 	sub.w	r6, fp, sl
10003844:	440e      	add	r6, r1
10003846:	4622      	mov	r2, r4
10003848:	464b      	mov	r3, r9
1000384a:	4641      	mov	r1, r8
1000384c:	2020      	movs	r0, #32
1000384e:	3401      	adds	r4, #1
10003850:	47b8      	blx	r7
10003852:	42b4      	cmp	r4, r6
10003854:	d1f7      	bne.n	10003846 <_out_rev+0x26>
10003856:	4629      	mov	r1, r5
10003858:	f1ba 0f00 	cmp.w	sl, #0
1000385c:	d108      	bne.n	10003870 <_out_rev+0x50>
1000385e:	4620      	mov	r0, r4
10003860:	b003      	add	sp, #12
10003862:	e8bd 8ff0 	ldmia.w	sp!, {r4, r5, r6, r7, r8, r9, sl, fp, pc}
10003866:	460c      	mov	r4, r1
10003868:	f1ba 0f00 	cmp.w	sl, #0
1000386c:	d010      	beq.n	10003890 <_out_rev+0x70>
1000386e:	460e      	mov	r6, r1
10003870:	4655      	mov	r5, sl
10003872:	9b0c      	ldr	r3, [sp, #48]	@ 0x30
10003874:	442e      	add	r6, r5
10003876:	449a      	add	sl, r3
10003878:	9101      	str	r1, [sp, #4]
1000387a:	1b72      	subs	r2, r6, r5
1000387c:	464b      	mov	r3, r9
1000387e:	3d01      	subs	r5, #1
10003880:	4641      	mov	r1, r8
10003882:	f81a 0d01 	ldrb.w	r0, [sl, #-1]!
10003886:	4634      	mov	r4, r6
10003888:	47b8      	blx	r7
1000388a:	2d00      	cmp	r5, #0
1000388c:	d1f5      	bne.n	1000387a <_out_rev+0x5a>
1000388e:	9901      	ldr	r1, [sp, #4]
10003890:	9b0f      	ldr	r3, [sp, #60]	@ 0x3c
10003892:	079b      	lsls	r3, r3, #30
10003894:	d5e3      	bpl.n	1000385e <_out_rev+0x3e>
10003896:	1a65      	subs	r5, r4, r1
10003898:	45ab      	cmp	fp, r5
1000389a:	d9e0      	bls.n	1000385e <_out_rev+0x3e>
1000389c:	4622      	mov	r2, r4
1000389e:	464b      	mov	r3, r9
100038a0:	4641      	mov	r1, r8
100038a2:	2020      	movs	r0, #32
100038a4:	3501      	adds	r5, #1
100038a6:	47b8      	blx	r7
100038a8:	455d      	cmp	r5, fp
100038aa:	f104 0401 	add.w	r4, r4, #1
100038ae:	d3f5      	bcc.n	1000389c <_out_rev+0x7c>
100038b0:	e7d5      	b.n	1000385e <_out_rev+0x3e>
100038b2:	460c      	mov	r4, r1
100038b4:	f1ba 0f00 	cmp.w	sl, #0
100038b8:	d1d9      	bne.n	1000386e <_out_rev+0x4e>
100038ba:	e7d0      	b.n	1000385e <_out_rev+0x3e>

100038bc <_ntoa_format>:
100038bc:	e92d 4ff0 	stmdb	sp!, {r4, r5, r6, r7, r8, r9, sl, fp, lr}
100038c0:	9f0f      	ldr	r7, [sp, #60]	@ 0x3c
100038c2:	f8dd 8024 	ldr.w	r8, [sp, #36]	@ 0x24
100038c6:	f017 0f02 	tst.w	r7, #2
100038ca:	9c0a      	ldr	r4, [sp, #40]	@ 0x28
100038cc:	f89d a02c 	ldrb.w	sl, [sp, #44]	@ 0x2c
100038d0:	9d0e      	ldr	r5, [sp, #56]	@ 0x38
100038d2:	e9dd 960c 	ldrd	r9, r6, [sp, #48]	@ 0x30
100038d6:	d144      	bne.n	10003962 <_ntoa_format+0xa6>
100038d8:	bbf5      	cbnz	r5, 10003958 <_ntoa_format+0x9c>
100038da:	42b4      	cmp	r4, r6
100038dc:	d241      	bcs.n	10003962 <_ntoa_format+0xa6>
100038de:	f007 0b01 	and.w	fp, r7, #1
100038e2:	f104 3cff 	add.w	ip, r4, #4294967295	@ 0xffffffff
100038e6:	f04f 0e30 	mov.w	lr, #48	@ 0x30
100038ea:	44c4      	add	ip, r8
100038ec:	e004      	b.n	100038f8 <_ntoa_format+0x3c>
100038ee:	3401      	adds	r4, #1
100038f0:	42a6      	cmp	r6, r4
100038f2:	f80c ef01 	strb.w	lr, [ip, #1]!
100038f6:	d901      	bls.n	100038fc <_ntoa_format+0x40>
100038f8:	2c20      	cmp	r4, #32
100038fa:	d1f8      	bne.n	100038ee <_ntoa_format+0x32>
100038fc:	f1bb 0f00 	cmp.w	fp, #0
10003900:	f000 8088 	beq.w	10003a14 <_ntoa_format+0x158>
10003904:	42a5      	cmp	r5, r4
10003906:	d92c      	bls.n	10003962 <_ntoa_format+0xa6>
10003908:	f104 3cff 	add.w	ip, r4, #4294967295	@ 0xffffffff
1000390c:	f04f 0e30 	mov.w	lr, #48	@ 0x30
10003910:	44c4      	add	ip, r8
10003912:	e004      	b.n	1000391e <_ntoa_format+0x62>
10003914:	3401      	adds	r4, #1
10003916:	42ac      	cmp	r4, r5
10003918:	f80c ef01 	strb.w	lr, [ip, #1]!
1000391c:	d021      	beq.n	10003962 <_ntoa_format+0xa6>
1000391e:	2c20      	cmp	r4, #32
10003920:	d1f8      	bne.n	10003914 <_ntoa_format+0x58>
10003922:	f017 0f10 	tst.w	r7, #16
10003926:	d00e      	beq.n	10003946 <_ntoa_format+0x8a>
10003928:	f417 6f80 	tst.w	r7, #1024	@ 0x400
1000392c:	d154      	bne.n	100039d8 <_ntoa_format+0x11c>
1000392e:	42a6      	cmp	r6, r4
10003930:	d063      	beq.n	100039fa <_ntoa_format+0x13e>
10003932:	42a5      	cmp	r5, r4
10003934:	d061      	beq.n	100039fa <_ntoa_format+0x13e>
10003936:	f1b9 0f10 	cmp.w	r9, #16
1000393a:	d050      	beq.n	100039de <_ntoa_format+0x122>
1000393c:	f1b9 0f02 	cmp.w	r9, #2
10003940:	d056      	beq.n	100039f0 <_ntoa_format+0x134>
10003942:	2c20      	cmp	r4, #32
10003944:	d129      	bne.n	1000399a <_ntoa_format+0xde>
10003946:	2420      	movs	r4, #32
10003948:	e9cd 570b 	strd	r5, r7, [sp, #44]	@ 0x2c
1000394c:	e9cd 8409 	strd	r8, r4, [sp, #36]	@ 0x24
10003950:	e8bd 4ff0 	ldmia.w	sp!, {r4, r5, r6, r7, r8, r9, sl, fp, lr}
10003954:	f7ff bf64 	b.w	10003820 <_out_rev>
10003958:	f017 0b01 	ands.w	fp, r7, #1
1000395c:	d134      	bne.n	100039c8 <_ntoa_format+0x10c>
1000395e:	42b4      	cmp	r4, r6
10003960:	d3bf      	bcc.n	100038e2 <_ntoa_format+0x26>
10003962:	f017 0f10 	tst.w	r7, #16
10003966:	d01e      	beq.n	100039a6 <_ntoa_format+0xea>
10003968:	f417 6f80 	tst.w	r7, #1024	@ 0x400
1000396c:	d1e3      	bne.n	10003936 <_ntoa_format+0x7a>
1000396e:	2c00      	cmp	r4, #0
10003970:	d1dd      	bne.n	1000392e <_ntoa_format+0x72>
10003972:	f1b9 0f10 	cmp.w	r9, #16
10003976:	d063      	beq.n	10003a40 <_ntoa_format+0x184>
10003978:	f1b9 0f02 	cmp.w	r9, #2
1000397c:	d077      	beq.n	10003a6e <_ntoa_format+0x1b2>
1000397e:	2430      	movs	r4, #48	@ 0x30
10003980:	f888 4000 	strb.w	r4, [r8]
10003984:	2401      	movs	r4, #1
10003986:	f1ba 0f00 	cmp.w	sl, #0
1000398a:	d111      	bne.n	100039b0 <_ntoa_format+0xf4>
1000398c:	077e      	lsls	r6, r7, #29
1000398e:	d548      	bpl.n	10003a22 <_ntoa_format+0x166>
10003990:	262b      	movs	r6, #43	@ 0x2b
10003992:	f808 6004 	strb.w	r6, [r8, r4]
10003996:	3401      	adds	r4, #1
10003998:	e7d6      	b.n	10003948 <_ntoa_format+0x8c>
1000399a:	4626      	mov	r6, r4
1000399c:	3401      	adds	r4, #1
1000399e:	f04f 0c30 	mov.w	ip, #48	@ 0x30
100039a2:	f808 c006 	strb.w	ip, [r8, r6]
100039a6:	2c20      	cmp	r4, #32
100039a8:	d0cd      	beq.n	10003946 <_ntoa_format+0x8a>
100039aa:	f1ba 0f00 	cmp.w	sl, #0
100039ae:	d0ed      	beq.n	1000398c <_ntoa_format+0xd0>
100039b0:	262d      	movs	r6, #45	@ 0x2d
100039b2:	f808 6004 	strb.w	r6, [r8, r4]
100039b6:	3401      	adds	r4, #1
100039b8:	e9cd 570b 	strd	r5, r7, [sp, #44]	@ 0x2c
100039bc:	e9cd 8409 	strd	r8, r4, [sp, #36]	@ 0x24
100039c0:	e8bd 4ff0 	ldmia.w	sp!, {r4, r5, r6, r7, r8, r9, sl, fp, lr}
100039c4:	f7ff bf2c 	b.w	10003820 <_out_rev>
100039c8:	f1ba 0f00 	cmp.w	sl, #0
100039cc:	d030      	beq.n	10003a30 <_ntoa_format+0x174>
100039ce:	42b4      	cmp	r4, r6
100039d0:	f105 35ff 	add.w	r5, r5, #4294967295	@ 0xffffffff
100039d4:	d385      	bcc.n	100038e2 <_ntoa_format+0x26>
100039d6:	e795      	b.n	10003904 <_ntoa_format+0x48>
100039d8:	f1b9 0f10 	cmp.w	r9, #16
100039dc:	d1b3      	bne.n	10003946 <_ntoa_format+0x8a>
100039de:	06be      	lsls	r6, r7, #26
100039e0:	d53b      	bpl.n	10003a5a <_ntoa_format+0x19e>
100039e2:	2c20      	cmp	r4, #32
100039e4:	d0af      	beq.n	10003946 <_ntoa_format+0x8a>
100039e6:	2658      	movs	r6, #88	@ 0x58
100039e8:	f808 6004 	strb.w	r6, [r8, r4]
100039ec:	3401      	adds	r4, #1
100039ee:	e7a8      	b.n	10003942 <_ntoa_format+0x86>
100039f0:	2c20      	cmp	r4, #32
100039f2:	d0a8      	beq.n	10003946 <_ntoa_format+0x8a>
100039f4:	4626      	mov	r6, r4
100039f6:	3401      	adds	r4, #1
100039f8:	e007      	b.n	10003a0a <_ntoa_format+0x14e>
100039fa:	1e66      	subs	r6, r4, #1
100039fc:	d0b9      	beq.n	10003972 <_ntoa_format+0xb6>
100039fe:	f1b9 0f10 	cmp.w	r9, #16
10003a02:	d036      	beq.n	10003a72 <_ntoa_format+0x1b6>
10003a04:	f1b9 0f02 	cmp.w	r9, #2
10003a08:	d1c9      	bne.n	1000399e <_ntoa_format+0xe2>
10003a0a:	f04f 0c62 	mov.w	ip, #98	@ 0x62
10003a0e:	f808 c006 	strb.w	ip, [r8, r6]
10003a12:	e796      	b.n	10003942 <_ntoa_format+0x86>
10003a14:	f017 0f10 	tst.w	r7, #16
10003a18:	d0c5      	beq.n	100039a6 <_ntoa_format+0xea>
10003a1a:	f417 6f80 	tst.w	r7, #1024	@ 0x400
10003a1e:	d086      	beq.n	1000392e <_ntoa_format+0x72>
10003a20:	e789      	b.n	10003936 <_ntoa_format+0x7a>
10003a22:	073e      	lsls	r6, r7, #28
10003a24:	d590      	bpl.n	10003948 <_ntoa_format+0x8c>
10003a26:	2620      	movs	r6, #32
10003a28:	f808 6004 	strb.w	r6, [r8, r4]
10003a2c:	3401      	adds	r4, #1
10003a2e:	e78b      	b.n	10003948 <_ntoa_format+0x8c>
10003a30:	f017 0f0c 	tst.w	r7, #12
10003a34:	d000      	beq.n	10003a38 <_ntoa_format+0x17c>
10003a36:	3d01      	subs	r5, #1
10003a38:	42b4      	cmp	r4, r6
10003a3a:	f4ff af52 	bcc.w	100038e2 <_ntoa_format+0x26>
10003a3e:	e761      	b.n	10003904 <_ntoa_format+0x48>
10003a40:	06bc      	lsls	r4, r7, #26
10003a42:	d412      	bmi.n	10003a6a <_ntoa_format+0x1ae>
10003a44:	2478      	movs	r4, #120	@ 0x78
10003a46:	f888 4000 	strb.w	r4, [r8]
10003a4a:	2430      	movs	r4, #48	@ 0x30
10003a4c:	f888 4001 	strb.w	r4, [r8, #1]
10003a50:	2402      	movs	r4, #2
10003a52:	f1ba 0f00 	cmp.w	sl, #0
10003a56:	d099      	beq.n	1000398c <_ntoa_format+0xd0>
10003a58:	e7aa      	b.n	100039b0 <_ntoa_format+0xf4>
10003a5a:	2c20      	cmp	r4, #32
10003a5c:	f43f af73 	beq.w	10003946 <_ntoa_format+0x8a>
10003a60:	2678      	movs	r6, #120	@ 0x78
10003a62:	f808 6004 	strb.w	r6, [r8, r4]
10003a66:	3401      	adds	r4, #1
10003a68:	e76b      	b.n	10003942 <_ntoa_format+0x86>
10003a6a:	2458      	movs	r4, #88	@ 0x58
10003a6c:	e7eb      	b.n	10003a46 <_ntoa_format+0x18a>
10003a6e:	2462      	movs	r4, #98	@ 0x62
10003a70:	e7e9      	b.n	10003a46 <_ntoa_format+0x18a>
10003a72:	f017 0f20 	tst.w	r7, #32
10003a76:	f1a4 0c02 	sub.w	ip, r4, #2
10003a7a:	d004      	beq.n	10003a86 <_ntoa_format+0x1ca>
10003a7c:	f04f 0e58 	mov.w	lr, #88	@ 0x58
10003a80:	f808 e00c 	strb.w	lr, [r8, ip]
10003a84:	e78b      	b.n	1000399e <_ntoa_format+0xe2>
10003a86:	f04f 0e78 	mov.w	lr, #120	@ 0x78
10003a8a:	f808 e00c 	strb.w	lr, [r8, ip]
10003a8e:	e786      	b.n	1000399e <_ntoa_format+0xe2>

10003a90 <_out_char>:
10003a90:	b900      	cbnz	r0, 10003a94 <_out_char+0x4>
10003a92:	4770      	bx	lr
10003a94:	f001 bb3c 	b.w	10005110 <__wrap_putchar>

10003a98 <_ftoa>:
10003a98:	e92d 4ff0 	stmdb	sp!, {r4, r5, r6, r7, r8, r9, sl, fp, lr}
10003a9c:	b097      	sub	sp, #92	@ 0x5c
10003a9e:	ed9d 7b20 	vldr	d7, [sp, #128]	@ 0x80
10003aa2:	e9dd 5b22 	ldrd	r5, fp, [sp, #136]	@ 0x88
10003aa6:	4607      	mov	r7, r0
10003aa8:	4688      	mov	r8, r1
10003aaa:	ec51 0b17 	vmov	r0, r1, d7
10003aae:	9c24      	ldr	r4, [sp, #144]	@ 0x90
10003ab0:	4699      	mov	r9, r3
10003ab2:	920c      	str	r2, [sp, #48]	@ 0x30
10003ab4:	460b      	mov	r3, r1
10003ab6:	4602      	mov	r2, r0
10003ab8:	ed8d 7b04 	vstr	d7, [sp, #16]
10003abc:	9407      	str	r4, [sp, #28]
10003abe:	f7ff fe1f 	bl	10003700 <__wrap___aeabi_dcmpun>
10003ac2:	2800      	cmp	r0, #0
10003ac4:	f040 81f4 	bne.w	10003eb0 <_ftoa+0x418>
10003ac8:	e9dd 0104 	ldrd	r0, r1, [sp, #16]
10003acc:	f04f 32ff 	mov.w	r2, #4294967295	@ 0xffffffff
10003ad0:	f46f 1380 	mvn.w	r3, #1048576	@ 0x100000
10003ad4:	f7ff fe26 	bl	10003724 <__wrap___aeabi_dcmplt>
10003ad8:	2800      	cmp	r0, #0
10003ada:	f040 811b 	bne.w	10003d14 <_ftoa+0x27c>
10003ade:	e9dd 0104 	ldrd	r0, r1, [sp, #16]
10003ae2:	f04f 32ff 	mov.w	r2, #4294967295	@ 0xffffffff
10003ae6:	4bac      	ldr	r3, [pc, #688]	@ (10003d98 <_ftoa+0x300>)
10003ae8:	f7ff fe58 	bl	1000379c <__wrap___aeabi_dcmpgt>
10003aec:	2800      	cmp	r0, #0
10003aee:	f040 80ee 	bne.w	10003cce <_ftoa+0x236>
10003af2:	e9dd 0104 	ldrd	r0, r1, [sp, #16]
10003af6:	a3a4      	add	r3, pc, #656	@ (adr r3, 10003d88 <_ftoa+0x2f0>)
10003af8:	e9d3 2300 	ldrd	r2, r3, [r3]
10003afc:	f7ff fe4e 	bl	1000379c <__wrap___aeabi_dcmpgt>
10003b00:	2800      	cmp	r0, #0
10003b02:	f040 80d3 	bne.w	10003cac <_ftoa+0x214>
10003b06:	e9dd 0104 	ldrd	r0, r1, [sp, #16]
10003b0a:	a3a1      	add	r3, pc, #644	@ (adr r3, 10003d90 <_ftoa+0x2f8>)
10003b0c:	e9d3 2300 	ldrd	r2, r3, [r3]
10003b10:	f7ff fe08 	bl	10003724 <__wrap___aeabi_dcmplt>
10003b14:	2800      	cmp	r0, #0
10003b16:	f040 80c9 	bne.w	10003cac <_ftoa+0x214>
10003b1a:	e9dd 0104 	ldrd	r0, r1, [sp, #16]
10003b1e:	2200      	movs	r2, #0
10003b20:	2300      	movs	r3, #0
10003b22:	f7ff fdff 	bl	10003724 <__wrap___aeabi_dcmplt>
10003b26:	2800      	cmp	r0, #0
10003b28:	f040 80e8 	bne.w	10003cfc <_ftoa+0x264>
10003b2c:	4623      	mov	r3, r4
10003b2e:	900d      	str	r0, [sp, #52]	@ 0x34
10003b30:	f413 6f80 	tst.w	r3, #1024	@ 0x400
10003b34:	bf08      	it	eq
10003b36:	2506      	moveq	r5, #6
10003b38:	2130      	movs	r1, #48	@ 0x30
10003b3a:	462b      	mov	r3, r5
10003b3c:	aa0e      	add	r2, sp, #56	@ 0x38
10003b3e:	f1a5 0620 	sub.w	r6, r5, #32
10003b42:	e005      	b.n	10003b50 <_ftoa+0xb8>
10003b44:	3b01      	subs	r3, #1
10003b46:	42b3      	cmp	r3, r6
10003b48:	f802 1b01 	strb.w	r1, [r2], #1
10003b4c:	f000 8193 	beq.w	10003e76 <_ftoa+0x3de>
10003b50:	2b09      	cmp	r3, #9
10003b52:	d8f7      	bhi.n	10003b44 <_ftoa+0xac>
10003b54:	461e      	mov	r6, r3
10003b56:	1aed      	subs	r5, r5, r3
10003b58:	e9dd 0104 	ldrd	r0, r1, [sp, #16]
10003b5c:	f7ff fdac 	bl	100036b8 <__wrap___aeabi_d2iz>
10003b60:	4b8e      	ldr	r3, [pc, #568]	@ (10003d9c <_ftoa+0x304>)
10003b62:	4604      	mov	r4, r0
10003b64:	eb03 03c6 	add.w	r3, r3, r6, lsl #3
10003b68:	ed93 7b00 	vldr	d7, [r3]
10003b6c:	ed8d 7b08 	vstr	d7, [sp, #32]
10003b70:	f7ff fd7e 	bl	10003670 <__wrap___aeabi_i2d>
10003b74:	4602      	mov	r2, r0
10003b76:	460b      	mov	r3, r1
10003b78:	e9dd 0104 	ldrd	r0, r1, [sp, #16]
10003b7c:	f7ff fcf0 	bl	10003560 <__wrap___aeabi_dsub>
10003b80:	e9dd 2308 	ldrd	r2, r3, [sp, #32]
10003b84:	f7ff fd00 	bl	10003588 <__wrap___aeabi_dmul>
10003b88:	4602      	mov	r2, r0
10003b8a:	460b      	mov	r3, r1
10003b8c:	e9cd 230a 	strd	r2, r3, [sp, #40]	@ 0x28
10003b90:	f7ff fda4 	bl	100036dc <__wrap___aeabi_d2uiz>
10003b94:	4682      	mov	sl, r0
10003b96:	f7ff fd7d 	bl	10003694 <__wrap___aeabi_ui2d>
10003b9a:	4602      	mov	r2, r0
10003b9c:	460b      	mov	r3, r1
10003b9e:	e9dd 010a 	ldrd	r0, r1, [sp, #40]	@ 0x28
10003ba2:	f7ff fcdd 	bl	10003560 <__wrap___aeabi_dsub>
10003ba6:	4602      	mov	r2, r0
10003ba8:	460b      	mov	r3, r1
10003baa:	e9cd 230a 	strd	r2, r3, [sp, #40]	@ 0x28
10003bae:	2200      	movs	r2, #0
10003bb0:	4b7b      	ldr	r3, [pc, #492]	@ (10003da0 <_ftoa+0x308>)
10003bb2:	f7ff fdf3 	bl	1000379c <__wrap___aeabi_dcmpgt>
10003bb6:	2800      	cmp	r0, #0
10003bb8:	f000 80fe 	beq.w	10003db8 <_ftoa+0x320>
10003bbc:	f10a 0a01 	add.w	sl, sl, #1
10003bc0:	4650      	mov	r0, sl
10003bc2:	f7ff fd67 	bl	10003694 <__wrap___aeabi_ui2d>
10003bc6:	4602      	mov	r2, r0
10003bc8:	460b      	mov	r3, r1
10003bca:	e9dd 0108 	ldrd	r0, r1, [sp, #32]
10003bce:	f7ff fdbd 	bl	1000374c <__wrap___aeabi_dcmple>
10003bd2:	b110      	cbz	r0, 10003bda <_ftoa+0x142>
10003bd4:	f04f 0a00 	mov.w	sl, #0
10003bd8:	3401      	adds	r4, #1
10003bda:	2e00      	cmp	r6, #0
10003bdc:	f000 80fd 	beq.w	10003dda <_ftoa+0x342>
10003be0:	1e68      	subs	r0, r5, #1
10003be2:	ab0e      	add	r3, sp, #56	@ 0x38
10003be4:	f8df c1cc 	ldr.w	ip, [pc, #460]	@ 10003db4 <_ftoa+0x31c>
10003be8:	4418      	add	r0, r3
10003bea:	e00f      	b.n	10003c0c <_ftoa+0x174>
10003bec:	fbac 210a 	umull	r2, r1, ip, sl
10003bf0:	08c9      	lsrs	r1, r1, #3
10003bf2:	eb01 0281 	add.w	r2, r1, r1, lsl #2
10003bf6:	ebaa 0242 	sub.w	r2, sl, r2, lsl #1
10003bfa:	3230      	adds	r2, #48	@ 0x30
10003bfc:	f1ba 0f09 	cmp.w	sl, #9
10003c00:	f800 2f01 	strb.w	r2, [r0, #1]!
10003c04:	f240 811c 	bls.w	10003e40 <_ftoa+0x3a8>
10003c08:	468a      	mov	sl, r1
10003c0a:	461d      	mov	r5, r3
10003c0c:	2d20      	cmp	r5, #32
10003c0e:	f105 0301 	add.w	r3, r5, #1
10003c12:	f106 36ff 	add.w	r6, r6, #4294967295	@ 0xffffffff
10003c16:	d1e9      	bne.n	10003bec <_ftoa+0x154>
10003c18:	2520      	movs	r5, #32
10003c1a:	1e69      	subs	r1, r5, #1
10003c1c:	ab0e      	add	r3, sp, #56	@ 0x38
10003c1e:	4861      	ldr	r0, [pc, #388]	@ (10003da4 <_ftoa+0x30c>)
10003c20:	4419      	add	r1, r3
10003c22:	e010      	b.n	10003c46 <_ftoa+0x1ae>
10003c24:	fb80 6204 	smull	r6, r2, r0, r4
10003c28:	ebc3 03a2 	rsb	r3, r3, r2, asr #2
10003c2c:	eb03 0283 	add.w	r2, r3, r3, lsl #2
10003c30:	eba4 0442 	sub.w	r4, r4, r2, lsl #1
10003c34:	f104 0230 	add.w	r2, r4, #48	@ 0x30
10003c38:	3501      	adds	r5, #1
10003c3a:	461c      	mov	r4, r3
10003c3c:	f801 2f01 	strb.w	r2, [r1, #1]!
10003c40:	2b00      	cmp	r3, #0
10003c42:	f000 80eb 	beq.w	10003e1c <_ftoa+0x384>
10003c46:	2d20      	cmp	r5, #32
10003c48:	ea4f 73e4 	mov.w	r3, r4, asr #31
10003c4c:	d1ea      	bne.n	10003c24 <_ftoa+0x18c>
10003c4e:	9b07      	ldr	r3, [sp, #28]
10003c50:	f003 0303 	and.w	r3, r3, #3
10003c54:	2b01      	cmp	r3, #1
10003c56:	d118      	bne.n	10003c8a <_ftoa+0x1f2>
10003c58:	f1bb 0f00 	cmp.w	fp, #0
10003c5c:	d015      	beq.n	10003c8a <_ftoa+0x1f2>
10003c5e:	9b0d      	ldr	r3, [sp, #52]	@ 0x34
10003c60:	2b00      	cmp	r3, #0
10003c62:	f000 810a 	beq.w	10003e7a <_ftoa+0x3e2>
10003c66:	f10b 3bff 	add.w	fp, fp, #4294967295	@ 0xffffffff
10003c6a:	f1bb 0f20 	cmp.w	fp, #32
10003c6e:	d90c      	bls.n	10003c8a <_ftoa+0x1f2>
10003c70:	1e6b      	subs	r3, r5, #1
10003c72:	a90e      	add	r1, sp, #56	@ 0x38
10003c74:	2230      	movs	r2, #48	@ 0x30
10003c76:	440b      	add	r3, r1
10003c78:	e005      	b.n	10003c86 <_ftoa+0x1ee>
10003c7a:	3501      	adds	r5, #1
10003c7c:	455d      	cmp	r5, fp
10003c7e:	f803 2f01 	strb.w	r2, [r3, #1]!
10003c82:	f080 80d1 	bcs.w	10003e28 <_ftoa+0x390>
10003c86:	2d20      	cmp	r5, #32
10003c88:	d1f7      	bne.n	10003c7a <_ftoa+0x1e2>
10003c8a:	9b07      	ldr	r3, [sp, #28]
10003c8c:	ac0e      	add	r4, sp, #56	@ 0x38
10003c8e:	e9cd b302 	strd	fp, r3, [sp, #8]
10003c92:	4641      	mov	r1, r8
10003c94:	464b      	mov	r3, r9
10003c96:	4638      	mov	r0, r7
10003c98:	9a0c      	ldr	r2, [sp, #48]	@ 0x30
10003c9a:	9501      	str	r5, [sp, #4]
10003c9c:	9400      	str	r4, [sp, #0]
10003c9e:	f7ff fdbf 	bl	10003820 <_out_rev>
10003ca2:	4682      	mov	sl, r0
10003ca4:	4650      	mov	r0, sl
10003ca6:	b017      	add	sp, #92	@ 0x5c
10003ca8:	e8bd 8ff0 	ldmia.w	sp!, {r4, r5, r6, r7, r8, r9, sl, fp, pc}
10003cac:	9b07      	ldr	r3, [sp, #28]
10003cae:	ed9d 7b04 	vldr	d7, [sp, #16]
10003cb2:	e9cd b323 	strd	fp, r3, [sp, #140]	@ 0x8c
10003cb6:	4641      	mov	r1, r8
10003cb8:	464b      	mov	r3, r9
10003cba:	4638      	mov	r0, r7
10003cbc:	9a0c      	ldr	r2, [sp, #48]	@ 0x30
10003cbe:	ed8d 7b20 	vstr	d7, [sp, #128]	@ 0x80
10003cc2:	9522      	str	r5, [sp, #136]	@ 0x88
10003cc4:	b017      	add	sp, #92	@ 0x5c
10003cc6:	e8bd 4ff0 	ldmia.w	sp!, {r4, r5, r6, r7, r8, r9, sl, fp, lr}
10003cca:	f000 b945 	b.w	10003f58 <_etoa>
10003cce:	0761      	lsls	r1, r4, #29
10003cd0:	4623      	mov	r3, r4
10003cd2:	bf4c      	ite	mi
10003cd4:	2304      	movmi	r3, #4
10003cd6:	2303      	movpl	r3, #3
10003cd8:	4641      	mov	r1, r8
10003cda:	9321      	str	r3, [sp, #132]	@ 0x84
10003cdc:	4638      	mov	r0, r7
10003cde:	464b      	mov	r3, r9
10003ce0:	9a07      	ldr	r2, [sp, #28]
10003ce2:	bf48      	it	mi
10003ce4:	4c30      	ldrmi	r4, [pc, #192]	@ (10003da8 <_ftoa+0x310>)
10003ce6:	e9cd b222 	strd	fp, r2, [sp, #136]	@ 0x88
10003cea:	bf58      	it	pl
10003cec:	4c2f      	ldrpl	r4, [pc, #188]	@ (10003dac <_ftoa+0x314>)
10003cee:	9a0c      	ldr	r2, [sp, #48]	@ 0x30
10003cf0:	9420      	str	r4, [sp, #128]	@ 0x80
10003cf2:	b017      	add	sp, #92	@ 0x5c
10003cf4:	e8bd 4ff0 	ldmia.w	sp!, {r4, r5, r6, r7, r8, r9, sl, fp, lr}
10003cf8:	f7ff bd92 	b.w	10003820 <_out_rev>
10003cfc:	e9dd 2304 	ldrd	r2, r3, [sp, #16]
10003d00:	2000      	movs	r0, #0
10003d02:	2100      	movs	r1, #0
10003d04:	f7ff fc2c 	bl	10003560 <__wrap___aeabi_dsub>
10003d08:	2301      	movs	r3, #1
10003d0a:	e9cd 0104 	strd	r0, r1, [sp, #16]
10003d0e:	930d      	str	r3, [sp, #52]	@ 0x34
10003d10:	4623      	mov	r3, r4
10003d12:	e70d      	b.n	10003b30 <_ftoa+0x98>
10003d14:	4623      	mov	r3, r4
10003d16:	079c      	lsls	r4, r3, #30
10003d18:	f040 80aa 	bne.w	10003e70 <_ftoa+0x3d8>
10003d1c:	f1bb 0f04 	cmp.w	fp, #4
10003d20:	f240 80a6 	bls.w	10003e70 <_ftoa+0x3d8>
10003d24:	9b0c      	ldr	r3, [sp, #48]	@ 0x30
10003d26:	461d      	mov	r5, r3
10003d28:	1f1c      	subs	r4, r3, #4
10003d2a:	eb04 0a0b 	add.w	sl, r4, fp
10003d2e:	462a      	mov	r2, r5
10003d30:	464b      	mov	r3, r9
10003d32:	4641      	mov	r1, r8
10003d34:	2020      	movs	r0, #32
10003d36:	3501      	adds	r5, #1
10003d38:	47b8      	blx	r7
10003d3a:	45aa      	cmp	sl, r5
10003d3c:	d1f7      	bne.n	10003d2e <_ftoa+0x296>
10003d3e:	4655      	mov	r5, sl
10003d40:	4c1b      	ldr	r4, [pc, #108]	@ (10003db0 <_ftoa+0x318>)
10003d42:	1f26      	subs	r6, r4, #4
10003d44:	f814 0d01 	ldrb.w	r0, [r4, #-1]!
10003d48:	462a      	mov	r2, r5
10003d4a:	464b      	mov	r3, r9
10003d4c:	4641      	mov	r1, r8
10003d4e:	47b8      	blx	r7
10003d50:	42b4      	cmp	r4, r6
10003d52:	f105 0501 	add.w	r5, r5, #1
10003d56:	d1f5      	bne.n	10003d44 <_ftoa+0x2ac>
10003d58:	9b07      	ldr	r3, [sp, #28]
10003d5a:	f10a 0a04 	add.w	sl, sl, #4
10003d5e:	0798      	lsls	r0, r3, #30
10003d60:	d5a0      	bpl.n	10003ca4 <_ftoa+0x20c>
10003d62:	9c0c      	ldr	r4, [sp, #48]	@ 0x30
10003d64:	ebaa 0304 	sub.w	r3, sl, r4
10003d68:	459b      	cmp	fp, r3
10003d6a:	d99b      	bls.n	10003ca4 <_ftoa+0x20c>
10003d6c:	4652      	mov	r2, sl
10003d6e:	464b      	mov	r3, r9
10003d70:	4641      	mov	r1, r8
10003d72:	2020      	movs	r0, #32
10003d74:	f10a 0a01 	add.w	sl, sl, #1
10003d78:	47b8      	blx	r7
10003d7a:	ebaa 0304 	sub.w	r3, sl, r4
10003d7e:	455b      	cmp	r3, fp
10003d80:	d3f4      	bcc.n	10003d6c <_ftoa+0x2d4>
10003d82:	e78f      	b.n	10003ca4 <_ftoa+0x20c>
10003d84:	f3af 8000 	nop.w
10003d88:	00000000 	.word	0x00000000
10003d8c:	41cdcd65 	.word	0x41cdcd65
10003d90:	00000000 	.word	0x00000000
10003d94:	c1cdcd65 	.word	0xc1cdcd65
10003d98:	7fefffff 	.word	0x7fefffff
10003d9c:	100093c8 	.word	0x100093c8
10003da0:	3fe00000 	.word	0x3fe00000
10003da4:	66666667 	.word	0x66666667
10003da8:	100064d4 	.word	0x100064d4
10003dac:	100064dc 	.word	0x100064dc
10003db0:	100064e8 	.word	0x100064e8
10003db4:	cccccccd 	.word	0xcccccccd
10003db8:	2200      	movs	r2, #0
10003dba:	e9dd 010a 	ldrd	r0, r1, [sp, #40]	@ 0x28
10003dbe:	4b63      	ldr	r3, [pc, #396]	@ (10003f4c <_ftoa+0x4b4>)
10003dc0:	f7ff fcb0 	bl	10003724 <__wrap___aeabi_dcmplt>
10003dc4:	2800      	cmp	r0, #0
10003dc6:	f47f af08 	bne.w	10003bda <_ftoa+0x142>
10003dca:	f1ba 0f00 	cmp.w	sl, #0
10003dce:	d16a      	bne.n	10003ea6 <_ftoa+0x40e>
10003dd0:	f10a 0a01 	add.w	sl, sl, #1
10003dd4:	2e00      	cmp	r6, #0
10003dd6:	f47f af03 	bne.w	10003be0 <_ftoa+0x148>
10003dda:	4620      	mov	r0, r4
10003ddc:	f7ff fc48 	bl	10003670 <__wrap___aeabi_i2d>
10003de0:	4602      	mov	r2, r0
10003de2:	460b      	mov	r3, r1
10003de4:	e9dd 0104 	ldrd	r0, r1, [sp, #16]
10003de8:	f7ff fbba 	bl	10003560 <__wrap___aeabi_dsub>
10003dec:	4602      	mov	r2, r0
10003dee:	460b      	mov	r3, r1
10003df0:	e9cd 2304 	strd	r2, r3, [sp, #16]
10003df4:	2200      	movs	r2, #0
10003df6:	4b55      	ldr	r3, [pc, #340]	@ (10003f4c <_ftoa+0x4b4>)
10003df8:	f7ff fc94 	bl	10003724 <__wrap___aeabi_dcmplt>
10003dfc:	2800      	cmp	r0, #0
10003dfe:	f47f af0c 	bne.w	10003c1a <_ftoa+0x182>
10003e02:	e9dd 0104 	ldrd	r0, r1, [sp, #16]
10003e06:	2200      	movs	r2, #0
10003e08:	4b50      	ldr	r3, [pc, #320]	@ (10003f4c <_ftoa+0x4b4>)
10003e0a:	f7ff fcc7 	bl	1000379c <__wrap___aeabi_dcmpgt>
10003e0e:	2800      	cmp	r0, #0
10003e10:	f47f af03 	bne.w	10003c1a <_ftoa+0x182>
10003e14:	3401      	adds	r4, #1
10003e16:	f024 0401 	bic.w	r4, r4, #1
10003e1a:	e6fe      	b.n	10003c1a <_ftoa+0x182>
10003e1c:	9b07      	ldr	r3, [sp, #28]
10003e1e:	f003 0303 	and.w	r3, r3, #3
10003e22:	2b01      	cmp	r3, #1
10003e24:	f000 8082 	beq.w	10003f2c <_ftoa+0x494>
10003e28:	2d20      	cmp	r5, #32
10003e2a:	f43f af2e 	beq.w	10003c8a <_ftoa+0x1f2>
10003e2e:	9b0d      	ldr	r3, [sp, #52]	@ 0x34
10003e30:	b37b      	cbz	r3, 10003e92 <_ftoa+0x3fa>
10003e32:	222d      	movs	r2, #45	@ 0x2d
10003e34:	eb0d 0305 	add.w	r3, sp, r5
10003e38:	f883 2038 	strb.w	r2, [r3, #56]	@ 0x38
10003e3c:	3501      	adds	r5, #1
10003e3e:	e724      	b.n	10003c8a <_ftoa+0x1f2>
10003e40:	2b20      	cmp	r3, #32
10003e42:	f43f aee9 	beq.w	10003c18 <_ftoa+0x180>
10003e46:	aa0e      	add	r2, sp, #56	@ 0x38
10003e48:	4415      	add	r5, r2
10003e4a:	441e      	add	r6, r3
10003e4c:	2230      	movs	r2, #48	@ 0x30
10003e4e:	e004      	b.n	10003e5a <_ftoa+0x3c2>
10003e50:	2b20      	cmp	r3, #32
10003e52:	f805 2f01 	strb.w	r2, [r5, #1]!
10003e56:	f43f aedf 	beq.w	10003c18 <_ftoa+0x180>
10003e5a:	429e      	cmp	r6, r3
10003e5c:	f103 0301 	add.w	r3, r3, #1
10003e60:	d1f6      	bne.n	10003e50 <_ftoa+0x3b8>
10003e62:	222e      	movs	r2, #46	@ 0x2e
10003e64:	eb0d 0306 	add.w	r3, sp, r6
10003e68:	f883 2038 	strb.w	r2, [r3, #56]	@ 0x38
10003e6c:	1c75      	adds	r5, r6, #1
10003e6e:	e6d4      	b.n	10003c1a <_ftoa+0x182>
10003e70:	f8dd a030 	ldr.w	sl, [sp, #48]	@ 0x30
10003e74:	e763      	b.n	10003d3e <_ftoa+0x2a6>
10003e76:	2520      	movs	r5, #32
10003e78:	e66e      	b.n	10003b58 <_ftoa+0xc0>
10003e7a:	9b07      	ldr	r3, [sp, #28]
10003e7c:	f013 0f0c 	tst.w	r3, #12
10003e80:	d050      	beq.n	10003f24 <_ftoa+0x48c>
10003e82:	f10b 3bff 	add.w	fp, fp, #4294967295	@ 0xffffffff
10003e86:	45ab      	cmp	fp, r5
10003e88:	f63f aef2 	bhi.w	10003c70 <_ftoa+0x1d8>
10003e8c:	2d20      	cmp	r5, #32
10003e8e:	f43f aefc 	beq.w	10003c8a <_ftoa+0x1f2>
10003e92:	9b07      	ldr	r3, [sp, #28]
10003e94:	075a      	lsls	r2, r3, #29
10003e96:	d501      	bpl.n	10003e9c <_ftoa+0x404>
10003e98:	222b      	movs	r2, #43	@ 0x2b
10003e9a:	e7cb      	b.n	10003e34 <_ftoa+0x39c>
10003e9c:	071b      	lsls	r3, r3, #28
10003e9e:	f57f aef4 	bpl.w	10003c8a <_ftoa+0x1f2>
10003ea2:	2220      	movs	r2, #32
10003ea4:	e7c6      	b.n	10003e34 <_ftoa+0x39c>
10003ea6:	f01a 0f01 	tst.w	sl, #1
10003eaa:	f43f ae96 	beq.w	10003bda <_ftoa+0x142>
10003eae:	e78f      	b.n	10003dd0 <_ftoa+0x338>
10003eb0:	07a6      	lsls	r6, r4, #30
10003eb2:	d134      	bne.n	10003f1e <_ftoa+0x486>
10003eb4:	f1bb 0f03 	cmp.w	fp, #3
10003eb8:	d931      	bls.n	10003f1e <_ftoa+0x486>
10003eba:	9b0c      	ldr	r3, [sp, #48]	@ 0x30
10003ebc:	461d      	mov	r5, r3
10003ebe:	1edc      	subs	r4, r3, #3
10003ec0:	eb04 0a0b 	add.w	sl, r4, fp
10003ec4:	462a      	mov	r2, r5
10003ec6:	464b      	mov	r3, r9
10003ec8:	4641      	mov	r1, r8
10003eca:	2020      	movs	r0, #32
10003ecc:	3501      	adds	r5, #1
10003ece:	47b8      	blx	r7
10003ed0:	4555      	cmp	r5, sl
10003ed2:	d1f7      	bne.n	10003ec4 <_ftoa+0x42c>
10003ed4:	4655      	mov	r5, sl
10003ed6:	4c1e      	ldr	r4, [pc, #120]	@ (10003f50 <_ftoa+0x4b8>)
10003ed8:	1ee6      	subs	r6, r4, #3
10003eda:	f814 0d01 	ldrb.w	r0, [r4, #-1]!
10003ede:	462a      	mov	r2, r5
10003ee0:	464b      	mov	r3, r9
10003ee2:	4641      	mov	r1, r8
10003ee4:	47b8      	blx	r7
10003ee6:	42a6      	cmp	r6, r4
10003ee8:	f105 0501 	add.w	r5, r5, #1
10003eec:	d1f5      	bne.n	10003eda <_ftoa+0x442>
10003eee:	9b07      	ldr	r3, [sp, #28]
10003ef0:	f10a 0a03 	add.w	sl, sl, #3
10003ef4:	079d      	lsls	r5, r3, #30
10003ef6:	f57f aed5 	bpl.w	10003ca4 <_ftoa+0x20c>
10003efa:	9c0c      	ldr	r4, [sp, #48]	@ 0x30
10003efc:	ebaa 0304 	sub.w	r3, sl, r4
10003f00:	459b      	cmp	fp, r3
10003f02:	f67f aecf 	bls.w	10003ca4 <_ftoa+0x20c>
10003f06:	4652      	mov	r2, sl
10003f08:	464b      	mov	r3, r9
10003f0a:	4641      	mov	r1, r8
10003f0c:	2020      	movs	r0, #32
10003f0e:	f10a 0a01 	add.w	sl, sl, #1
10003f12:	47b8      	blx	r7
10003f14:	ebaa 0304 	sub.w	r3, sl, r4
10003f18:	459b      	cmp	fp, r3
10003f1a:	d8f4      	bhi.n	10003f06 <_ftoa+0x46e>
10003f1c:	e6c2      	b.n	10003ca4 <_ftoa+0x20c>
10003f1e:	f8dd a030 	ldr.w	sl, [sp, #48]	@ 0x30
10003f22:	e7d7      	b.n	10003ed4 <_ftoa+0x43c>
10003f24:	45ab      	cmp	fp, r5
10003f26:	f63f aea3 	bhi.w	10003c70 <_ftoa+0x1d8>
10003f2a:	e6ae      	b.n	10003c8a <_ftoa+0x1f2>
10003f2c:	f1bb 0f00 	cmp.w	fp, #0
10003f30:	f43f af7a 	beq.w	10003e28 <_ftoa+0x390>
10003f34:	9b0d      	ldr	r3, [sp, #52]	@ 0x34
10003f36:	2b00      	cmp	r3, #0
10003f38:	d09f      	beq.n	10003e7a <_ftoa+0x3e2>
10003f3a:	f10b 3bff 	add.w	fp, fp, #4294967295	@ 0xffffffff
10003f3e:	455d      	cmp	r5, fp
10003f40:	f4ff ae96 	bcc.w	10003c70 <_ftoa+0x1d8>
10003f44:	2d20      	cmp	r5, #32
10003f46:	f47f af74 	bne.w	10003e32 <_ftoa+0x39a>
10003f4a:	e69e      	b.n	10003c8a <_ftoa+0x1f2>
10003f4c:	3fe00000 	.word	0x3fe00000
10003f50:	100064e3 	.word	0x100064e3
10003f54:	00000000 	.word	0x00000000

10003f58 <_etoa>:
10003f58:	e92d 4ff0 	stmdb	sp!, {r4, r5, r6, r7, r8, r9, sl, fp, lr}
10003f5c:	b09f      	sub	sp, #124	@ 0x7c
10003f5e:	9e2a      	ldr	r6, [sp, #168]	@ 0xa8
10003f60:	e9dd 4528 	ldrd	r4, r5, [sp, #160]	@ 0xa0
10003f64:	4607      	mov	r7, r0
10003f66:	4693      	mov	fp, r2
10003f68:	9108      	str	r1, [sp, #32]
10003f6a:	9309      	str	r3, [sp, #36]	@ 0x24
10003f6c:	4622      	mov	r2, r4
10003f6e:	462b      	mov	r3, r5
10003f70:	4620      	mov	r0, r4
10003f72:	4629      	mov	r1, r5
10003f74:	960e      	str	r6, [sp, #56]	@ 0x38
10003f76:	e9dd a62b 	ldrd	sl, r6, [sp, #172]	@ 0xac
10003f7a:	f7ff fbc1 	bl	10003700 <__wrap___aeabi_dcmpun>
10003f7e:	2800      	cmp	r0, #0
10003f80:	f040 80be 	bne.w	10004100 <_etoa+0x1a8>
10003f84:	4620      	mov	r0, r4
10003f86:	4629      	mov	r1, r5
10003f88:	f04f 32ff 	mov.w	r2, #4294967295	@ 0xffffffff
10003f8c:	4b78      	ldr	r3, [pc, #480]	@ (10004170 <_etoa+0x218>)
10003f8e:	f7ff fc05 	bl	1000379c <__wrap___aeabi_dcmpgt>
10003f92:	2800      	cmp	r0, #0
10003f94:	f040 80b4 	bne.w	10004100 <_etoa+0x1a8>
10003f98:	4620      	mov	r0, r4
10003f9a:	4629      	mov	r1, r5
10003f9c:	f04f 32ff 	mov.w	r2, #4294967295	@ 0xffffffff
10003fa0:	f46f 1380 	mvn.w	r3, #1048576	@ 0x100000
10003fa4:	f7ff fbbe 	bl	10003724 <__wrap___aeabi_dcmplt>
10003fa8:	2800      	cmp	r0, #0
10003faa:	f040 80a9 	bne.w	10004100 <_etoa+0x1a8>
10003fae:	4620      	mov	r0, r4
10003fb0:	4629      	mov	r1, r5
10003fb2:	2200      	movs	r2, #0
10003fb4:	2300      	movs	r3, #0
10003fb6:	f7ff fbb5 	bl	10003724 <__wrap___aeabi_dcmplt>
10003fba:	2800      	cmp	r0, #0
10003fbc:	f040 81d5 	bne.w	1000436a <_etoa+0x412>
10003fc0:	e9cd 450a 	strd	r4, r5, [sp, #40]	@ 0x28
10003fc4:	e9dd 230a 	ldrd	r2, r3, [sp, #40]	@ 0x28
10003fc8:	4690      	mov	r8, r2
10003fca:	4699      	mov	r9, r3
10003fcc:	f406 6200 	and.w	r2, r6, #2048	@ 0x800
10003fd0:	f416 6380 	ands.w	r3, r6, #1024	@ 0x400
10003fd4:	920f      	str	r2, [sp, #60]	@ 0x3c
10003fd6:	9313      	str	r3, [sp, #76]	@ 0x4c
10003fd8:	f040 80a1 	bne.w	1000411e <_etoa+0x1c6>
10003fdc:	ea58 0309 	orrs.w	r3, r8, r9
10003fe0:	f040 80ca 	bne.w	10004178 <_etoa+0x220>
10003fe4:	2a00      	cmp	r2, #0
10003fe6:	f040 81e3 	bne.w	100043b0 <_etoa+0x458>
10003fea:	2306      	movs	r3, #6
10003fec:	930e      	str	r3, [sp, #56]	@ 0x38
10003fee:	f016 0202 	ands.w	r2, r6, #2
10003ff2:	9210      	str	r2, [sp, #64]	@ 0x40
10003ff4:	f040 81d4 	bne.w	100043a0 <_etoa+0x448>
10003ff8:	4653      	mov	r3, sl
10003ffa:	2b04      	cmp	r3, #4
10003ffc:	bf38      	it	cc
10003ffe:	2304      	movcc	r3, #4
10004000:	920c      	str	r2, [sp, #48]	@ 0x30
10004002:	2204      	movs	r2, #4
10004004:	3b04      	subs	r3, #4
10004006:	9212      	str	r2, [sp, #72]	@ 0x48
10004008:	930f      	str	r3, [sp, #60]	@ 0x3c
1000400a:	4620      	mov	r0, r4
1000400c:	4629      	mov	r1, r5
1000400e:	2200      	movs	r2, #0
10004010:	2300      	movs	r3, #0
10004012:	f7ff fb87 	bl	10003724 <__wrap___aeabi_dcmplt>
10004016:	2800      	cmp	r0, #0
10004018:	f040 81f3 	bne.w	10004402 <_etoa+0x4aa>
1000401c:	ed9d 7b0a 	vldr	d7, [sp, #40]	@ 0x28
10004020:	9b0f      	ldr	r3, [sp, #60]	@ 0x3c
10004022:	465a      	mov	r2, fp
10004024:	9303      	str	r3, [sp, #12]
10004026:	9b0e      	ldr	r3, [sp, #56]	@ 0x38
10004028:	ed8d 7b00 	vstr	d7, [sp]
1000402c:	9302      	str	r3, [sp, #8]
1000402e:	f426 6300 	bic.w	r3, r6, #2048	@ 0x800
10004032:	9304      	str	r3, [sp, #16]
10004034:	4638      	mov	r0, r7
10004036:	9b09      	ldr	r3, [sp, #36]	@ 0x24
10004038:	9908      	ldr	r1, [sp, #32]
1000403a:	f7ff fd2d 	bl	10003a98 <_ftoa>
1000403e:	4602      	mov	r2, r0
10004040:	f016 0f20 	tst.w	r6, #32
10004044:	9b09      	ldr	r3, [sp, #36]	@ 0x24
10004046:	9908      	ldr	r1, [sp, #32]
10004048:	bf0c      	ite	eq
1000404a:	2065      	moveq	r0, #101	@ 0x65
1000404c:	2045      	movne	r0, #69	@ 0x45
1000404e:	f102 0801 	add.w	r8, r2, #1
10004052:	47b8      	blx	r7
10004054:	9a0c      	ldr	r2, [sp, #48]	@ 0x30
10004056:	9b12      	ldr	r3, [sp, #72]	@ 0x48
10004058:	ac16      	add	r4, sp, #88	@ 0x58
1000405a:	1e5d      	subs	r5, r3, #1
1000405c:	ea82 73e2 	eor.w	r3, r2, r2, asr #31
10004060:	eba3 73e2 	sub.w	r3, r3, r2, asr #31
10004064:	0fd1      	lsrs	r1, r2, #31
10004066:	2600      	movs	r6, #0
10004068:	4622      	mov	r2, r4
1000406a:	4699      	mov	r9, r3
1000406c:	f8df c104 	ldr.w	ip, [pc, #260]	@ 10004174 <_etoa+0x21c>
10004070:	e001      	b.n	10004076 <_etoa+0x11e>
10004072:	2e20      	cmp	r6, #32
10004074:	d010      	beq.n	10004098 <_etoa+0x140>
10004076:	46ce      	mov	lr, r9
10004078:	fbac 3009 	umull	r3, r0, ip, r9
1000407c:	08c0      	lsrs	r0, r0, #3
1000407e:	eb00 0380 	add.w	r3, r0, r0, lsl #2
10004082:	eba9 0343 	sub.w	r3, r9, r3, lsl #1
10004086:	3330      	adds	r3, #48	@ 0x30
10004088:	f1be 0f09 	cmp.w	lr, #9
1000408c:	4681      	mov	r9, r0
1000408e:	f106 0601 	add.w	r6, r6, #1
10004092:	f802 3b01 	strb.w	r3, [r2], #1
10004096:	d8ec      	bhi.n	10004072 <_etoa+0x11a>
10004098:	2305      	movs	r3, #5
1000409a:	2000      	movs	r0, #0
1000409c:	9306      	str	r3, [sp, #24]
1000409e:	230a      	movs	r3, #10
100040a0:	9505      	str	r5, [sp, #20]
100040a2:	9400      	str	r4, [sp, #0]
100040a4:	9d09      	ldr	r5, [sp, #36]	@ 0x24
100040a6:	9c08      	ldr	r4, [sp, #32]
100040a8:	4642      	mov	r2, r8
100040aa:	e9cd 3003 	strd	r3, r0, [sp, #12]
100040ae:	e9cd 6101 	strd	r6, r1, [sp, #4]
100040b2:	462b      	mov	r3, r5
100040b4:	4621      	mov	r1, r4
100040b6:	4638      	mov	r0, r7
100040b8:	f7ff fc00 	bl	100038bc <_ntoa_format>
100040bc:	9a10      	ldr	r2, [sp, #64]	@ 0x40
100040be:	4680      	mov	r8, r0
100040c0:	b1d2      	cbz	r2, 100040f8 <_etoa+0x1a0>
100040c2:	eba0 060b 	sub.w	r6, r0, fp
100040c6:	45b2      	cmp	sl, r6
100040c8:	d916      	bls.n	100040f8 <_etoa+0x1a0>
100040ca:	eb0b 0206 	add.w	r2, fp, r6
100040ce:	462b      	mov	r3, r5
100040d0:	4621      	mov	r1, r4
100040d2:	2020      	movs	r0, #32
100040d4:	3601      	adds	r6, #1
100040d6:	47b8      	blx	r7
100040d8:	45b2      	cmp	sl, r6
100040da:	d8f6      	bhi.n	100040ca <_etoa+0x172>
100040dc:	f10b 33ff 	add.w	r3, fp, #4294967295	@ 0xffffffff
100040e0:	4453      	add	r3, sl
100040e2:	f1cb 0201 	rsb	r2, fp, #1
100040e6:	eba3 0308 	sub.w	r3, r3, r8
100040ea:	4442      	add	r2, r8
100040ec:	4592      	cmp	sl, r2
100040ee:	bf38      	it	cc
100040f0:	2300      	movcc	r3, #0
100040f2:	f108 0801 	add.w	r8, r8, #1
100040f6:	4498      	add	r8, r3
100040f8:	4640      	mov	r0, r8
100040fa:	b01f      	add	sp, #124	@ 0x7c
100040fc:	e8bd 8ff0 	ldmia.w	sp!, {r4, r5, r6, r7, r8, r9, sl, fp, pc}
10004100:	465a      	mov	r2, fp
10004102:	4638      	mov	r0, r7
10004104:	e9cd 4528 	strd	r4, r5, [sp, #160]	@ 0xa0
10004108:	e9cd a62b 	strd	sl, r6, [sp, #172]	@ 0xac
1000410c:	9c0e      	ldr	r4, [sp, #56]	@ 0x38
1000410e:	9b09      	ldr	r3, [sp, #36]	@ 0x24
10004110:	9908      	ldr	r1, [sp, #32]
10004112:	942a      	str	r4, [sp, #168]	@ 0xa8
10004114:	b01f      	add	sp, #124	@ 0x7c
10004116:	e8bd 4ff0 	ldmia.w	sp!, {r4, r5, r6, r7, r8, r9, sl, fp, lr}
1000411a:	f7ff bcbd 	b.w	10003a98 <_ftoa>
1000411e:	ea58 0309 	orrs.w	r3, r8, r9
10004122:	d12b      	bne.n	1000417c <_etoa+0x224>
10004124:	2a00      	cmp	r2, #0
10004126:	f43f af62 	beq.w	10003fee <_etoa+0x96>
1000412a:	2300      	movs	r3, #0
1000412c:	930c      	str	r3, [sp, #48]	@ 0x30
1000412e:	9b0e      	ldr	r3, [sp, #56]	@ 0x38
10004130:	9a0c      	ldr	r2, [sp, #48]	@ 0x30
10004132:	4293      	cmp	r3, r2
10004134:	f300 81b9 	bgt.w	100044aa <_etoa+0x552>
10004138:	f04f 0800 	mov.w	r8, #0
1000413c:	4620      	mov	r0, r4
1000413e:	4629      	mov	r1, r5
10004140:	2200      	movs	r2, #0
10004142:	2300      	movs	r3, #0
10004144:	f7ff faee 	bl	10003724 <__wrap___aeabi_dcmplt>
10004148:	2800      	cmp	r0, #0
1000414a:	f040 8113 	bne.w	10004374 <_etoa+0x41c>
1000414e:	ed9d 7b0a 	vldr	d7, [sp, #40]	@ 0x28
10004152:	f426 6600 	bic.w	r6, r6, #2048	@ 0x800
10004156:	f446 6680 	orr.w	r6, r6, #1024	@ 0x400
1000415a:	ed8d 7b28 	vstr	d7, [sp, #160]	@ 0xa0
1000415e:	465a      	mov	r2, fp
10004160:	4638      	mov	r0, r7
10004162:	e9cd 8a2a 	strd	r8, sl, [sp, #168]	@ 0xa8
10004166:	9b09      	ldr	r3, [sp, #36]	@ 0x24
10004168:	9908      	ldr	r1, [sp, #32]
1000416a:	962c      	str	r6, [sp, #176]	@ 0xb0
1000416c:	e7d2      	b.n	10004114 <_etoa+0x1bc>
1000416e:	bf00      	nop
10004170:	7fefffff 	.word	0x7fefffff
10004174:	cccccccd 	.word	0xcccccccd
10004178:	2306      	movs	r3, #6
1000417a:	930e      	str	r3, [sp, #56]	@ 0x38
1000417c:	f3c9 500a 	ubfx	r0, r9, #20, #11
10004180:	f2a0 30ff 	subw	r0, r0, #1023	@ 0x3ff
10004184:	f7ff fa74 	bl	10003670 <__wrap___aeabi_i2d>
10004188:	a3c1      	add	r3, pc, #772	@ (adr r3, 10004490 <_etoa+0x538>)
1000418a:	e9d3 2300 	ldrd	r2, r3, [r3]
1000418e:	f7ff f9fb 	bl	10003588 <__wrap___aeabi_dmul>
10004192:	a3c1      	add	r3, pc, #772	@ (adr r3, 10004498 <_etoa+0x540>)
10004194:	e9d3 2300 	ldrd	r2, r3, [r3]
10004198:	f7ff f9ce 	bl	10003538 <__wrap___aeabi_dadd>
1000419c:	f3c9 0913 	ubfx	r9, r9, #0, #20
100041a0:	e9cd 010c 	strd	r0, r1, [sp, #48]	@ 0x30
100041a4:	f049 517f 	orr.w	r1, r9, #1069547520	@ 0x3fc00000
100041a8:	4640      	mov	r0, r8
100041aa:	2200      	movs	r2, #0
100041ac:	4bb2      	ldr	r3, [pc, #712]	@ (10004478 <_etoa+0x520>)
100041ae:	f441 1140 	orr.w	r1, r1, #3145728	@ 0x300000
100041b2:	f7ff f9d5 	bl	10003560 <__wrap___aeabi_dsub>
100041b6:	a3a4      	add	r3, pc, #656	@ (adr r3, 10004448 <_etoa+0x4f0>)
100041b8:	e9d3 2300 	ldrd	r2, r3, [r3]
100041bc:	f7ff f9e4 	bl	10003588 <__wrap___aeabi_dmul>
100041c0:	4602      	mov	r2, r0
100041c2:	460b      	mov	r3, r1
100041c4:	e9dd 010c 	ldrd	r0, r1, [sp, #48]	@ 0x30
100041c8:	f7ff f9b6 	bl	10003538 <__wrap___aeabi_dadd>
100041cc:	f7ff fa74 	bl	100036b8 <__wrap___aeabi_d2iz>
100041d0:	900c      	str	r0, [sp, #48]	@ 0x30
100041d2:	f7ff fa4d 	bl	10003670 <__wrap___aeabi_i2d>
100041d6:	a39e      	add	r3, pc, #632	@ (adr r3, 10004450 <_etoa+0x4f8>)
100041d8:	e9d3 2300 	ldrd	r2, r3, [r3]
100041dc:	4680      	mov	r8, r0
100041de:	4689      	mov	r9, r1
100041e0:	f7ff f9d2 	bl	10003588 <__wrap___aeabi_dmul>
100041e4:	2200      	movs	r2, #0
100041e6:	4ba5      	ldr	r3, [pc, #660]	@ (1000447c <_etoa+0x524>)
100041e8:	f7ff f9a6 	bl	10003538 <__wrap___aeabi_dadd>
100041ec:	f7ff fa64 	bl	100036b8 <__wrap___aeabi_d2iz>
100041f0:	4603      	mov	r3, r0
100041f2:	4649      	mov	r1, r9
100041f4:	4640      	mov	r0, r8
100041f6:	9312      	str	r3, [sp, #72]	@ 0x48
100041f8:	a397      	add	r3, pc, #604	@ (adr r3, 10004458 <_etoa+0x500>)
100041fa:	e9d3 2300 	ldrd	r2, r3, [r3]
100041fe:	f7ff f9c3 	bl	10003588 <__wrap___aeabi_dmul>
10004202:	4680      	mov	r8, r0
10004204:	9812      	ldr	r0, [sp, #72]	@ 0x48
10004206:	4689      	mov	r9, r1
10004208:	f7ff fa32 	bl	10003670 <__wrap___aeabi_i2d>
1000420c:	a394      	add	r3, pc, #592	@ (adr r3, 10004460 <_etoa+0x508>)
1000420e:	e9d3 2300 	ldrd	r2, r3, [r3]
10004212:	f7ff f9b9 	bl	10003588 <__wrap___aeabi_dmul>
10004216:	4602      	mov	r2, r0
10004218:	460b      	mov	r3, r1
1000421a:	4640      	mov	r0, r8
1000421c:	4649      	mov	r1, r9
1000421e:	f7ff f99f 	bl	10003560 <__wrap___aeabi_dsub>
10004222:	4602      	mov	r2, r0
10004224:	460b      	mov	r3, r1
10004226:	4680      	mov	r8, r0
10004228:	4689      	mov	r9, r1
1000422a:	f7ff f9ad 	bl	10003588 <__wrap___aeabi_dmul>
1000422e:	4642      	mov	r2, r8
10004230:	464b      	mov	r3, r9
10004232:	e9cd 0110 	strd	r0, r1, [sp, #64]	@ 0x40
10004236:	4640      	mov	r0, r8
10004238:	4649      	mov	r1, r9
1000423a:	f7ff f97d 	bl	10003538 <__wrap___aeabi_dadd>
1000423e:	2200      	movs	r2, #0
10004240:	e9cd 0114 	strd	r0, r1, [sp, #80]	@ 0x50
10004244:	e9dd 0110 	ldrd	r0, r1, [sp, #64]	@ 0x40
10004248:	4b8d      	ldr	r3, [pc, #564]	@ (10004480 <_etoa+0x528>)
1000424a:	f7ff f9c3 	bl	100035d4 <__wrap___aeabi_ddiv>
1000424e:	2200      	movs	r2, #0
10004250:	4b8c      	ldr	r3, [pc, #560]	@ (10004484 <_etoa+0x52c>)
10004252:	f7ff f971 	bl	10003538 <__wrap___aeabi_dadd>
10004256:	4602      	mov	r2, r0
10004258:	460b      	mov	r3, r1
1000425a:	e9dd 0110 	ldrd	r0, r1, [sp, #64]	@ 0x40
1000425e:	f7ff f9b9 	bl	100035d4 <__wrap___aeabi_ddiv>
10004262:	2200      	movs	r2, #0
10004264:	4b88      	ldr	r3, [pc, #544]	@ (10004488 <_etoa+0x530>)
10004266:	f7ff f967 	bl	10003538 <__wrap___aeabi_dadd>
1000426a:	4602      	mov	r2, r0
1000426c:	460b      	mov	r3, r1
1000426e:	e9dd 0110 	ldrd	r0, r1, [sp, #64]	@ 0x40
10004272:	f7ff f9af 	bl	100035d4 <__wrap___aeabi_ddiv>
10004276:	4642      	mov	r2, r8
10004278:	464b      	mov	r3, r9
1000427a:	4680      	mov	r8, r0
1000427c:	4689      	mov	r9, r1
1000427e:	2000      	movs	r0, #0
10004280:	f04f 4180 	mov.w	r1, #1073741824	@ 0x40000000
10004284:	f7ff f96c 	bl	10003560 <__wrap___aeabi_dsub>
10004288:	4602      	mov	r2, r0
1000428a:	460b      	mov	r3, r1
1000428c:	4640      	mov	r0, r8
1000428e:	4649      	mov	r1, r9
10004290:	f7ff f952 	bl	10003538 <__wrap___aeabi_dadd>
10004294:	4602      	mov	r2, r0
10004296:	460b      	mov	r3, r1
10004298:	e9dd 0114 	ldrd	r0, r1, [sp, #80]	@ 0x50
1000429c:	f7ff f99a 	bl	100035d4 <__wrap___aeabi_ddiv>
100042a0:	2200      	movs	r2, #0
100042a2:	4b7a      	ldr	r3, [pc, #488]	@ (1000448c <_etoa+0x534>)
100042a4:	f7ff f948 	bl	10003538 <__wrap___aeabi_dadd>
100042a8:	9b12      	ldr	r3, [sp, #72]	@ 0x48
100042aa:	2200      	movs	r2, #0
100042ac:	f203 3cff 	addw	ip, r3, #1023	@ 0x3ff
100042b0:	ea4f 530c 	mov.w	r3, ip, lsl #20
100042b4:	f7ff f968 	bl	10003588 <__wrap___aeabi_dmul>
100042b8:	4680      	mov	r8, r0
100042ba:	4689      	mov	r9, r1
100042bc:	e9dd 010a 	ldrd	r0, r1, [sp, #40]	@ 0x28
100042c0:	4642      	mov	r2, r8
100042c2:	464b      	mov	r3, r9
100042c4:	f7ff fa2e 	bl	10003724 <__wrap___aeabi_dcmplt>
100042c8:	b150      	cbz	r0, 100042e0 <_etoa+0x388>
100042ca:	9b0c      	ldr	r3, [sp, #48]	@ 0x30
100042cc:	4640      	mov	r0, r8
100042ce:	3b01      	subs	r3, #1
100042d0:	4649      	mov	r1, r9
100042d2:	930c      	str	r3, [sp, #48]	@ 0x30
100042d4:	2200      	movs	r2, #0
100042d6:	4b6b      	ldr	r3, [pc, #428]	@ (10004484 <_etoa+0x52c>)
100042d8:	f7ff f97c 	bl	100035d4 <__wrap___aeabi_ddiv>
100042dc:	4680      	mov	r8, r0
100042de:	4689      	mov	r9, r1
100042e0:	9a0c      	ldr	r2, [sp, #48]	@ 0x30
100042e2:	4643      	mov	r3, r8
100042e4:	3263      	adds	r2, #99	@ 0x63
100042e6:	2ac6      	cmp	r2, #198	@ 0xc6
100042e8:	f006 0202 	and.w	r2, r6, #2
100042ec:	9210      	str	r2, [sp, #64]	@ 0x40
100042ee:	4649      	mov	r1, r9
100042f0:	9a0f      	ldr	r2, [sp, #60]	@ 0x3c
100042f2:	d82c      	bhi.n	1000434e <_etoa+0x3f6>
100042f4:	2a00      	cmp	r2, #0
100042f6:	d05e      	beq.n	100043b6 <_etoa+0x45e>
100042f8:	2204      	movs	r2, #4
100042fa:	9212      	str	r2, [sp, #72]	@ 0x48
100042fc:	430b      	orrs	r3, r1
100042fe:	f43f af16 	beq.w	1000412e <_etoa+0x1d6>
10004302:	e9dd 010a 	ldrd	r0, r1, [sp, #40]	@ 0x28
10004306:	a358      	add	r3, pc, #352	@ (adr r3, 10004468 <_etoa+0x510>)
10004308:	e9d3 2300 	ldrd	r2, r3, [r3]
1000430c:	f7ff fa32 	bl	10003774 <__wrap___aeabi_dcmpge>
10004310:	b148      	cbz	r0, 10004326 <_etoa+0x3ce>
10004312:	e9dd 010a 	ldrd	r0, r1, [sp, #40]	@ 0x28
10004316:	a356      	add	r3, pc, #344	@ (adr r3, 10004470 <_etoa+0x518>)
10004318:	e9d3 2300 	ldrd	r2, r3, [r3]
1000431c:	f7ff fa02 	bl	10003724 <__wrap___aeabi_dcmplt>
10004320:	2800      	cmp	r0, #0
10004322:	f47f af04 	bne.w	1000412e <_etoa+0x1d6>
10004326:	9b0e      	ldr	r3, [sp, #56]	@ 0x38
10004328:	2b00      	cmp	r3, #0
1000432a:	d050      	beq.n	100043ce <_etoa+0x476>
1000432c:	9a13      	ldr	r2, [sp, #76]	@ 0x4c
1000432e:	2a00      	cmp	r2, #0
10004330:	d07d      	beq.n	1000442e <_etoa+0x4d6>
10004332:	3b01      	subs	r3, #1
10004334:	930e      	str	r3, [sp, #56]	@ 0x38
10004336:	9b12      	ldr	r3, [sp, #72]	@ 0x48
10004338:	459a      	cmp	sl, r3
1000433a:	d905      	bls.n	10004348 <_etoa+0x3f0>
1000433c:	9b10      	ldr	r3, [sp, #64]	@ 0x40
1000433e:	2b00      	cmp	r3, #0
10004340:	f000 80ae 	beq.w	100044a0 <_etoa+0x548>
10004344:	2302      	movs	r3, #2
10004346:	9310      	str	r3, [sp, #64]	@ 0x40
10004348:	2300      	movs	r3, #0
1000434a:	930f      	str	r3, [sp, #60]	@ 0x3c
1000434c:	e044      	b.n	100043d8 <_etoa+0x480>
1000434e:	bb22      	cbnz	r2, 1000439a <_etoa+0x442>
10004350:	f1ba 0f05 	cmp.w	sl, #5
10004354:	d94f      	bls.n	100043f6 <_etoa+0x49e>
10004356:	f006 0302 	and.w	r3, r6, #2
1000435a:	2b00      	cmp	r3, #0
1000435c:	d149      	bne.n	100043f2 <_etoa+0x49a>
1000435e:	2305      	movs	r3, #5
10004360:	9312      	str	r3, [sp, #72]	@ 0x48
10004362:	f1aa 0305 	sub.w	r3, sl, #5
10004366:	930f      	str	r3, [sp, #60]	@ 0x3c
10004368:	e03a      	b.n	100043e0 <_etoa+0x488>
1000436a:	f105 4300 	add.w	r3, r5, #2147483648	@ 0x80000000
1000436e:	940a      	str	r4, [sp, #40]	@ 0x28
10004370:	930b      	str	r3, [sp, #44]	@ 0x2c
10004372:	e627      	b.n	10003fc4 <_etoa+0x6c>
10004374:	f426 6600 	bic.w	r6, r6, #2048	@ 0x800
10004378:	f446 6680 	orr.w	r6, r6, #1024	@ 0x400
1000437c:	4638      	mov	r0, r7
1000437e:	962c      	str	r6, [sp, #176]	@ 0xb0
10004380:	e9dd 670a 	ldrd	r6, r7, [sp, #40]	@ 0x28
10004384:	4634      	mov	r4, r6
10004386:	f107 4500 	add.w	r5, r7, #2147483648	@ 0x80000000
1000438a:	465a      	mov	r2, fp
1000438c:	e9cd 8a2a 	strd	r8, sl, [sp, #168]	@ 0xa8
10004390:	e9cd 4528 	strd	r4, r5, [sp, #160]	@ 0xa0
10004394:	9b09      	ldr	r3, [sp, #36]	@ 0x24
10004396:	9908      	ldr	r1, [sp, #32]
10004398:	e6bc      	b.n	10004114 <_etoa+0x1bc>
1000439a:	2205      	movs	r2, #5
1000439c:	9212      	str	r2, [sp, #72]	@ 0x48
1000439e:	e7ad      	b.n	100042fc <_etoa+0x3a4>
100043a0:	2300      	movs	r3, #0
100043a2:	2202      	movs	r2, #2
100043a4:	e9cd 320f 	strd	r3, r2, [sp, #60]	@ 0x3c
100043a8:	2204      	movs	r2, #4
100043aa:	930c      	str	r3, [sp, #48]	@ 0x30
100043ac:	9212      	str	r2, [sp, #72]	@ 0x48
100043ae:	e62c      	b.n	1000400a <_etoa+0xb2>
100043b0:	f04f 0805 	mov.w	r8, #5
100043b4:	e6c2      	b.n	1000413c <_etoa+0x1e4>
100043b6:	f1ba 0f04 	cmp.w	sl, #4
100043ba:	d91f      	bls.n	100043fc <_etoa+0x4a4>
100043bc:	9b10      	ldr	r3, [sp, #64]	@ 0x40
100043be:	2b00      	cmp	r3, #0
100043c0:	d178      	bne.n	100044b4 <_etoa+0x55c>
100043c2:	2304      	movs	r3, #4
100043c4:	9312      	str	r3, [sp, #72]	@ 0x48
100043c6:	f1aa 0304 	sub.w	r3, sl, #4
100043ca:	930f      	str	r3, [sp, #60]	@ 0x3c
100043cc:	e004      	b.n	100043d8 <_etoa+0x480>
100043ce:	9b12      	ldr	r3, [sp, #72]	@ 0x48
100043d0:	459a      	cmp	sl, r3
100043d2:	d831      	bhi.n	10004438 <_etoa+0x4e0>
100043d4:	9b0e      	ldr	r3, [sp, #56]	@ 0x38
100043d6:	930f      	str	r3, [sp, #60]	@ 0x3c
100043d8:	9b0c      	ldr	r3, [sp, #48]	@ 0x30
100043da:	2b00      	cmp	r3, #0
100043dc:	f43f ae15 	beq.w	1000400a <_etoa+0xb2>
100043e0:	e9dd 010a 	ldrd	r0, r1, [sp, #40]	@ 0x28
100043e4:	4642      	mov	r2, r8
100043e6:	464b      	mov	r3, r9
100043e8:	f7ff f8f4 	bl	100035d4 <__wrap___aeabi_ddiv>
100043ec:	e9cd 010a 	strd	r0, r1, [sp, #40]	@ 0x28
100043f0:	e60b      	b.n	1000400a <_etoa+0xb2>
100043f2:	2302      	movs	r3, #2
100043f4:	9310      	str	r3, [sp, #64]	@ 0x40
100043f6:	2305      	movs	r3, #5
100043f8:	9312      	str	r3, [sp, #72]	@ 0x48
100043fa:	e7f1      	b.n	100043e0 <_etoa+0x488>
100043fc:	2304      	movs	r3, #4
100043fe:	9312      	str	r3, [sp, #72]	@ 0x48
10004400:	e7ea      	b.n	100043d8 <_etoa+0x480>
10004402:	e9dd 450a 	ldrd	r4, r5, [sp, #40]	@ 0x28
10004406:	46a0      	mov	r8, r4
10004408:	9b0f      	ldr	r3, [sp, #60]	@ 0x3c
1000440a:	f105 4900 	add.w	r9, r5, #2147483648	@ 0x80000000
1000440e:	9303      	str	r3, [sp, #12]
10004410:	9b0e      	ldr	r3, [sp, #56]	@ 0x38
10004412:	465a      	mov	r2, fp
10004414:	9302      	str	r3, [sp, #8]
10004416:	f426 6300 	bic.w	r3, r6, #2048	@ 0x800
1000441a:	9304      	str	r3, [sp, #16]
1000441c:	4638      	mov	r0, r7
1000441e:	e9cd 8900 	strd	r8, r9, [sp]
10004422:	9b09      	ldr	r3, [sp, #36]	@ 0x24
10004424:	9908      	ldr	r1, [sp, #32]
10004426:	f7ff fb37 	bl	10003a98 <_ftoa>
1000442a:	4602      	mov	r2, r0
1000442c:	e608      	b.n	10004040 <_etoa+0xe8>
1000442e:	9b12      	ldr	r3, [sp, #72]	@ 0x48
10004430:	459a      	cmp	sl, r3
10004432:	d844      	bhi.n	100044be <_etoa+0x566>
10004434:	920f      	str	r2, [sp, #60]	@ 0x3c
10004436:	e7cf      	b.n	100043d8 <_etoa+0x480>
10004438:	9b10      	ldr	r3, [sp, #64]	@ 0x40
1000443a:	b38b      	cbz	r3, 100044a0 <_etoa+0x548>
1000443c:	9b0e      	ldr	r3, [sp, #56]	@ 0x38
1000443e:	930f      	str	r3, [sp, #60]	@ 0x3c
10004440:	2302      	movs	r3, #2
10004442:	9310      	str	r3, [sp, #64]	@ 0x40
10004444:	e7c8      	b.n	100043d8 <_etoa+0x480>
10004446:	bf00      	nop
10004448:	636f4361 	.word	0x636f4361
1000444c:	3fd287a7 	.word	0x3fd287a7
10004450:	0979a371 	.word	0x0979a371
10004454:	400a934f 	.word	0x400a934f
10004458:	bbb55516 	.word	0xbbb55516
1000445c:	40026bb1 	.word	0x40026bb1
10004460:	fefa39ef 	.word	0xfefa39ef
10004464:	3fe62e42 	.word	0x3fe62e42
10004468:	eb1c432d 	.word	0xeb1c432d
1000446c:	3f1a36e2 	.word	0x3f1a36e2
10004470:	00000000 	.word	0x00000000
10004474:	412e8480 	.word	0x412e8480
10004478:	3ff80000 	.word	0x3ff80000
1000447c:	3fe00000 	.word	0x3fe00000
10004480:	402c0000 	.word	0x402c0000
10004484:	40240000 	.word	0x40240000
10004488:	40180000 	.word	0x40180000
1000448c:	3ff00000 	.word	0x3ff00000
10004490:	509f79fb 	.word	0x509f79fb
10004494:	3fd34413 	.word	0x3fd34413
10004498:	8b60c8b3 	.word	0x8b60c8b3
1000449c:	3fc68a28 	.word	0x3fc68a28
100044a0:	9b12      	ldr	r3, [sp, #72]	@ 0x48
100044a2:	ebaa 0303 	sub.w	r3, sl, r3
100044a6:	930f      	str	r3, [sp, #60]	@ 0x3c
100044a8:	e796      	b.n	100043d8 <_etoa+0x480>
100044aa:	eba3 0802 	sub.w	r8, r3, r2
100044ae:	f108 38ff 	add.w	r8, r8, #4294967295	@ 0xffffffff
100044b2:	e643      	b.n	1000413c <_etoa+0x1e4>
100044b4:	2304      	movs	r3, #4
100044b6:	9312      	str	r3, [sp, #72]	@ 0x48
100044b8:	2302      	movs	r3, #2
100044ba:	9310      	str	r3, [sp, #64]	@ 0x40
100044bc:	e78c      	b.n	100043d8 <_etoa+0x480>
100044be:	9b10      	ldr	r3, [sp, #64]	@ 0x40
100044c0:	2b00      	cmp	r3, #0
100044c2:	d0ed      	beq.n	100044a0 <_etoa+0x548>
100044c4:	2302      	movs	r3, #2
100044c6:	920f      	str	r2, [sp, #60]	@ 0x3c
100044c8:	9310      	str	r3, [sp, #64]	@ 0x40
100044ca:	e785      	b.n	100043d8 <_etoa+0x480>

100044cc <_vsnprintf>:
100044cc:	e92d 4ff0 	stmdb	sp!, {r4, r5, r6, r7, r8, r9, sl, fp, lr}
100044d0:	b09b      	sub	sp, #108	@ 0x6c
100044d2:	9c24      	ldr	r4, [sp, #144]	@ 0x90
100044d4:	4d95      	ldr	r5, [pc, #596]	@ (1000472c <_vsnprintf+0x260>)
100044d6:	940a      	str	r4, [sp, #40]	@ 0x28
100044d8:	4c95      	ldr	r4, [pc, #596]	@ (10004730 <_vsnprintf+0x264>)
100044da:	f1b1 0a00 	subs.w	sl, r1, #0
100044de:	bf18      	it	ne
100044e0:	4683      	movne	fp, r0
100044e2:	6025      	str	r5, [r4, #0]
100044e4:	7818      	ldrb	r0, [r3, #0]
100044e6:	4c93      	ldr	r4, [pc, #588]	@ (10004734 <_vsnprintf+0x268>)
100044e8:	4691      	mov	r9, r2
100044ea:	bf08      	it	eq
100044ec:	46a3      	moveq	fp, r4
100044ee:	9309      	str	r3, [sp, #36]	@ 0x24
100044f0:	2800      	cmp	r0, #0
100044f2:	f000 8293 	beq.w	10004a1c <_vsnprintf+0x550>
100044f6:	f04f 0800 	mov.w	r8, #0
100044fa:	e00a      	b.n	10004512 <_vsnprintf+0x46>
100044fc:	4642      	mov	r2, r8
100044fe:	464b      	mov	r3, r9
10004500:	4651      	mov	r1, sl
10004502:	f108 0801 	add.w	r8, r8, #1
10004506:	47d8      	blx	fp
10004508:	9b09      	ldr	r3, [sp, #36]	@ 0x24
1000450a:	7818      	ldrb	r0, [r3, #0]
1000450c:	2800      	cmp	r0, #0
1000450e:	f000 80ce 	beq.w	100046ae <_vsnprintf+0x1e2>
10004512:	9b09      	ldr	r3, [sp, #36]	@ 0x24
10004514:	2825      	cmp	r0, #37	@ 0x25
10004516:	f103 0301 	add.w	r3, r3, #1
1000451a:	9309      	str	r3, [sp, #36]	@ 0x24
1000451c:	d1ee      	bne.n	100044fc <_vsnprintf+0x30>
1000451e:	461c      	mov	r4, r3
10004520:	2300      	movs	r3, #0
10004522:	4622      	mov	r2, r4
10004524:	f812 0b01 	ldrb.w	r0, [r2], #1
10004528:	f1a0 0120 	sub.w	r1, r0, #32
1000452c:	2910      	cmp	r1, #16
1000452e:	d80a      	bhi.n	10004546 <_vsnprintf+0x7a>
10004530:	e8df f001 	tbb	[pc, r1]
10004534:	3c090940 	.word	0x3c090940
10004538:	09090909 	.word	0x09090909
1000453c:	38090909 	.word	0x38090909
10004540:	09093409 	.word	0x09093409
10004544:	30          	.byte	0x30
10004545:	00          	.byte	0x00
10004546:	f1a0 0130 	sub.w	r1, r0, #48	@ 0x30
1000454a:	2909      	cmp	r1, #9
1000454c:	9409      	str	r4, [sp, #36]	@ 0x24
1000454e:	f240 808a 	bls.w	10004666 <_vsnprintf+0x19a>
10004552:	282a      	cmp	r0, #42	@ 0x2a
10004554:	f000 80f0 	beq.w	10004738 <_vsnprintf+0x26c>
10004558:	2500      	movs	r5, #0
1000455a:	282e      	cmp	r0, #46	@ 0x2e
1000455c:	f000 8096 	beq.w	1000468c <_vsnprintf+0x1c0>
10004560:	2600      	movs	r6, #0
10004562:	f1a0 0168 	sub.w	r1, r0, #104	@ 0x68
10004566:	2912      	cmp	r1, #18
10004568:	d82d      	bhi.n	100045c6 <_vsnprintf+0xfa>
1000456a:	e8df f011 	tbh	[pc, r1, lsl #1]
1000456e:	0149      	.short	0x0149
10004570:	0143002c 	.word	0x0143002c
10004574:	0138002c 	.word	0x0138002c
10004578:	002c002c 	.word	0x002c002c
1000457c:	002c002c 	.word	0x002c002c
10004580:	002c002c 	.word	0x002c002c
10004584:	0027002c 	.word	0x0027002c
10004588:	002c002c 	.word	0x002c002c
1000458c:	002c002c 	.word	0x002c002c
10004590:	0027002c 	.word	0x0027002c
10004594:	4614      	mov	r4, r2
10004596:	f043 0301 	orr.w	r3, r3, #1
1000459a:	e7c2      	b.n	10004522 <_vsnprintf+0x56>
1000459c:	4614      	mov	r4, r2
1000459e:	f043 0302 	orr.w	r3, r3, #2
100045a2:	e7be      	b.n	10004522 <_vsnprintf+0x56>
100045a4:	4614      	mov	r4, r2
100045a6:	f043 0304 	orr.w	r3, r3, #4
100045aa:	e7ba      	b.n	10004522 <_vsnprintf+0x56>
100045ac:	4614      	mov	r4, r2
100045ae:	f043 0310 	orr.w	r3, r3, #16
100045b2:	e7b6      	b.n	10004522 <_vsnprintf+0x56>
100045b4:	4614      	mov	r4, r2
100045b6:	f043 0308 	orr.w	r3, r3, #8
100045ba:	e7b2      	b.n	10004522 <_vsnprintf+0x56>
100045bc:	9909      	ldr	r1, [sp, #36]	@ 0x24
100045be:	7848      	ldrb	r0, [r1, #1]
100045c0:	f443 7380 	orr.w	r3, r3, #256	@ 0x100
100045c4:	3201      	adds	r2, #1
100045c6:	2867      	cmp	r0, #103	@ 0x67
100045c8:	9209      	str	r2, [sp, #36]	@ 0x24
100045ca:	d87e      	bhi.n	100046ca <_vsnprintf+0x1fe>
100045cc:	2824      	cmp	r0, #36	@ 0x24
100045ce:	f240 80c1 	bls.w	10004754 <_vsnprintf+0x288>
100045d2:	f1a0 0225 	sub.w	r2, r0, #37	@ 0x25
100045d6:	2a42      	cmp	r2, #66	@ 0x42
100045d8:	f200 80bc 	bhi.w	10004754 <_vsnprintf+0x288>
100045dc:	e8df f012 	tbh	[pc, r2, lsl #1]
100045e0:	00ba0150 	.word	0x00ba0150
100045e4:	00ba00ba 	.word	0x00ba00ba
100045e8:	00ba00ba 	.word	0x00ba00ba
100045ec:	00ba00ba 	.word	0x00ba00ba
100045f0:	00ba00ba 	.word	0x00ba00ba
100045f4:	00ba00ba 	.word	0x00ba00ba
100045f8:	00ba00ba 	.word	0x00ba00ba
100045fc:	00ba00ba 	.word	0x00ba00ba
10004600:	00ba00ba 	.word	0x00ba00ba
10004604:	00ba00ba 	.word	0x00ba00ba
10004608:	00ba00ba 	.word	0x00ba00ba
1000460c:	00ba00ba 	.word	0x00ba00ba
10004610:	00ba00ba 	.word	0x00ba00ba
10004614:	00ba00ba 	.word	0x00ba00ba
10004618:	00ba00ba 	.word	0x00ba00ba
1000461c:	00ba00ba 	.word	0x00ba00ba
10004620:	01370119 	.word	0x01370119
10004624:	00ba0119 	.word	0x00ba0119
10004628:	00ba00ba 	.word	0x00ba00ba
1000462c:	00ba00ba 	.word	0x00ba00ba
10004630:	00ba00ba 	.word	0x00ba00ba
10004634:	00ba00ba 	.word	0x00ba00ba
10004638:	00ba00ba 	.word	0x00ba00ba
1000463c:	00ba00ba 	.word	0x00ba00ba
10004640:	00ba00ba 	.word	0x00ba00ba
10004644:	01bc00ba 	.word	0x01bc00ba
10004648:	00ba00ba 	.word	0x00ba00ba
1000464c:	00ba00ba 	.word	0x00ba00ba
10004650:	00ba00ba 	.word	0x00ba00ba
10004654:	00ba00ba 	.word	0x00ba00ba
10004658:	01bc00ba 	.word	0x01bc00ba
1000465c:	01bc0158 	.word	0x01bc0158
10004660:	01370119 	.word	0x01370119
10004664:	0119      	.short	0x0119
10004666:	2500      	movs	r5, #0
10004668:	e000      	b.n	1000466c <_vsnprintf+0x1a0>
1000466a:	3201      	adds	r2, #1
1000466c:	eb05 0585 	add.w	r5, r5, r5, lsl #2
10004670:	eb00 0545 	add.w	r5, r0, r5, lsl #1
10004674:	7810      	ldrb	r0, [r2, #0]
10004676:	3d30      	subs	r5, #48	@ 0x30
10004678:	f1a0 0130 	sub.w	r1, r0, #48	@ 0x30
1000467c:	2909      	cmp	r1, #9
1000467e:	d9f4      	bls.n	1000466a <_vsnprintf+0x19e>
10004680:	282e      	cmp	r0, #46	@ 0x2e
10004682:	9209      	str	r2, [sp, #36]	@ 0x24
10004684:	f102 0201 	add.w	r2, r2, #1
10004688:	f47f af6a 	bne.w	10004560 <_vsnprintf+0x94>
1000468c:	9909      	ldr	r1, [sp, #36]	@ 0x24
1000468e:	f443 6380 	orr.w	r3, r3, #1024	@ 0x400
10004692:	7848      	ldrb	r0, [r1, #1]
10004694:	4611      	mov	r1, r2
10004696:	f1a0 0630 	sub.w	r6, r0, #48	@ 0x30
1000469a:	2e09      	cmp	r6, #9
1000469c:	f240 8121 	bls.w	100048e2 <_vsnprintf+0x416>
100046a0:	282a      	cmp	r0, #42	@ 0x2a
100046a2:	f000 812f 	beq.w	10004904 <_vsnprintf+0x438>
100046a6:	9209      	str	r2, [sp, #36]	@ 0x24
100046a8:	2600      	movs	r6, #0
100046aa:	3201      	adds	r2, #1
100046ac:	e759      	b.n	10004562 <_vsnprintf+0x96>
100046ae:	4644      	mov	r4, r8
100046b0:	45c1      	cmp	r9, r8
100046b2:	d801      	bhi.n	100046b8 <_vsnprintf+0x1ec>
100046b4:	f109 38ff 	add.w	r8, r9, #4294967295	@ 0xffffffff
100046b8:	464b      	mov	r3, r9
100046ba:	4642      	mov	r2, r8
100046bc:	4651      	mov	r1, sl
100046be:	2000      	movs	r0, #0
100046c0:	47d8      	blx	fp
100046c2:	4620      	mov	r0, r4
100046c4:	b01b      	add	sp, #108	@ 0x6c
100046c6:	e8bd 8ff0 	ldmia.w	sp!, {r4, r5, r6, r7, r8, r9, sl, fp, pc}
100046ca:	f1a0 0269 	sub.w	r2, r0, #105	@ 0x69
100046ce:	b2d2      	uxtb	r2, r2
100046d0:	2a0f      	cmp	r2, #15
100046d2:	d83f      	bhi.n	10004754 <_vsnprintf+0x288>
100046d4:	2101      	movs	r1, #1
100046d6:	f249 0741 	movw	r7, #36929	@ 0x9041
100046da:	4091      	lsls	r1, r2
100046dc:	4039      	ands	r1, r7
100046de:	f040 80f3 	bne.w	100048c8 <_vsnprintf+0x3fc>
100046e2:	2a0a      	cmp	r2, #10
100046e4:	d03d      	beq.n	10004762 <_vsnprintf+0x296>
100046e6:	2a07      	cmp	r2, #7
100046e8:	d134      	bne.n	10004754 <_vsnprintf+0x288>
100046ea:	9d0a      	ldr	r5, [sp, #40]	@ 0x28
100046ec:	f855 2b04 	ldr.w	r2, [r5], #4
100046f0:	2a00      	cmp	r2, #0
100046f2:	f000 8113 	beq.w	1000491c <_vsnprintf+0x450>
100046f6:	f043 0021 	orr.w	r0, r3, #33	@ 0x21
100046fa:	ab12      	add	r3, sp, #72	@ 0x48
100046fc:	461f      	mov	r7, r3
100046fe:	930b      	str	r3, [sp, #44]	@ 0x2c
10004700:	e003      	b.n	1000470a <_vsnprintf+0x23e>
10004702:	2920      	cmp	r1, #32
10004704:	f000 8114 	beq.w	10004930 <_vsnprintf+0x464>
10004708:	461a      	mov	r2, r3
1000470a:	f002 040f 	and.w	r4, r2, #15
1000470e:	4623      	mov	r3, r4
10004710:	2c09      	cmp	r4, #9
10004712:	bf94      	ite	ls
10004714:	3330      	addls	r3, #48	@ 0x30
10004716:	3337      	addhi	r3, #55	@ 0x37
10004718:	2a0f      	cmp	r2, #15
1000471a:	f807 3b01 	strb.w	r3, [r7], #1
1000471e:	f101 0101 	add.w	r1, r1, #1
10004722:	ea4f 1312 	mov.w	r3, r2, lsr #4
10004726:	d8ec      	bhi.n	10004702 <_vsnprintf+0x236>
10004728:	e102      	b.n	10004930 <_vsnprintf+0x464>
1000472a:	bf00      	nop
1000472c:	100044cd 	.word	0x100044cd
10004730:	200010a8 	.word	0x200010a8
10004734:	1000381d 	.word	0x1000381d
10004738:	990a      	ldr	r1, [sp, #40]	@ 0x28
1000473a:	9809      	ldr	r0, [sp, #36]	@ 0x24
1000473c:	f851 5b04 	ldr.w	r5, [r1], #4
10004740:	7840      	ldrb	r0, [r0, #1]
10004742:	2d00      	cmp	r5, #0
10004744:	e9cd 2109 	strd	r2, r1, [sp, #36]	@ 0x24
10004748:	bfbc      	itt	lt
1000474a:	f043 0302 	orrlt.w	r3, r3, #2
1000474e:	426d      	neglt	r5, r5
10004750:	3201      	adds	r2, #1
10004752:	e702      	b.n	1000455a <_vsnprintf+0x8e>
10004754:	4642      	mov	r2, r8
10004756:	464b      	mov	r3, r9
10004758:	4651      	mov	r1, sl
1000475a:	f108 0801 	add.w	r8, r8, #1
1000475e:	47d8      	blx	fp
10004760:	e6d2      	b.n	10004508 <_vsnprintf+0x3c>
10004762:	990a      	ldr	r1, [sp, #40]	@ 0x28
10004764:	2e00      	cmp	r6, #0
10004766:	f851 7b04 	ldr.w	r7, [r1], #4
1000476a:	bf18      	it	ne
1000476c:	4632      	movne	r2, r6
1000476e:	7838      	ldrb	r0, [r7, #0]
10004770:	bf08      	it	eq
10004772:	f04f 32ff 	moveq.w	r2, #4294967295	@ 0xffffffff
10004776:	2800      	cmp	r0, #0
10004778:	f000 837b 	beq.w	10004e72 <_vsnprintf+0x9a6>
1000477c:	18bc      	adds	r4, r7, r2
1000477e:	46a4      	mov	ip, r4
10004780:	463a      	mov	r2, r7
10004782:	e004      	b.n	1000478e <_vsnprintf+0x2c2>
10004784:	f812 4f01 	ldrb.w	r4, [r2, #1]!
10004788:	2c00      	cmp	r4, #0
1000478a:	f000 813f 	beq.w	10004a0c <_vsnprintf+0x540>
1000478e:	4594      	cmp	ip, r2
10004790:	d1f8      	bne.n	10004784 <_vsnprintf+0x2b8>
10004792:	4664      	mov	r4, ip
10004794:	1be4      	subs	r4, r4, r7
10004796:	055a      	lsls	r2, r3, #21
10004798:	f140 8122 	bpl.w	100049e0 <_vsnprintf+0x514>
1000479c:	42b4      	cmp	r4, r6
1000479e:	bf28      	it	cs
100047a0:	4634      	movcs	r4, r6
100047a2:	f013 0302 	ands.w	r3, r3, #2
100047a6:	f000 8288 	beq.w	10004cba <_vsnprintf+0x7ee>
100047aa:	2302      	movs	r3, #2
100047ac:	e9cd 510a 	strd	r5, r1, [sp, #40]	@ 0x28
100047b0:	4642      	mov	r2, r8
100047b2:	461d      	mov	r5, r3
100047b4:	4446      	add	r6, r8
100047b6:	e008      	b.n	100047ca <_vsnprintf+0x2fe>
100047b8:	464b      	mov	r3, r9
100047ba:	4651      	mov	r1, sl
100047bc:	47d8      	blx	fp
100047be:	f817 0f01 	ldrb.w	r0, [r7, #1]!
100047c2:	f108 0801 	add.w	r8, r8, #1
100047c6:	b110      	cbz	r0, 100047ce <_vsnprintf+0x302>
100047c8:	4642      	mov	r2, r8
100047ca:	4546      	cmp	r6, r8
100047cc:	d1f4      	bne.n	100047b8 <_vsnprintf+0x2ec>
100047ce:	462b      	mov	r3, r5
100047d0:	990b      	ldr	r1, [sp, #44]	@ 0x2c
100047d2:	9d0a      	ldr	r5, [sp, #40]	@ 0x28
100047d4:	2b00      	cmp	r3, #0
100047d6:	f040 8141 	bne.w	10004a5c <_vsnprintf+0x590>
100047da:	910a      	str	r1, [sp, #40]	@ 0x28
100047dc:	e694      	b.n	10004508 <_vsnprintf+0x3c>
100047de:	9909      	ldr	r1, [sp, #36]	@ 0x24
100047e0:	7848      	ldrb	r0, [r1, #1]
100047e2:	286c      	cmp	r0, #108	@ 0x6c
100047e4:	f47f aeec 	bne.w	100045c0 <_vsnprintf+0xf4>
100047e8:	460a      	mov	r2, r1
100047ea:	7888      	ldrb	r0, [r1, #2]
100047ec:	f443 7340 	orr.w	r3, r3, #768	@ 0x300
100047f0:	3203      	adds	r2, #3
100047f2:	e6e8      	b.n	100045c6 <_vsnprintf+0xfa>
100047f4:	9909      	ldr	r1, [sp, #36]	@ 0x24
100047f6:	f443 7300 	orr.w	r3, r3, #512	@ 0x200
100047fa:	7848      	ldrb	r0, [r1, #1]
100047fc:	3201      	adds	r2, #1
100047fe:	e6e2      	b.n	100045c6 <_vsnprintf+0xfa>
10004800:	9909      	ldr	r1, [sp, #36]	@ 0x24
10004802:	7848      	ldrb	r0, [r1, #1]
10004804:	2868      	cmp	r0, #104	@ 0x68
10004806:	f000 8103 	beq.w	10004a10 <_vsnprintf+0x544>
1000480a:	f043 0380 	orr.w	r3, r3, #128	@ 0x80
1000480e:	3201      	adds	r2, #1
10004810:	e6d9      	b.n	100045c6 <_vsnprintf+0xfa>
10004812:	2867      	cmp	r0, #103	@ 0x67
10004814:	f000 80d9 	beq.w	100049ca <_vsnprintf+0x4fe>
10004818:	2847      	cmp	r0, #71	@ 0x47
1000481a:	f000 80dc 	beq.w	100049d6 <_vsnprintf+0x50a>
1000481e:	2845      	cmp	r0, #69	@ 0x45
10004820:	f000 80db 	beq.w	100049da <_vsnprintf+0x50e>
10004824:	e9cd 5303 	strd	r5, r3, [sp, #12]
10004828:	9b0a      	ldr	r3, [sp, #40]	@ 0x28
1000482a:	9602      	str	r6, [sp, #8]
1000482c:	3307      	adds	r3, #7
1000482e:	f023 0307 	bic.w	r3, r3, #7
10004832:	461c      	mov	r4, r3
10004834:	4642      	mov	r2, r8
10004836:	e8f4 6702 	ldrd	r6, r7, [r4], #8
1000483a:	464b      	mov	r3, r9
1000483c:	4651      	mov	r1, sl
1000483e:	4658      	mov	r0, fp
10004840:	e9cd 6700 	strd	r6, r7, [sp]
10004844:	940a      	str	r4, [sp, #40]	@ 0x28
10004846:	f7ff fb87 	bl	10003f58 <_etoa>
1000484a:	4680      	mov	r8, r0
1000484c:	e65c      	b.n	10004508 <_vsnprintf+0x3c>
1000484e:	2846      	cmp	r0, #70	@ 0x46
10004850:	bf08      	it	eq
10004852:	f043 0320 	orreq.w	r3, r3, #32
10004856:	e9cd 5303 	strd	r5, r3, [sp, #12]
1000485a:	9b0a      	ldr	r3, [sp, #40]	@ 0x28
1000485c:	9602      	str	r6, [sp, #8]
1000485e:	3307      	adds	r3, #7
10004860:	f023 0307 	bic.w	r3, r3, #7
10004864:	461c      	mov	r4, r3
10004866:	4642      	mov	r2, r8
10004868:	e8f4 6702 	ldrd	r6, r7, [r4], #8
1000486c:	464b      	mov	r3, r9
1000486e:	4651      	mov	r1, sl
10004870:	4658      	mov	r0, fp
10004872:	e9cd 6700 	strd	r6, r7, [sp]
10004876:	940a      	str	r4, [sp, #40]	@ 0x28
10004878:	f7ff f90e 	bl	10003a98 <_ftoa>
1000487c:	4680      	mov	r8, r0
1000487e:	e643      	b.n	10004508 <_vsnprintf+0x3c>
10004880:	4642      	mov	r2, r8
10004882:	464b      	mov	r3, r9
10004884:	4651      	mov	r1, sl
10004886:	2025      	movs	r0, #37	@ 0x25
10004888:	f108 0801 	add.w	r8, r8, #1
1000488c:	47d8      	blx	fp
1000488e:	e63b      	b.n	10004508 <_vsnprintf+0x3c>
10004890:	9a0a      	ldr	r2, [sp, #40]	@ 0x28
10004892:	0799      	lsls	r1, r3, #30
10004894:	f102 0404 	add.w	r4, r2, #4
10004898:	f108 0601 	add.w	r6, r8, #1
1000489c:	f140 80c6 	bpl.w	10004a2c <_vsnprintf+0x560>
100048a0:	7810      	ldrb	r0, [r2, #0]
100048a2:	464b      	mov	r3, r9
100048a4:	4642      	mov	r2, r8
100048a6:	4651      	mov	r1, sl
100048a8:	47d8      	blx	fp
100048aa:	2d01      	cmp	r5, #1
100048ac:	bf88      	it	hi
100048ae:	44a8      	addhi	r8, r5
100048b0:	f240 81bd 	bls.w	10004c2e <_vsnprintf+0x762>
100048b4:	4632      	mov	r2, r6
100048b6:	464b      	mov	r3, r9
100048b8:	4651      	mov	r1, sl
100048ba:	2020      	movs	r0, #32
100048bc:	3601      	adds	r6, #1
100048be:	47d8      	blx	fp
100048c0:	4546      	cmp	r6, r8
100048c2:	d1f7      	bne.n	100048b4 <_vsnprintf+0x3e8>
100048c4:	940a      	str	r4, [sp, #40]	@ 0x28
100048c6:	e61f      	b.n	10004508 <_vsnprintf+0x3c>
100048c8:	286f      	cmp	r0, #111	@ 0x6f
100048ca:	f000 8081 	beq.w	100049d0 <_vsnprintf+0x504>
100048ce:	f240 8248 	bls.w	10004d62 <_vsnprintf+0x896>
100048d2:	2878      	cmp	r0, #120	@ 0x78
100048d4:	f000 8190 	beq.w	10004bf8 <_vsnprintf+0x72c>
100048d8:	270a      	movs	r7, #10
100048da:	f023 0310 	bic.w	r3, r3, #16
100048de:	46bc      	mov	ip, r7
100048e0:	e041      	b.n	10004966 <_vsnprintf+0x49a>
100048e2:	2600      	movs	r6, #0
100048e4:	eb06 0686 	add.w	r6, r6, r6, lsl #2
100048e8:	eb00 0046 	add.w	r0, r0, r6, lsl #1
100048ec:	f1a0 0630 	sub.w	r6, r0, #48	@ 0x30
100048f0:	f811 0f01 	ldrb.w	r0, [r1, #1]!
100048f4:	f1a0 0230 	sub.w	r2, r0, #48	@ 0x30
100048f8:	2a09      	cmp	r2, #9
100048fa:	d9f3      	bls.n	100048e4 <_vsnprintf+0x418>
100048fc:	460a      	mov	r2, r1
100048fe:	9109      	str	r1, [sp, #36]	@ 0x24
10004900:	3201      	adds	r2, #1
10004902:	e62e      	b.n	10004562 <_vsnprintf+0x96>
10004904:	e9dd 2109 	ldrd	r2, r1, [sp, #36]	@ 0x24
10004908:	f851 6b04 	ldr.w	r6, [r1], #4
1000490c:	7890      	ldrb	r0, [r2, #2]
1000490e:	3202      	adds	r2, #2
10004910:	9209      	str	r2, [sp, #36]	@ 0x24
10004912:	910a      	str	r1, [sp, #40]	@ 0x28
10004914:	3201      	adds	r2, #1
10004916:	ea26 76e6 	bic.w	r6, r6, r6, asr #31
1000491a:	e622      	b.n	10004562 <_vsnprintf+0x96>
1000491c:	f023 0010 	bic.w	r0, r3, #16
10004920:	f413 6280 	ands.w	r2, r3, #1024	@ 0x400
10004924:	f040 0021 	orr.w	r0, r0, #33	@ 0x21
10004928:	f43f aee7 	beq.w	100046fa <_vsnprintf+0x22e>
1000492c:	ab12      	add	r3, sp, #72	@ 0x48
1000492e:	930b      	str	r3, [sp, #44]	@ 0x2c
10004930:	9b0b      	ldr	r3, [sp, #44]	@ 0x2c
10004932:	9006      	str	r0, [sp, #24]
10004934:	9300      	str	r3, [sp, #0]
10004936:	2308      	movs	r3, #8
10004938:	2010      	movs	r0, #16
1000493a:	9305      	str	r3, [sp, #20]
1000493c:	2300      	movs	r3, #0
1000493e:	4642      	mov	r2, r8
10004940:	e9cd 3002 	strd	r3, r0, [sp, #8]
10004944:	9101      	str	r1, [sp, #4]
10004946:	464b      	mov	r3, r9
10004948:	4651      	mov	r1, sl
1000494a:	4658      	mov	r0, fp
1000494c:	9604      	str	r6, [sp, #16]
1000494e:	f7fe ffb5 	bl	100038bc <_ntoa_format>
10004952:	950a      	str	r5, [sp, #40]	@ 0x28
10004954:	4680      	mov	r8, r0
10004956:	e5d7      	b.n	10004508 <_vsnprintf+0x3c>
10004958:	2858      	cmp	r0, #88	@ 0x58
1000495a:	d062      	beq.n	10004a22 <_vsnprintf+0x556>
1000495c:	2862      	cmp	r0, #98	@ 0x62
1000495e:	f040 808f 	bne.w	10004a80 <_vsnprintf+0x5b4>
10004962:	2702      	movs	r7, #2
10004964:	46bc      	mov	ip, r7
10004966:	f413 6080 	ands.w	r0, r3, #1024	@ 0x400
1000496a:	f000 80dd 	beq.w	10004b28 <_vsnprintf+0x65c>
1000496e:	f023 030d 	bic.w	r3, r3, #13
10004972:	f413 7200 	ands.w	r2, r3, #512	@ 0x200
10004976:	f040 8181 	bne.w	10004c7c <_vsnprintf+0x7b0>
1000497a:	990a      	ldr	r1, [sp, #40]	@ 0x28
1000497c:	1d0f      	adds	r7, r1, #4
1000497e:	f413 7180 	ands.w	r1, r3, #256	@ 0x100
10004982:	f040 8237 	bne.w	10004df4 <_vsnprintf+0x928>
10004986:	065c      	lsls	r4, r3, #25
10004988:	9a0a      	ldr	r2, [sp, #40]	@ 0x28
1000498a:	f140 813b 	bpl.w	10004c04 <_vsnprintf+0x738>
1000498e:	7812      	ldrb	r2, [r2, #0]
10004990:	2a00      	cmp	r2, #0
10004992:	f040 814e 	bne.w	10004c32 <_vsnprintf+0x766>
10004996:	f023 0310 	bic.w	r3, r3, #16
1000499a:	2800      	cmp	r0, #0
1000499c:	f000 8149 	beq.w	10004c32 <_vsnprintf+0x766>
100049a0:	4611      	mov	r1, r2
100049a2:	aa12      	add	r2, sp, #72	@ 0x48
100049a4:	920b      	str	r2, [sp, #44]	@ 0x2c
100049a6:	e9cd 5305 	strd	r5, r3, [sp, #20]
100049aa:	e9cd c603 	strd	ip, r6, [sp, #12]
100049ae:	9101      	str	r1, [sp, #4]
100049b0:	9b0b      	ldr	r3, [sp, #44]	@ 0x2c
100049b2:	4642      	mov	r2, r8
100049b4:	9300      	str	r3, [sp, #0]
100049b6:	2300      	movs	r3, #0
100049b8:	4651      	mov	r1, sl
100049ba:	9302      	str	r3, [sp, #8]
100049bc:	4658      	mov	r0, fp
100049be:	464b      	mov	r3, r9
100049c0:	f7fe ff7c 	bl	100038bc <_ntoa_format>
100049c4:	970a      	str	r7, [sp, #40]	@ 0x28
100049c6:	4680      	mov	r8, r0
100049c8:	e59e      	b.n	10004508 <_vsnprintf+0x3c>
100049ca:	f443 6300 	orr.w	r3, r3, #2048	@ 0x800
100049ce:	e729      	b.n	10004824 <_vsnprintf+0x358>
100049d0:	2708      	movs	r7, #8
100049d2:	46bc      	mov	ip, r7
100049d4:	e7c7      	b.n	10004966 <_vsnprintf+0x49a>
100049d6:	f443 6300 	orr.w	r3, r3, #2048	@ 0x800
100049da:	f043 0320 	orr.w	r3, r3, #32
100049de:	e721      	b.n	10004824 <_vsnprintf+0x358>
100049e0:	f013 0302 	ands.w	r3, r3, #2
100049e4:	f000 818e 	beq.w	10004d04 <_vsnprintf+0x838>
100049e8:	2302      	movs	r3, #2
100049ea:	950a      	str	r5, [sp, #40]	@ 0x28
100049ec:	461e      	mov	r6, r3
100049ee:	460d      	mov	r5, r1
100049f0:	4642      	mov	r2, r8
100049f2:	464b      	mov	r3, r9
100049f4:	4651      	mov	r1, sl
100049f6:	47d8      	blx	fp
100049f8:	f817 0f01 	ldrb.w	r0, [r7, #1]!
100049fc:	f108 0801 	add.w	r8, r8, #1
10004a00:	2800      	cmp	r0, #0
10004a02:	d1f5      	bne.n	100049f0 <_vsnprintf+0x524>
10004a04:	4629      	mov	r1, r5
10004a06:	4633      	mov	r3, r6
10004a08:	9d0a      	ldr	r5, [sp, #40]	@ 0x28
10004a0a:	e6e3      	b.n	100047d4 <_vsnprintf+0x308>
10004a0c:	1bd4      	subs	r4, r2, r7
10004a0e:	e6c2      	b.n	10004796 <_vsnprintf+0x2ca>
10004a10:	460a      	mov	r2, r1
10004a12:	7888      	ldrb	r0, [r1, #2]
10004a14:	f043 03c0 	orr.w	r3, r3, #192	@ 0xc0
10004a18:	3203      	adds	r2, #3
10004a1a:	e5d4      	b.n	100045c6 <_vsnprintf+0xfa>
10004a1c:	4604      	mov	r4, r0
10004a1e:	4680      	mov	r8, r0
10004a20:	e646      	b.n	100046b0 <_vsnprintf+0x1e4>
10004a22:	2710      	movs	r7, #16
10004a24:	f043 0320 	orr.w	r3, r3, #32
10004a28:	46bc      	mov	ip, r7
10004a2a:	e79c      	b.n	10004966 <_vsnprintf+0x49a>
10004a2c:	2d01      	cmp	r5, #1
10004a2e:	f240 80f8 	bls.w	10004c22 <_vsnprintf+0x756>
10004a32:	4646      	mov	r6, r8
10004a34:	f108 37ff 	add.w	r7, r8, #4294967295	@ 0xffffffff
10004a38:	442f      	add	r7, r5
10004a3a:	4632      	mov	r2, r6
10004a3c:	464b      	mov	r3, r9
10004a3e:	4651      	mov	r1, sl
10004a40:	2020      	movs	r0, #32
10004a42:	3601      	adds	r6, #1
10004a44:	47d8      	blx	fp
10004a46:	42be      	cmp	r6, r7
10004a48:	d1f7      	bne.n	10004a3a <_vsnprintf+0x56e>
10004a4a:	9b0a      	ldr	r3, [sp, #40]	@ 0x28
10004a4c:	4632      	mov	r2, r6
10004a4e:	7818      	ldrb	r0, [r3, #0]
10004a50:	4651      	mov	r1, sl
10004a52:	464b      	mov	r3, r9
10004a54:	47d8      	blx	fp
10004a56:	44a8      	add	r8, r5
10004a58:	940a      	str	r4, [sp, #40]	@ 0x28
10004a5a:	e555      	b.n	10004508 <_vsnprintf+0x3c>
10004a5c:	4646      	mov	r6, r8
10004a5e:	42a5      	cmp	r5, r4
10004a60:	f67f aebb 	bls.w	100047da <_vsnprintf+0x30e>
10004a64:	44a8      	add	r8, r5
10004a66:	eba8 0804 	sub.w	r8, r8, r4
10004a6a:	460c      	mov	r4, r1
10004a6c:	4632      	mov	r2, r6
10004a6e:	464b      	mov	r3, r9
10004a70:	4651      	mov	r1, sl
10004a72:	2020      	movs	r0, #32
10004a74:	3601      	adds	r6, #1
10004a76:	47d8      	blx	fp
10004a78:	4546      	cmp	r6, r8
10004a7a:	d1f7      	bne.n	10004a6c <_vsnprintf+0x5a0>
10004a7c:	4621      	mov	r1, r4
10004a7e:	e6ac      	b.n	100047da <_vsnprintf+0x30e>
10004a80:	f413 6280 	ands.w	r2, r3, #1024	@ 0x400
10004a84:	f000 80bb 	beq.w	10004bfe <_vsnprintf+0x732>
10004a88:	f44f 6280 	mov.w	r2, #1024	@ 0x400
10004a8c:	f023 0c11 	bic.w	ip, r3, #17
10004a90:	f41c 7700 	ands.w	r7, ip, #512	@ 0x200
10004a94:	9b0a      	ldr	r3, [sp, #40]	@ 0x28
10004a96:	d14a      	bne.n	10004b2e <_vsnprintf+0x662>
10004a98:	f41c 7080 	ands.w	r0, ip, #256	@ 0x100
10004a9c:	f103 0404 	add.w	r4, r3, #4
10004aa0:	f040 8134 	bne.w	10004d0c <_vsnprintf+0x840>
10004aa4:	f01c 0f40 	tst.w	ip, #64	@ 0x40
10004aa8:	f040 80a3 	bne.w	10004bf2 <_vsnprintf+0x726>
10004aac:	f01c 0f80 	tst.w	ip, #128	@ 0x80
10004ab0:	f000 81d3 	beq.w	10004e5a <_vsnprintf+0x98e>
10004ab4:	f9b3 1000 	ldrsh.w	r1, [r3]
10004ab8:	ea81 77e1 	eor.w	r7, r1, r1, asr #31
10004abc:	eba7 77e1 	sub.w	r7, r7, r1, asr #31
10004ac0:	b2bf      	uxth	r7, r7
10004ac2:	0fcb      	lsrs	r3, r1, #31
10004ac4:	2900      	cmp	r1, #0
10004ac6:	f000 8156 	beq.w	10004d76 <_vsnprintf+0x8aa>
10004aca:	463a      	mov	r2, r7
10004acc:	a912      	add	r1, sp, #72	@ 0x48
10004ace:	460f      	mov	r7, r1
10004ad0:	f8df e3d8 	ldr.w	lr, [pc, #984]	@ 10004eac <_vsnprintf+0x9e0>
10004ad4:	910b      	str	r1, [sp, #44]	@ 0x2c
10004ad6:	930a      	str	r3, [sp, #40]	@ 0x28
10004ad8:	950c      	str	r5, [sp, #48]	@ 0x30
10004ada:	e001      	b.n	10004ae0 <_vsnprintf+0x614>
10004adc:	2820      	cmp	r0, #32
10004ade:	d00f      	beq.n	10004b00 <_vsnprintf+0x634>
10004ae0:	4615      	mov	r5, r2
10004ae2:	fbae 1302 	umull	r1, r3, lr, r2
10004ae6:	08db      	lsrs	r3, r3, #3
10004ae8:	eb03 0183 	add.w	r1, r3, r3, lsl #2
10004aec:	eba2 0141 	sub.w	r1, r2, r1, lsl #1
10004af0:	3130      	adds	r1, #48	@ 0x30
10004af2:	2d09      	cmp	r5, #9
10004af4:	461a      	mov	r2, r3
10004af6:	f100 0001 	add.w	r0, r0, #1
10004afa:	f807 1b01 	strb.w	r1, [r7], #1
10004afe:	d8ed      	bhi.n	10004adc <_vsnprintf+0x610>
10004b00:	9b0a      	ldr	r3, [sp, #40]	@ 0x28
10004b02:	9d0c      	ldr	r5, [sp, #48]	@ 0x30
10004b04:	e9cd 5c05 	strd	r5, ip, [sp, #20]
10004b08:	e9cd 0301 	strd	r0, r3, [sp, #4]
10004b0c:	9604      	str	r6, [sp, #16]
10004b0e:	9b0b      	ldr	r3, [sp, #44]	@ 0x2c
10004b10:	4642      	mov	r2, r8
10004b12:	9300      	str	r3, [sp, #0]
10004b14:	230a      	movs	r3, #10
10004b16:	4651      	mov	r1, sl
10004b18:	9303      	str	r3, [sp, #12]
10004b1a:	4658      	mov	r0, fp
10004b1c:	464b      	mov	r3, r9
10004b1e:	f7fe fecd 	bl	100038bc <_ntoa_format>
10004b22:	940a      	str	r4, [sp, #40]	@ 0x28
10004b24:	4680      	mov	r8, r0
10004b26:	e4ef      	b.n	10004508 <_vsnprintf+0x3c>
10004b28:	f023 030c 	bic.w	r3, r3, #12
10004b2c:	e721      	b.n	10004972 <_vsnprintf+0x4a6>
10004b2e:	3307      	adds	r3, #7
10004b30:	f023 0307 	bic.w	r3, r3, #7
10004b34:	4619      	mov	r1, r3
10004b36:	4608      	mov	r0, r1
10004b38:	685b      	ldr	r3, [r3, #4]
10004b3a:	f850 1b08 	ldr.w	r1, [r0], #8
10004b3e:	0fdf      	lsrs	r7, r3, #31
10004b40:	900a      	str	r0, [sp, #40]	@ 0x28
10004b42:	ea51 0003 	orrs.w	r0, r1, r3
10004b46:	d162      	bne.n	10004c0e <_vsnprintf+0x742>
10004b48:	2a00      	cmp	r2, #0
10004b4a:	f040 819f 	bne.w	10004e8c <_vsnprintf+0x9c0>
10004b4e:	4613      	mov	r3, r2
10004b50:	4611      	mov	r1, r2
10004b52:	aa12      	add	r2, sp, #72	@ 0x48
10004b54:	e9cd 750c 	strd	r7, r5, [sp, #48]	@ 0x30
10004b58:	2000      	movs	r0, #0
10004b5a:	4615      	mov	r5, r2
10004b5c:	e9cd 680e 	strd	r6, r8, [sp, #56]	@ 0x38
10004b60:	f8df e348 	ldr.w	lr, [pc, #840]	@ 10004eac <_vsnprintf+0x9e0>
10004b64:	920b      	str	r2, [sp, #44]	@ 0x2c
10004b66:	e001      	b.n	10004b6c <_vsnprintf+0x6a0>
10004b68:	2820      	cmp	r0, #32
10004b6a:	d02d      	beq.n	10004bc8 <_vsnprintf+0x6fc>
10004b6c:	185a      	adds	r2, r3, r1
10004b6e:	f142 0200 	adc.w	r2, r2, #0
10004b72:	fbae 7802 	umull	r7, r8, lr, r2
10004b76:	f028 0703 	bic.w	r7, r8, #3
10004b7a:	eb07 0798 	add.w	r7, r7, r8, lsr #2
10004b7e:	1bd2      	subs	r2, r2, r7
10004b80:	461e      	mov	r6, r3
10004b82:	1a9b      	subs	r3, r3, r2
10004b84:	f161 0700 	sbc.w	r7, r1, #0
10004b88:	460c      	mov	r4, r1
10004b8a:	f04f 31cc 	mov.w	r1, #3435973836	@ 0xcccccccc
10004b8e:	fb01 f103 	mul.w	r1, r1, r3
10004b92:	fb0e 1107 	mla	r1, lr, r7, r1
10004b96:	fba3 730e 	umull	r7, r3, r3, lr
10004b9a:	4419      	add	r1, r3
10004b9c:	2305      	movs	r3, #5
10004b9e:	f007 0801 	and.w	r8, r7, #1
10004ba2:	fba8 3803 	umull	r3, r8, r8, r3
10004ba6:	189b      	adds	r3, r3, r2
10004ba8:	2e0a      	cmp	r6, #10
10004baa:	f103 0330 	add.w	r3, r3, #48	@ 0x30
10004bae:	ea4f 0757 	mov.w	r7, r7, lsr #1
10004bb2:	f174 0400 	sbcs.w	r4, r4, #0
10004bb6:	f805 3b01 	strb.w	r3, [r5], #1
10004bba:	f100 0001 	add.w	r0, r0, #1
10004bbe:	ea47 73c1 	orr.w	r3, r7, r1, lsl #31
10004bc2:	ea4f 0151 	mov.w	r1, r1, lsr #1
10004bc6:	d2cf      	bcs.n	10004b68 <_vsnprintf+0x69c>
10004bc8:	e9dd 750c 	ldrd	r7, r5, [sp, #48]	@ 0x30
10004bcc:	e9dd 680e 	ldrd	r6, r8, [sp, #56]	@ 0x38
10004bd0:	9b0b      	ldr	r3, [sp, #44]	@ 0x2c
10004bd2:	4642      	mov	r2, r8
10004bd4:	9300      	str	r3, [sp, #0]
10004bd6:	230a      	movs	r3, #10
10004bd8:	e9cd 5c05 	strd	r5, ip, [sp, #20]
10004bdc:	e9cd 0701 	strd	r0, r7, [sp, #4]
10004be0:	9604      	str	r6, [sp, #16]
10004be2:	9303      	str	r3, [sp, #12]
10004be4:	464b      	mov	r3, r9
10004be6:	4651      	mov	r1, sl
10004be8:	4658      	mov	r0, fp
10004bea:	f7fe fe67 	bl	100038bc <_ntoa_format>
10004bee:	4680      	mov	r8, r0
10004bf0:	e48a      	b.n	10004508 <_vsnprintf+0x3c>
10004bf2:	7819      	ldrb	r1, [r3, #0]
10004bf4:	460f      	mov	r7, r1
10004bf6:	e764      	b.n	10004ac2 <_vsnprintf+0x5f6>
10004bf8:	2710      	movs	r7, #16
10004bfa:	46bc      	mov	ip, r7
10004bfc:	e6b3      	b.n	10004966 <_vsnprintf+0x49a>
10004bfe:	f023 0c10 	bic.w	ip, r3, #16
10004c02:	e745      	b.n	10004a90 <_vsnprintf+0x5c4>
10004c04:	061c      	lsls	r4, r3, #24
10004c06:	bf4c      	ite	mi
10004c08:	8812      	ldrhmi	r2, [r2, #0]
10004c0a:	6812      	ldrpl	r2, [r2, #0]
10004c0c:	e6c0      	b.n	10004990 <_vsnprintf+0x4c4>
10004c0e:	460a      	mov	r2, r1
10004c10:	1e19      	subs	r1, r3, #0
10004c12:	db01      	blt.n	10004c18 <_vsnprintf+0x74c>
10004c14:	4613      	mov	r3, r2
10004c16:	e79c      	b.n	10004b52 <_vsnprintf+0x686>
10004c18:	4252      	negs	r2, r2
10004c1a:	4613      	mov	r3, r2
10004c1c:	eb61 0141 	sbc.w	r1, r1, r1, lsl #1
10004c20:	e797      	b.n	10004b52 <_vsnprintf+0x686>
10004c22:	4613      	mov	r3, r2
10004c24:	4651      	mov	r1, sl
10004c26:	7818      	ldrb	r0, [r3, #0]
10004c28:	4642      	mov	r2, r8
10004c2a:	464b      	mov	r3, r9
10004c2c:	47d8      	blx	fp
10004c2e:	46b0      	mov	r8, r6
10004c30:	e648      	b.n	100048c4 <_vsnprintf+0x3f8>
10004c32:	f013 0f20 	tst.w	r3, #32
10004c36:	bf14      	ite	ne
10004c38:	2041      	movne	r0, #65	@ 0x41
10004c3a:	2061      	moveq	r0, #97	@ 0x61
10004c3c:	ac12      	add	r4, sp, #72	@ 0x48
10004c3e:	46a6      	mov	lr, r4
10004c40:	940b      	str	r4, [sp, #44]	@ 0x2c
10004c42:	930a      	str	r3, [sp, #40]	@ 0x28
10004c44:	f1a0 040a 	sub.w	r4, r0, #10
10004c48:	950c      	str	r5, [sp, #48]	@ 0x30
10004c4a:	e002      	b.n	10004c52 <_vsnprintf+0x786>
10004c4c:	2920      	cmp	r1, #32
10004c4e:	d012      	beq.n	10004c76 <_vsnprintf+0x7aa>
10004c50:	462a      	mov	r2, r5
10004c52:	fbb2 f5fc 	udiv	r5, r2, ip
10004c56:	fb0c 2015 	mls	r0, ip, r5, r2
10004c5a:	b2c3      	uxtb	r3, r0
10004c5c:	2809      	cmp	r0, #9
10004c5e:	f103 0030 	add.w	r0, r3, #48	@ 0x30
10004c62:	bf8a      	itet	hi
10004c64:	191b      	addhi	r3, r3, r4
10004c66:	b2c3      	uxtbls	r3, r0
10004c68:	b2db      	uxtbhi	r3, r3
10004c6a:	4562      	cmp	r2, ip
10004c6c:	f80e 3b01 	strb.w	r3, [lr], #1
10004c70:	f101 0101 	add.w	r1, r1, #1
10004c74:	d2ea      	bcs.n	10004c4c <_vsnprintf+0x780>
10004c76:	9b0a      	ldr	r3, [sp, #40]	@ 0x28
10004c78:	9d0c      	ldr	r5, [sp, #48]	@ 0x30
10004c7a:	e694      	b.n	100049a6 <_vsnprintf+0x4da>
10004c7c:	9a0a      	ldr	r2, [sp, #40]	@ 0x28
10004c7e:	3207      	adds	r2, #7
10004c80:	f022 0207 	bic.w	r2, r2, #7
10004c84:	6851      	ldr	r1, [r2, #4]
10004c86:	f852 4b08 	ldr.w	r4, [r2], #8
10004c8a:	468e      	mov	lr, r1
10004c8c:	920a      	str	r2, [sp, #40]	@ 0x28
10004c8e:	ea54 0201 	orrs.w	r2, r4, r1
10004c92:	d176      	bne.n	10004d82 <_vsnprintf+0x8b6>
10004c94:	f023 0310 	bic.w	r3, r3, #16
10004c98:	2800      	cmp	r0, #0
10004c9a:	d072      	beq.n	10004d82 <_vsnprintf+0x8b6>
10004c9c:	2200      	movs	r2, #0
10004c9e:	4611      	mov	r1, r2
10004ca0:	aa12      	add	r2, sp, #72	@ 0x48
10004ca2:	920b      	str	r2, [sp, #44]	@ 0x2c
10004ca4:	e9cd 5305 	strd	r5, r3, [sp, #20]
10004ca8:	9b0b      	ldr	r3, [sp, #44]	@ 0x2c
10004caa:	4642      	mov	r2, r8
10004cac:	9300      	str	r3, [sp, #0]
10004cae:	2300      	movs	r3, #0
10004cb0:	e9cd c603 	strd	ip, r6, [sp, #12]
10004cb4:	9101      	str	r1, [sp, #4]
10004cb6:	9302      	str	r3, [sp, #8]
10004cb8:	e794      	b.n	10004be4 <_vsnprintf+0x718>
10004cba:	42a5      	cmp	r5, r4
10004cbc:	bf98      	it	ls
10004cbe:	3401      	addls	r4, #1
10004cc0:	f67f ad74 	bls.w	100047ac <_vsnprintf+0x2e0>
10004cc4:	f44f 6380 	mov.w	r3, #1024	@ 0x400
10004cc8:	e9cd 750a 	strd	r7, r5, [sp, #40]	@ 0x28
10004ccc:	eb05 0208 	add.w	r2, r5, r8
10004cd0:	461f      	mov	r7, r3
10004cd2:	460d      	mov	r5, r1
10004cd4:	1b14      	subs	r4, r2, r4
10004cd6:	4642      	mov	r2, r8
10004cd8:	464b      	mov	r3, r9
10004cda:	4651      	mov	r1, sl
10004cdc:	2020      	movs	r0, #32
10004cde:	f108 0801 	add.w	r8, r8, #1
10004ce2:	47d8      	blx	fp
10004ce4:	45a0      	cmp	r8, r4
10004ce6:	d1f6      	bne.n	10004cd6 <_vsnprintf+0x80a>
10004ce8:	463b      	mov	r3, r7
10004cea:	9f0a      	ldr	r7, [sp, #40]	@ 0x28
10004cec:	4629      	mov	r1, r5
10004cee:	7838      	ldrb	r0, [r7, #0]
10004cf0:	9d0b      	ldr	r5, [sp, #44]	@ 0x2c
10004cf2:	1c6c      	adds	r4, r5, #1
10004cf4:	2800      	cmp	r0, #0
10004cf6:	f43f ad70 	beq.w	100047da <_vsnprintf+0x30e>
10004cfa:	2b00      	cmp	r3, #0
10004cfc:	f43f ae75 	beq.w	100049ea <_vsnprintf+0x51e>
10004d00:	2300      	movs	r3, #0
10004d02:	e553      	b.n	100047ac <_vsnprintf+0x2e0>
10004d04:	42a5      	cmp	r5, r4
10004d06:	d8df      	bhi.n	10004cc8 <_vsnprintf+0x7fc>
10004d08:	3401      	adds	r4, #1
10004d0a:	e66e      	b.n	100049ea <_vsnprintf+0x51e>
10004d0c:	6819      	ldr	r1, [r3, #0]
10004d0e:	0fcb      	lsrs	r3, r1, #31
10004d10:	2900      	cmp	r1, #0
10004d12:	f000 80a8 	beq.w	10004e66 <_vsnprintf+0x99a>
10004d16:	ea81 72e1 	eor.w	r2, r1, r1, asr #31
10004d1a:	eba2 72e1 	sub.w	r2, r2, r1, asr #31
10004d1e:	a912      	add	r1, sp, #72	@ 0x48
10004d20:	4608      	mov	r0, r1
10004d22:	f8df e188 	ldr.w	lr, [pc, #392]	@ 10004eac <_vsnprintf+0x9e0>
10004d26:	910b      	str	r1, [sp, #44]	@ 0x2c
10004d28:	930a      	str	r3, [sp, #40]	@ 0x28
10004d2a:	950c      	str	r5, [sp, #48]	@ 0x30
10004d2c:	e001      	b.n	10004d32 <_vsnprintf+0x866>
10004d2e:	2f20      	cmp	r7, #32
10004d30:	d00f      	beq.n	10004d52 <_vsnprintf+0x886>
10004d32:	4615      	mov	r5, r2
10004d34:	fbae 1302 	umull	r1, r3, lr, r2
10004d38:	08db      	lsrs	r3, r3, #3
10004d3a:	eb03 0183 	add.w	r1, r3, r3, lsl #2
10004d3e:	eba2 0141 	sub.w	r1, r2, r1, lsl #1
10004d42:	3130      	adds	r1, #48	@ 0x30
10004d44:	2d09      	cmp	r5, #9
10004d46:	461a      	mov	r2, r3
10004d48:	f107 0701 	add.w	r7, r7, #1
10004d4c:	f800 1b01 	strb.w	r1, [r0], #1
10004d50:	d8ed      	bhi.n	10004d2e <_vsnprintf+0x862>
10004d52:	9b0a      	ldr	r3, [sp, #40]	@ 0x28
10004d54:	9d0c      	ldr	r5, [sp, #48]	@ 0x30
10004d56:	e9cd 5c05 	strd	r5, ip, [sp, #20]
10004d5a:	e9cd 7301 	strd	r7, r3, [sp, #4]
10004d5e:	9604      	str	r6, [sp, #16]
10004d60:	e6d5      	b.n	10004b0e <_vsnprintf+0x642>
10004d62:	2869      	cmp	r0, #105	@ 0x69
10004d64:	f023 0c10 	bic.w	ip, r3, #16
10004d68:	f040 808c 	bne.w	10004e84 <_vsnprintf+0x9b8>
10004d6c:	f413 6280 	ands.w	r2, r3, #1024	@ 0x400
10004d70:	f43f ae8e 	beq.w	10004a90 <_vsnprintf+0x5c4>
10004d74:	e688      	b.n	10004a88 <_vsnprintf+0x5bc>
10004d76:	2a00      	cmp	r2, #0
10004d78:	f43f aea8 	beq.w	10004acc <_vsnprintf+0x600>
10004d7c:	aa12      	add	r2, sp, #72	@ 0x48
10004d7e:	920b      	str	r2, [sp, #44]	@ 0x2c
10004d80:	e6c0      	b.n	10004b04 <_vsnprintf+0x638>
10004d82:	f013 0f20 	tst.w	r3, #32
10004d86:	bf14      	ite	ne
10004d88:	2241      	movne	r2, #65	@ 0x41
10004d8a:	2261      	moveq	r2, #97	@ 0x61
10004d8c:	2000      	movs	r0, #0
10004d8e:	a912      	add	r1, sp, #72	@ 0x48
10004d90:	3a0a      	subs	r2, #10
10004d92:	e9cd 680e 	strd	r6, r8, [sp, #56]	@ 0x38
10004d96:	e9cd 350c 	strd	r3, r5, [sp, #48]	@ 0x30
10004d9a:	f8cd b044 	str.w	fp, [sp, #68]	@ 0x44
10004d9e:	4606      	mov	r6, r0
10004da0:	4688      	mov	r8, r1
10004da2:	4675      	mov	r5, lr
10004da4:	4693      	mov	fp, r2
10004da6:	910b      	str	r1, [sp, #44]	@ 0x2c
10004da8:	f8cd c040 	str.w	ip, [sp, #64]	@ 0x40
10004dac:	e003      	b.n	10004db6 <_vsnprintf+0x8ea>
10004dae:	2e20      	cmp	r6, #32
10004db0:	d017      	beq.n	10004de2 <_vsnprintf+0x916>
10004db2:	4604      	mov	r4, r0
10004db4:	460d      	mov	r5, r1
10004db6:	4629      	mov	r1, r5
10004db8:	463a      	mov	r2, r7
10004dba:	2300      	movs	r3, #0
10004dbc:	4620      	mov	r0, r4
10004dbe:	f001 f9bf 	bl	10006140 <____aeabi_uldivmod_veneer>
10004dc2:	b2d2      	uxtb	r2, r2
10004dc4:	2a09      	cmp	r2, #9
10004dc6:	f102 0330 	add.w	r3, r2, #48	@ 0x30
10004dca:	bf88      	it	hi
10004dcc:	eb02 030b 	addhi.w	r3, r2, fp
10004dd0:	42bc      	cmp	r4, r7
10004dd2:	b2db      	uxtb	r3, r3
10004dd4:	f175 0500 	sbcs.w	r5, r5, #0
10004dd8:	f808 3b01 	strb.w	r3, [r8], #1
10004ddc:	f106 0601 	add.w	r6, r6, #1
10004de0:	d2e5      	bcs.n	10004dae <_vsnprintf+0x8e2>
10004de2:	4631      	mov	r1, r6
10004de4:	e9dd 350c 	ldrd	r3, r5, [sp, #48]	@ 0x30
10004de8:	e9dd cb10 	ldrd	ip, fp, [sp, #64]	@ 0x40
10004dec:	f8dd 803c 	ldr.w	r8, [sp, #60]	@ 0x3c
10004df0:	9e0e      	ldr	r6, [sp, #56]	@ 0x38
10004df2:	e757      	b.n	10004ca4 <_vsnprintf+0x7d8>
10004df4:	990a      	ldr	r1, [sp, #40]	@ 0x28
10004df6:	6809      	ldr	r1, [r1, #0]
10004df8:	b951      	cbnz	r1, 10004e10 <_vsnprintf+0x944>
10004dfa:	f023 0310 	bic.w	r3, r3, #16
10004dfe:	b138      	cbz	r0, 10004e10 <_vsnprintf+0x944>
10004e00:	a912      	add	r1, sp, #72	@ 0x48
10004e02:	910b      	str	r1, [sp, #44]	@ 0x2c
10004e04:	e9cd 5305 	strd	r5, r3, [sp, #20]
10004e08:	e9cd c603 	strd	ip, r6, [sp, #12]
10004e0c:	9201      	str	r2, [sp, #4]
10004e0e:	e5cf      	b.n	100049b0 <_vsnprintf+0x4e4>
10004e10:	f013 0f20 	tst.w	r3, #32
10004e14:	bf14      	ite	ne
10004e16:	2041      	movne	r0, #65	@ 0x41
10004e18:	2061      	moveq	r0, #97	@ 0x61
10004e1a:	ac12      	add	r4, sp, #72	@ 0x48
10004e1c:	46a6      	mov	lr, r4
10004e1e:	940b      	str	r4, [sp, #44]	@ 0x2c
10004e20:	930a      	str	r3, [sp, #40]	@ 0x28
10004e22:	f1a0 040a 	sub.w	r4, r0, #10
10004e26:	950c      	str	r5, [sp, #48]	@ 0x30
10004e28:	e002      	b.n	10004e30 <_vsnprintf+0x964>
10004e2a:	2a20      	cmp	r2, #32
10004e2c:	d012      	beq.n	10004e54 <_vsnprintf+0x988>
10004e2e:	4629      	mov	r1, r5
10004e30:	fbb1 f5fc 	udiv	r5, r1, ip
10004e34:	fb0c 1015 	mls	r0, ip, r5, r1
10004e38:	b2c3      	uxtb	r3, r0
10004e3a:	2809      	cmp	r0, #9
10004e3c:	f103 0030 	add.w	r0, r3, #48	@ 0x30
10004e40:	bf8a      	itet	hi
10004e42:	191b      	addhi	r3, r3, r4
10004e44:	b2c3      	uxtbls	r3, r0
10004e46:	b2db      	uxtbhi	r3, r3
10004e48:	4561      	cmp	r1, ip
10004e4a:	f80e 3b01 	strb.w	r3, [lr], #1
10004e4e:	f102 0201 	add.w	r2, r2, #1
10004e52:	d2ea      	bcs.n	10004e2a <_vsnprintf+0x95e>
10004e54:	9b0a      	ldr	r3, [sp, #40]	@ 0x28
10004e56:	9d0c      	ldr	r5, [sp, #48]	@ 0x30
10004e58:	e7d4      	b.n	10004e04 <_vsnprintf+0x938>
10004e5a:	6819      	ldr	r1, [r3, #0]
10004e5c:	ea81 77e1 	eor.w	r7, r1, r1, asr #31
10004e60:	eba7 77e1 	sub.w	r7, r7, r1, asr #31
10004e64:	e62d      	b.n	10004ac2 <_vsnprintf+0x5f6>
10004e66:	2a00      	cmp	r2, #0
10004e68:	f43f af59 	beq.w	10004d1e <_vsnprintf+0x852>
10004e6c:	aa12      	add	r2, sp, #72	@ 0x48
10004e6e:	920b      	str	r2, [sp, #44]	@ 0x2c
10004e70:	e771      	b.n	10004d56 <_vsnprintf+0x88a>
10004e72:	f413 6480 	ands.w	r4, r3, #1024	@ 0x400
10004e76:	d00d      	beq.n	10004e94 <_vsnprintf+0x9c8>
10004e78:	f013 0402 	ands.w	r4, r3, #2
10004e7c:	d012      	beq.n	10004ea4 <_vsnprintf+0x9d8>
10004e7e:	4604      	mov	r4, r0
10004e80:	4646      	mov	r6, r8
10004e82:	e5ec      	b.n	10004a5e <_vsnprintf+0x592>
10004e84:	270a      	movs	r7, #10
10004e86:	4663      	mov	r3, ip
10004e88:	46bc      	mov	ip, r7
10004e8a:	e56c      	b.n	10004966 <_vsnprintf+0x49a>
10004e8c:	ab12      	add	r3, sp, #72	@ 0x48
10004e8e:	2000      	movs	r0, #0
10004e90:	930b      	str	r3, [sp, #44]	@ 0x2c
10004e92:	e69d      	b.n	10004bd0 <_vsnprintf+0x704>
10004e94:	f013 0302 	ands.w	r3, r3, #2
10004e98:	f47f ade0 	bne.w	10004a5c <_vsnprintf+0x590>
10004e9c:	2d00      	cmp	r5, #0
10004e9e:	f47f af13 	bne.w	10004cc8 <_vsnprintf+0x7fc>
10004ea2:	e49a      	b.n	100047da <_vsnprintf+0x30e>
10004ea4:	2d00      	cmp	r5, #0
10004ea6:	f47f af0d 	bne.w	10004cc4 <_vsnprintf+0x7f8>
10004eaa:	e496      	b.n	100047da <_vsnprintf+0x30e>
10004eac:	cccccccd 	.word	0xcccccccd

10004eb0 <__wrap_sprintf>:
10004eb0:	b40e      	push	{r1, r2, r3}
10004eb2:	b510      	push	{r4, lr}
10004eb4:	b085      	sub	sp, #20
10004eb6:	ac07      	add	r4, sp, #28
10004eb8:	f854 3b04 	ldr.w	r3, [r4], #4
10004ebc:	4601      	mov	r1, r0
10004ebe:	f04f 32ff 	mov.w	r2, #4294967295	@ 0xffffffff
10004ec2:	9400      	str	r4, [sp, #0]
10004ec4:	4804      	ldr	r0, [pc, #16]	@ (10004ed8 <__wrap_sprintf+0x28>)
10004ec6:	9403      	str	r4, [sp, #12]
10004ec8:	f7ff fb00 	bl	100044cc <_vsnprintf>
10004ecc:	b005      	add	sp, #20
10004ece:	e8bd 4010 	ldmia.w	sp!, {r4, lr}
10004ed2:	b003      	add	sp, #12
10004ed4:	4770      	bx	lr
10004ed6:	bf00      	nop
10004ed8:	10003815 	.word	0x10003815

10004edc <weak_raw_vprintf>:
10004edc:	b510      	push	{r4, lr}
10004ede:	4b09      	ldr	r3, [pc, #36]	@ (10004f04 <weak_raw_vprintf+0x28>)
10004ee0:	b084      	sub	sp, #16
10004ee2:	681c      	ldr	r4, [r3, #0]
10004ee4:	b14c      	cbz	r4, 10004efa <weak_raw_vprintf+0x1e>
10004ee6:	4603      	mov	r3, r0
10004ee8:	9100      	str	r1, [sp, #0]
10004eea:	f04f 32ff 	mov.w	r2, #4294967295	@ 0xffffffff
10004eee:	a903      	add	r1, sp, #12
10004ef0:	4805      	ldr	r0, [pc, #20]	@ (10004f08 <weak_raw_vprintf+0x2c>)
10004ef2:	47a0      	blx	r4
10004ef4:	2001      	movs	r0, #1
10004ef6:	b004      	add	sp, #16
10004ef8:	bd10      	pop	{r4, pc}
10004efa:	f000 f94b 	bl	10005194 <__wrap_puts>
10004efe:	4620      	mov	r0, r4
10004f00:	b004      	add	sp, #16
10004f02:	bd10      	pop	{r4, pc}
10004f04:	200010a8 	.word	0x200010a8
10004f08:	10003a91 	.word	0x10003a91

10004f0c <_exit>:
10004f0c:	be00      	bkpt	0x0000
10004f0e:	e7fd      	b.n	10004f0c <_exit>

10004f10 <_sbrk>:
10004f10:	4a07      	ldr	r2, [pc, #28]	@ (10004f30 <_sbrk+0x20>)
10004f12:	4603      	mov	r3, r0
10004f14:	6810      	ldr	r0, [r2, #0]
10004f16:	b138      	cbz	r0, 10004f28 <_sbrk+0x18>
10004f18:	4906      	ldr	r1, [pc, #24]	@ (10004f34 <_sbrk+0x24>)
10004f1a:	4403      	add	r3, r0
10004f1c:	428b      	cmp	r3, r1
10004f1e:	bf8c      	ite	hi
10004f20:	f04f 30ff 	movhi.w	r0, #4294967295	@ 0xffffffff
10004f24:	6013      	strls	r3, [r2, #0]
10004f26:	4770      	bx	lr
10004f28:	4903      	ldr	r1, [pc, #12]	@ (10004f38 <_sbrk+0x28>)
10004f2a:	4608      	mov	r0, r1
10004f2c:	6011      	str	r1, [r2, #0]
10004f2e:	e7f3      	b.n	10004f18 <_sbrk+0x8>
10004f30:	20001094 	.word	0x20001094
10004f34:	20080000 	.word	0x20080000
10004f38:	20026abc 	.word	0x20026abc

10004f3c <exit>:
10004f3c:	b508      	push	{r3, lr}
10004f3e:	f7ff ffe5 	bl	10004f0c <_exit>
10004f42:	bf00      	nop

10004f44 <runtime_init>:
10004f44:	b538      	push	{r3, r4, r5, lr}
10004f46:	4c06      	ldr	r4, [pc, #24]	@ (10004f60 <runtime_init+0x1c>)
10004f48:	4d06      	ldr	r5, [pc, #24]	@ (10004f64 <runtime_init+0x20>)
10004f4a:	f7fe f9c5 	bl	100032d8 <runtime_run_initializers>
10004f4e:	42ac      	cmp	r4, r5
10004f50:	d204      	bcs.n	10004f5c <runtime_init+0x18>
10004f52:	f854 3b04 	ldr.w	r3, [r4], #4
10004f56:	4798      	blx	r3
10004f58:	42ac      	cmp	r4, r5
10004f5a:	d3fa      	bcc.n	10004f52 <runtime_init+0xe>
10004f5c:	bd38      	pop	{r3, r4, r5, pc}
10004f5e:	bf00      	nop
10004f60:	100061a0 	.word	0x100061a0
10004f64:	100061a4 	.word	0x100061a4

10004f68 <stdio_out_chars_no_crlf>:
10004f68:	6803      	ldr	r3, [r0, #0]
10004f6a:	4608      	mov	r0, r1
10004f6c:	4611      	mov	r1, r2
10004f6e:	4718      	bx	r3

10004f70 <stdio_out_chars_crlf>:
10004f70:	e92d 41f0 	stmdb	sp!, {r4, r5, r6, r7, r8, lr}
10004f74:	4615      	mov	r5, r2
10004f76:	7d42      	ldrb	r2, [r0, #21]
10004f78:	4607      	mov	r7, r0
10004f7a:	4688      	mov	r8, r1
10004f7c:	2a00      	cmp	r2, #0
10004f7e:	d046      	beq.n	1000500e <stdio_out_chars_crlf+0x9e>
10004f80:	2d00      	cmp	r5, #0
10004f82:	dd1d      	ble.n	10004fc0 <stdio_out_chars_crlf+0x50>
10004f84:	780b      	ldrb	r3, [r1, #0]
10004f86:	2b0a      	cmp	r3, #10
10004f88:	d023      	beq.n	10004fd2 <stdio_out_chars_crlf+0x62>
10004f8a:	2d01      	cmp	r5, #1
10004f8c:	f04f 0c00 	mov.w	ip, #0
10004f90:	d018      	beq.n	10004fc4 <stdio_out_chars_crlf+0x54>
10004f92:	4646      	mov	r6, r8
10004f94:	2401      	movs	r4, #1
10004f96:	f816 2f01 	ldrb.w	r2, [r6, #1]!
10004f9a:	4621      	mov	r1, r4
10004f9c:	2a0a      	cmp	r2, #10
10004f9e:	f104 0401 	add.w	r4, r4, #1
10004fa2:	d022      	beq.n	10004fea <stdio_out_chars_crlf+0x7a>
10004fa4:	42a5      	cmp	r5, r4
10004fa6:	d1f6      	bne.n	10004f96 <stdio_out_chars_crlf+0x26>
10004fa8:	4565      	cmp	r5, ip
10004faa:	dc0b      	bgt.n	10004fc4 <stdio_out_chars_crlf+0x54>
10004fac:	eb08 0305 	add.w	r3, r8, r5
10004fb0:	f813 3c01 	ldrb.w	r3, [r3, #-1]
10004fb4:	f1a3 030d 	sub.w	r3, r3, #13
10004fb8:	fab3 f383 	clz	r3, r3
10004fbc:	095b      	lsrs	r3, r3, #5
10004fbe:	753b      	strb	r3, [r7, #20]
10004fc0:	e8bd 81f0 	ldmia.w	sp!, {r4, r5, r6, r7, r8, pc}
10004fc4:	683b      	ldr	r3, [r7, #0]
10004fc6:	eba5 010c 	sub.w	r1, r5, ip
10004fca:	eb08 000c 	add.w	r0, r8, ip
10004fce:	4798      	blx	r3
10004fd0:	e7ec      	b.n	10004fac <stdio_out_chars_crlf+0x3c>
10004fd2:	7d03      	ldrb	r3, [r0, #20]
10004fd4:	2b00      	cmp	r3, #0
10004fd6:	d1d8      	bne.n	10004f8a <stdio_out_chars_crlf+0x1a>
10004fd8:	6803      	ldr	r3, [r0, #0]
10004fda:	2102      	movs	r1, #2
10004fdc:	480f      	ldr	r0, [pc, #60]	@ (1000501c <stdio_out_chars_crlf+0xac>)
10004fde:	4798      	blx	r3
10004fe0:	2d01      	cmp	r5, #1
10004fe2:	d0e3      	beq.n	10004fac <stdio_out_chars_crlf+0x3c>
10004fe4:	f04f 0c01 	mov.w	ip, #1
10004fe8:	e7d3      	b.n	10004f92 <stdio_out_chars_crlf+0x22>
10004fea:	f816 3c01 	ldrb.w	r3, [r6, #-1]
10004fee:	2b0d      	cmp	r3, #13
10004ff0:	d0d8      	beq.n	10004fa4 <stdio_out_chars_crlf+0x34>
10004ff2:	458c      	cmp	ip, r1
10004ff4:	eb08 000c 	add.w	r0, r8, ip
10004ff8:	eba1 010c 	sub.w	r1, r1, ip
10004ffc:	da01      	bge.n	10005002 <stdio_out_chars_crlf+0x92>
10004ffe:	683b      	ldr	r3, [r7, #0]
10005000:	4798      	blx	r3
10005002:	2102      	movs	r1, #2
10005004:	4805      	ldr	r0, [pc, #20]	@ (1000501c <stdio_out_chars_crlf+0xac>)
10005006:	683b      	ldr	r3, [r7, #0]
10005008:	4798      	blx	r3
1000500a:	46a4      	mov	ip, r4
1000500c:	e7ca      	b.n	10004fa4 <stdio_out_chars_crlf+0x34>
1000500e:	4629      	mov	r1, r5
10005010:	4640      	mov	r0, r8
10005012:	683b      	ldr	r3, [r7, #0]
10005014:	e8bd 41f0 	ldmia.w	sp!, {r4, r5, r6, r7, r8, lr}
10005018:	4718      	bx	r3
1000501a:	bf00      	nop
1000501c:	10009418 	.word	0x10009418

10005020 <stdio_put_string>:
10005020:	e92d 47f0 	stmdb	sp!, {r4, r5, r6, r7, r8, r9, sl, lr}
10005024:	b082      	sub	sp, #8
10005026:	460d      	mov	r5, r1
10005028:	4691      	mov	r9, r2
1000502a:	461c      	mov	r4, r3
1000502c:	4606      	mov	r6, r0
1000502e:	f7fd fe57 	bl	10002ce0 <time_us_64>
10005032:	f04f 3cff 	mov.w	ip, #4294967295	@ 0xffffffff
10005036:	f06f 4700 	mvn.w	r7, #2147483648	@ 0x80000000
1000503a:	4a2e      	ldr	r2, [pc, #184]	@ (100050f4 <stdio_put_string+0xd4>)
1000503c:	1882      	adds	r2, r0, r2
1000503e:	f141 0300 	adc.w	r3, r1, #0
10005042:	4594      	cmp	ip, r2
10005044:	eb77 0103 	sbcs.w	r1, r7, r3
10005048:	bf3c      	itt	cc
1000504a:	4662      	movcc	r2, ip
1000504c:	463b      	movcc	r3, r7
1000504e:	482a      	ldr	r0, [pc, #168]	@ (100050f8 <stdio_put_string+0xd8>)
10005050:	f001 f882 	bl	10006158 <__mutex_try_enter_block_until_veneer>
10005054:	1c6b      	adds	r3, r5, #1
10005056:	4680      	mov	r8, r0
10005058:	d040      	beq.n	100050dc <stdio_put_string+0xbc>
1000505a:	b30c      	cbz	r4, 100050a0 <stdio_put_string+0x80>
1000505c:	4f27      	ldr	r7, [pc, #156]	@ (100050fc <stdio_put_string+0xdc>)
1000505e:	4b28      	ldr	r3, [pc, #160]	@ (10005100 <stdio_put_string+0xe0>)
10005060:	681c      	ldr	r4, [r3, #0]
10005062:	b1b4      	cbz	r4, 10005092 <stdio_put_string+0x72>
10005064:	f1b9 0f00 	cmp.w	r9, #0
10005068:	d11c      	bne.n	100050a4 <stdio_put_string+0x84>
1000506a:	f8df 909c 	ldr.w	r9, [pc, #156]	@ 10005108 <stdio_put_string+0xe8>
1000506e:	e001      	b.n	10005074 <stdio_put_string+0x54>
10005070:	6924      	ldr	r4, [r4, #16]
10005072:	b174      	cbz	r4, 10005092 <stdio_put_string+0x72>
10005074:	6823      	ldr	r3, [r4, #0]
10005076:	2b00      	cmp	r3, #0
10005078:	d0fa      	beq.n	10005070 <stdio_put_string+0x50>
1000507a:	f8d9 3000 	ldr.w	r3, [r9]
1000507e:	b10b      	cbz	r3, 10005084 <stdio_put_string+0x64>
10005080:	429c      	cmp	r4, r3
10005082:	d1f5      	bne.n	10005070 <stdio_put_string+0x50>
10005084:	4620      	mov	r0, r4
10005086:	462a      	mov	r2, r5
10005088:	4631      	mov	r1, r6
1000508a:	47b8      	blx	r7
1000508c:	6924      	ldr	r4, [r4, #16]
1000508e:	2c00      	cmp	r4, #0
10005090:	d1f0      	bne.n	10005074 <stdio_put_string+0x54>
10005092:	f1b8 0f00 	cmp.w	r8, #0
10005096:	d126      	bne.n	100050e6 <stdio_put_string+0xc6>
10005098:	4628      	mov	r0, r5
1000509a:	b002      	add	sp, #8
1000509c:	e8bd 87f0 	ldmia.w	sp!, {r4, r5, r6, r7, r8, r9, sl, pc}
100050a0:	4f18      	ldr	r7, [pc, #96]	@ (10005104 <stdio_put_string+0xe4>)
100050a2:	e7dc      	b.n	1000505e <stdio_put_string+0x3e>
100050a4:	f04f 0a0a 	mov.w	sl, #10
100050a8:	f8df 905c 	ldr.w	r9, [pc, #92]	@ 10005108 <stdio_put_string+0xe8>
100050ac:	e002      	b.n	100050b4 <stdio_put_string+0x94>
100050ae:	6924      	ldr	r4, [r4, #16]
100050b0:	2c00      	cmp	r4, #0
100050b2:	d0ee      	beq.n	10005092 <stdio_put_string+0x72>
100050b4:	6823      	ldr	r3, [r4, #0]
100050b6:	2b00      	cmp	r3, #0
100050b8:	d0f9      	beq.n	100050ae <stdio_put_string+0x8e>
100050ba:	f8d9 3000 	ldr.w	r3, [r9]
100050be:	b10b      	cbz	r3, 100050c4 <stdio_put_string+0xa4>
100050c0:	42a3      	cmp	r3, r4
100050c2:	d1f4      	bne.n	100050ae <stdio_put_string+0x8e>
100050c4:	462a      	mov	r2, r5
100050c6:	4631      	mov	r1, r6
100050c8:	4620      	mov	r0, r4
100050ca:	47b8      	blx	r7
100050cc:	2201      	movs	r2, #1
100050ce:	4620      	mov	r0, r4
100050d0:	f10d 0107 	add.w	r1, sp, #7
100050d4:	f88d a007 	strb.w	sl, [sp, #7]
100050d8:	47b8      	blx	r7
100050da:	e7e8      	b.n	100050ae <stdio_put_string+0x8e>
100050dc:	4630      	mov	r0, r6
100050de:	f000 fead 	bl	10005e3c <strlen>
100050e2:	4605      	mov	r5, r0
100050e4:	e7b9      	b.n	1000505a <stdio_put_string+0x3a>
100050e6:	4804      	ldr	r0, [pc, #16]	@ (100050f8 <stdio_put_string+0xd8>)
100050e8:	f001 f82e 	bl	10006148 <__mutex_exit_veneer>
100050ec:	4628      	mov	r0, r5
100050ee:	b002      	add	sp, #8
100050f0:	e8bd 87f0 	ldmia.w	sp!, {r4, r5, r6, r7, r8, r9, sl, pc}
100050f4:	000f4240 	.word	0x000f4240
100050f8:	20000c58 	.word	0x20000c58
100050fc:	10004f71 	.word	0x10004f71
10005100:	20001084 	.word	0x20001084
10005104:	10004f69 	.word	0x10004f69
10005108:	2000108c 	.word	0x2000108c

1000510c <stdio_init_all>:
1000510c:	2000      	movs	r0, #0
1000510e:	4770      	bx	lr

10005110 <__wrap_putchar>:
10005110:	b5f0      	push	{r4, r5, r6, r7, lr}
10005112:	b083      	sub	sp, #12
10005114:	4606      	mov	r6, r0
10005116:	f88d 0007 	strb.w	r0, [sp, #7]
1000511a:	f7fd fde1 	bl	10002ce0 <time_us_64>
1000511e:	f04f 35ff 	mov.w	r5, #4294967295	@ 0xffffffff
10005122:	f06f 4400 	mvn.w	r4, #2147483648	@ 0x80000000
10005126:	4a17      	ldr	r2, [pc, #92]	@ (10005184 <__wrap_putchar+0x74>)
10005128:	1882      	adds	r2, r0, r2
1000512a:	f141 0300 	adc.w	r3, r1, #0
1000512e:	4295      	cmp	r5, r2
10005130:	eb74 0103 	sbcs.w	r1, r4, r3
10005134:	bf3c      	itt	cc
10005136:	4623      	movcc	r3, r4
10005138:	462a      	movcc	r2, r5
1000513a:	4813      	ldr	r0, [pc, #76]	@ (10005188 <__wrap_putchar+0x78>)
1000513c:	f001 f80c 	bl	10006158 <__mutex_try_enter_block_until_veneer>
10005140:	4b12      	ldr	r3, [pc, #72]	@ (1000518c <__wrap_putchar+0x7c>)
10005142:	4607      	mov	r7, r0
10005144:	681c      	ldr	r4, [r3, #0]
10005146:	b19c      	cbz	r4, 10005170 <__wrap_putchar+0x60>
10005148:	4d11      	ldr	r5, [pc, #68]	@ (10005190 <__wrap_putchar+0x80>)
1000514a:	e001      	b.n	10005150 <__wrap_putchar+0x40>
1000514c:	6924      	ldr	r4, [r4, #16]
1000514e:	b17c      	cbz	r4, 10005170 <__wrap_putchar+0x60>
10005150:	6823      	ldr	r3, [r4, #0]
10005152:	2b00      	cmp	r3, #0
10005154:	d0fa      	beq.n	1000514c <__wrap_putchar+0x3c>
10005156:	682b      	ldr	r3, [r5, #0]
10005158:	b10b      	cbz	r3, 1000515e <__wrap_putchar+0x4e>
1000515a:	429c      	cmp	r4, r3
1000515c:	d1f6      	bne.n	1000514c <__wrap_putchar+0x3c>
1000515e:	4620      	mov	r0, r4
10005160:	2201      	movs	r2, #1
10005162:	f10d 0107 	add.w	r1, sp, #7
10005166:	f7ff ff03 	bl	10004f70 <stdio_out_chars_crlf>
1000516a:	6924      	ldr	r4, [r4, #16]
1000516c:	2c00      	cmp	r4, #0
1000516e:	d1ef      	bne.n	10005150 <__wrap_putchar+0x40>
10005170:	b917      	cbnz	r7, 10005178 <__wrap_putchar+0x68>
10005172:	4630      	mov	r0, r6
10005174:	b003      	add	sp, #12
10005176:	bdf0      	pop	{r4, r5, r6, r7, pc}
10005178:	4803      	ldr	r0, [pc, #12]	@ (10005188 <__wrap_putchar+0x78>)
1000517a:	f000 ffe5 	bl	10006148 <__mutex_exit_veneer>
1000517e:	4630      	mov	r0, r6
10005180:	b003      	add	sp, #12
10005182:	bdf0      	pop	{r4, r5, r6, r7, pc}
10005184:	000f4240 	.word	0x000f4240
10005188:	20000c58 	.word	0x20000c58
1000518c:	20001084 	.word	0x20001084
10005190:	2000108c 	.word	0x2000108c

10005194 <__wrap_puts>:
10005194:	b538      	push	{r3, r4, r5, lr}
10005196:	4604      	mov	r4, r0
10005198:	f000 fe50 	bl	10005e3c <strlen>
1000519c:	2301      	movs	r3, #1
1000519e:	4605      	mov	r5, r0
100051a0:	461a      	mov	r2, r3
100051a2:	4620      	mov	r0, r4
100051a4:	4629      	mov	r1, r5
100051a6:	f7ff ff3b 	bl	10005020 <stdio_put_string>
100051aa:	4b08      	ldr	r3, [pc, #32]	@ (100051cc <__wrap_puts+0x38>)
100051ac:	681c      	ldr	r4, [r3, #0]
100051ae:	b12c      	cbz	r4, 100051bc <__wrap_puts+0x28>
100051b0:	6863      	ldr	r3, [r4, #4]
100051b2:	b12b      	cbz	r3, 100051c0 <__wrap_puts+0x2c>
100051b4:	4798      	blx	r3
100051b6:	6924      	ldr	r4, [r4, #16]
100051b8:	2c00      	cmp	r4, #0
100051ba:	d1f9      	bne.n	100051b0 <__wrap_puts+0x1c>
100051bc:	4628      	mov	r0, r5
100051be:	bd38      	pop	{r3, r4, r5, pc}
100051c0:	6924      	ldr	r4, [r4, #16]
100051c2:	2c00      	cmp	r4, #0
100051c4:	d1f4      	bne.n	100051b0 <__wrap_puts+0x1c>
100051c6:	4628      	mov	r0, r5
100051c8:	bd38      	pop	{r3, r4, r5, pc}
100051ca:	bf00      	nop
100051cc:	20001084 	.word	0x20001084

100051d0 <pio_sm_claim>:
100051d0:	f100 402f 	add.w	r0, r0, #2936012800	@ 0xaf000000
100051d4:	f500 0060 	add.w	r0, r0, #14680064	@ 0xe00000
100051d8:	0d03      	lsrs	r3, r0, #20
100051da:	2b02      	cmp	r3, #2
100051dc:	d00d      	beq.n	100051fa <pio_sm_claim+0x2a>
100051de:	2b01      	cmp	r3, #1
100051e0:	d005      	beq.n	100051ee <pio_sm_claim+0x1e>
100051e2:	4a09      	ldr	r2, [pc, #36]	@ (10005208 <pio_sm_claim+0x38>)
100051e4:	4809      	ldr	r0, [pc, #36]	@ (1000520c <pio_sm_claim+0x3c>)
100051e6:	eb01 0183 	add.w	r1, r1, r3, lsl #2
100051ea:	f7fc bfb9 	b.w	10002160 <hw_claim_or_assert>
100051ee:	4a08      	ldr	r2, [pc, #32]	@ (10005210 <pio_sm_claim+0x40>)
100051f0:	4806      	ldr	r0, [pc, #24]	@ (1000520c <pio_sm_claim+0x3c>)
100051f2:	eb01 0183 	add.w	r1, r1, r3, lsl #2
100051f6:	f7fc bfb3 	b.w	10002160 <hw_claim_or_assert>
100051fa:	4a06      	ldr	r2, [pc, #24]	@ (10005214 <pio_sm_claim+0x44>)
100051fc:	4803      	ldr	r0, [pc, #12]	@ (1000520c <pio_sm_claim+0x3c>)
100051fe:	eb01 0183 	add.w	r1, r1, r3, lsl #2
10005202:	f7fc bfad 	b.w	10002160 <hw_claim_or_assert>
10005206:	bf00      	nop
10005208:	100064ec 	.word	0x100064ec
1000520c:	20001054 	.word	0x20001054
10005210:	1000652c 	.word	0x1000652c
10005214:	10006508 	.word	0x10006508

10005218 <pio_add_program>:
10005218:	e92d 47f0 	stmdb	sp!, {r4, r5, r6, r7, r8, r9, sl, lr}
1000521c:	460f      	mov	r7, r1
1000521e:	4605      	mov	r5, r0
10005220:	f7fc ff82 	bl	10002128 <hw_claim_lock>
10005224:	2201      	movs	r2, #1
10005226:	f897 a004 	ldrb.w	sl, [r7, #4]
1000522a:	f997 c005 	ldrsb.w	ip, [r7, #5]
1000522e:	f105 4e2f 	add.w	lr, r5, #2936012800	@ 0xaf000000
10005232:	f8df 80d4 	ldr.w	r8, [pc, #212]	@ 10005308 <pio_add_program+0xf0>
10005236:	f50e 0e60 	add.w	lr, lr, #14680064	@ 0xe00000
1000523a:	fa02 f20a 	lsl.w	r2, r2, sl
1000523e:	ea4f 5e1e 	mov.w	lr, lr, lsr #20
10005242:	f1bc 0f00 	cmp.w	ip, #0
10005246:	f858 602e 	ldr.w	r6, [r8, lr, lsl #2]
1000524a:	f102 32ff 	add.w	r2, r2, #4294967295	@ 0xffffffff
1000524e:	f1ca 0420 	rsb	r4, sl, #32
10005252:	db35      	blt.n	100052c0 <pio_add_program+0xa8>
10005254:	45a4      	cmp	ip, r4
10005256:	dc03      	bgt.n	10005260 <pio_add_program+0x48>
10005258:	fa02 f30c 	lsl.w	r3, r2, ip
1000525c:	4233      	tst	r3, r6
1000525e:	d006      	beq.n	1000526e <pio_add_program+0x56>
10005260:	f04f 34ff 	mov.w	r4, #4294967295	@ 0xffffffff
10005264:	f7fc ff72 	bl	1000214c <hw_claim_unlock>
10005268:	4620      	mov	r0, r4
1000526a:	e8bd 87f0 	ldmia.w	sp!, {r4, r5, r6, r7, r8, r9, sl, pc}
1000526e:	f8d5 3168 	ldr.w	r3, [r5, #360]	@ 0x168
10005272:	79f9      	ldrb	r1, [r7, #7]
10005274:	2b00      	cmp	r3, #0
10005276:	d141      	bne.n	100052fc <pio_add_program+0xe4>
10005278:	074b      	lsls	r3, r1, #29
1000527a:	d431      	bmi.n	100052e0 <pio_add_program+0xc8>
1000527c:	4664      	mov	r4, ip
1000527e:	fa02 f20c 	lsl.w	r2, r2, ip
10005282:	4216      	tst	r6, r2
10005284:	d133      	bne.n	100052ee <pio_add_program+0xd6>
10005286:	6839      	ldr	r1, [r7, #0]
10005288:	f1ba 0f00 	cmp.w	sl, #0
1000528c:	d010      	beq.n	100052b0 <pio_add_program+0x98>
1000528e:	4667      	mov	r7, ip
10005290:	eb01 0a4a 	add.w	sl, r1, sl, lsl #1
10005294:	f831 3b02 	ldrh.w	r3, [r1], #2
10005298:	f107 0912 	add.w	r9, r7, #18
1000529c:	f5b3 5f00 	cmp.w	r3, #8192	@ 0x2000
100052a0:	bf38      	it	cc
100052a2:	4463      	addcc	r3, ip
100052a4:	4551      	cmp	r1, sl
100052a6:	f107 0701 	add.w	r7, r7, #1
100052aa:	f845 3029 	str.w	r3, [r5, r9, lsl #2]
100052ae:	d1f1      	bne.n	10005294 <pio_add_program+0x7c>
100052b0:	4332      	orrs	r2, r6
100052b2:	f848 202e 	str.w	r2, [r8, lr, lsl #2]
100052b6:	f7fc ff49 	bl	1000214c <hw_claim_unlock>
100052ba:	4620      	mov	r0, r4
100052bc:	e8bd 87f0 	ldmia.w	sp!, {r4, r5, r6, r7, r8, r9, sl, pc}
100052c0:	2c00      	cmp	r4, #0
100052c2:	da02      	bge.n	100052ca <pio_add_program+0xb2>
100052c4:	e013      	b.n	100052ee <pio_add_program+0xd6>
100052c6:	3c01      	subs	r4, #1
100052c8:	d311      	bcc.n	100052ee <pio_add_program+0xd6>
100052ca:	fa02 f304 	lsl.w	r3, r2, r4
100052ce:	4233      	tst	r3, r6
100052d0:	46a4      	mov	ip, r4
100052d2:	d1f8      	bne.n	100052c6 <pio_add_program+0xae>
100052d4:	f8d5 1168 	ldr.w	r1, [r5, #360]	@ 0x168
100052d8:	79fb      	ldrb	r3, [r7, #7]
100052da:	b991      	cbnz	r1, 10005302 <pio_add_program+0xea>
100052dc:	075b      	lsls	r3, r3, #29
100052de:	d5ce      	bpl.n	1000527e <pio_add_program+0x66>
100052e0:	f06f 040a 	mvn.w	r4, #10
100052e4:	f7fc ff32 	bl	1000214c <hw_claim_unlock>
100052e8:	4620      	mov	r0, r4
100052ea:	e8bd 87f0 	ldmia.w	sp!, {r4, r5, r6, r7, r8, r9, sl, pc}
100052ee:	f06f 0408 	mvn.w	r4, #8
100052f2:	f7fc ff2b 	bl	1000214c <hw_claim_unlock>
100052f6:	4620      	mov	r0, r4
100052f8:	e8bd 87f0 	ldmia.w	sp!, {r4, r5, r6, r7, r8, r9, sl, pc}
100052fc:	07c9      	lsls	r1, r1, #31
100052fe:	d5bd      	bpl.n	1000527c <pio_add_program+0x64>
10005300:	e7ee      	b.n	100052e0 <pio_add_program+0xc8>
10005302:	07d9      	lsls	r1, r3, #31
10005304:	d5bb      	bpl.n	1000527e <pio_add_program+0x66>
10005306:	e7eb      	b.n	100052e0 <pio_add_program+0xc8>
10005308:	20001040 	.word	0x20001040

1000530c <pio_clear_instruction_memory>:
1000530c:	b510      	push	{r4, lr}
1000530e:	4604      	mov	r4, r0
10005310:	f7fc ff0a 	bl	10002128 <hw_claim_lock>
10005314:	2300      	movs	r3, #0
10005316:	f104 422f 	add.w	r2, r4, #2936012800	@ 0xaf000000
1000531a:	4908      	ldr	r1, [pc, #32]	@ (1000533c <pio_clear_instruction_memory+0x30>)
1000531c:	f502 0260 	add.w	r2, r2, #14680064	@ 0xe00000
10005320:	0d12      	lsrs	r2, r2, #20
10005322:	f841 3022 	str.w	r3, [r1, r2, lsl #2]
10005326:	f103 0212 	add.w	r2, r3, #18
1000532a:	f844 3022 	str.w	r3, [r4, r2, lsl #2]
1000532e:	3301      	adds	r3, #1
10005330:	2b20      	cmp	r3, #32
10005332:	d1f8      	bne.n	10005326 <pio_clear_instruction_memory+0x1a>
10005334:	e8bd 4010 	ldmia.w	sp!, {r4, lr}
10005338:	f7fc bf08 	b.w	1000214c <hw_claim_unlock>
1000533c:	20001040 	.word	0x20001040

10005340 <pio_sm_set_consecutive_pindirs>:
10005340:	e92d 41f0 	stmdb	sp!, {r4, r5, r6, r7, r8, lr}
10005344:	f8d0 4168 	ldr.w	r4, [r0, #360]	@ 0x168
10005348:	f89d 6018 	ldrb.w	r6, [sp, #24]
1000534c:	1b12      	subs	r2, r2, r4
1000534e:	2a1f      	cmp	r2, #31
10005350:	d838      	bhi.n	100053c4 <pio_sm_set_consecutive_pindirs+0x84>
10005352:	f24e 049f 	movw	r4, #57503	@ 0xe09f
10005356:	f24e 0580 	movw	r5, #57472	@ 0xe080
1000535a:	f44f 3800 	mov.w	r8, #131072	@ 0x20000
1000535e:	eb01 0c41 	add.w	ip, r1, r1, lsl #1
10005362:	2e00      	cmp	r6, #0
10005364:	bf18      	it	ne
10005366:	4625      	movne	r5, r4
10005368:	eb00 04cc 	add.w	r4, r0, ip, lsl #3
1000536c:	f504 5443 	add.w	r4, r4, #12480	@ 0x30c0
10005370:	eb00 0ccc 	add.w	ip, r0, ip, lsl #3
10005374:	2b05      	cmp	r3, #5
10005376:	f8dc 70dc 	ldr.w	r7, [ip, #220]	@ 0xdc
1000537a:	ea4f 0e41 	mov.w	lr, r1, lsl #1
1000537e:	f8dc 60cc 	ldr.w	r6, [ip, #204]	@ 0xcc
10005382:	f8c4 800c 	str.w	r8, [r4, #12]
10005386:	d90c      	bls.n	100053a2 <pio_sm_set_consecutive_pindirs+0x62>
10005388:	0154      	lsls	r4, r2, #5
1000538a:	3b05      	subs	r3, #5
1000538c:	f044 54a0 	orr.w	r4, r4, #335544320	@ 0x14000000
10005390:	3205      	adds	r2, #5
10005392:	2b05      	cmp	r3, #5
10005394:	f8cc 40dc 	str.w	r4, [ip, #220]	@ 0xdc
10005398:	f002 021f 	and.w	r2, r2, #31
1000539c:	f8cc 50d8 	str.w	r5, [ip, #216]	@ 0xd8
100053a0:	d8f2      	bhi.n	10005388 <pio_sm_set_consecutive_pindirs+0x48>
100053a2:	4471      	add	r1, lr
100053a4:	eb00 01c1 	add.w	r1, r0, r1, lsl #3
100053a8:	2000      	movs	r0, #0
100053aa:	0152      	lsls	r2, r2, #5
100053ac:	ea42 6383 	orr.w	r3, r2, r3, lsl #26
100053b0:	f8c1 30dc 	str.w	r3, [r1, #220]	@ 0xdc
100053b4:	f8c1 50d8 	str.w	r5, [r1, #216]	@ 0xd8
100053b8:	f8c1 70dc 	str.w	r7, [r1, #220]	@ 0xdc
100053bc:	f8c1 60cc 	str.w	r6, [r1, #204]	@ 0xcc
100053c0:	e8bd 81f0 	ldmia.w	sp!, {r4, r5, r6, r7, r8, pc}
100053c4:	f06f 0004 	mvn.w	r0, #4
100053c8:	e7fa      	b.n	100053c0 <pio_sm_set_consecutive_pindirs+0x80>
100053ca:	bf00      	nop

100053cc <pio_sm_init>:
100053cc:	b5f0      	push	{r4, r5, r6, r7, lr}
100053ce:	2501      	movs	r5, #1
100053d0:	6804      	ldr	r4, [r0, #0]
100053d2:	408d      	lsls	r5, r1
100053d4:	ea24 0405 	bic.w	r4, r4, r5
100053d8:	6004      	str	r4, [r0, #0]
100053da:	b3b3      	cbz	r3, 1000544a <pio_sm_init+0x7e>
100053dc:	e9d3 5601 	ldrd	r5, r6, [r3, #4]
100053e0:	681f      	ldr	r7, [r3, #0]
100053e2:	68dc      	ldr	r4, [r3, #12]
100053e4:	eb01 0341 	add.w	r3, r1, r1, lsl #1
100053e8:	eb00 03c3 	add.w	r3, r0, r3, lsl #3
100053ec:	f8c3 70c8 	str.w	r7, [r3, #200]	@ 0xc8
100053f0:	ea4f 0c41 	mov.w	ip, r1, lsl #1
100053f4:	f8c3 60d0 	str.w	r6, [r3, #208]	@ 0xd0
100053f8:	f8c3 50cc 	str.w	r5, [r3, #204]	@ 0xcc
100053fc:	f8c3 40dc 	str.w	r4, [r3, #220]	@ 0xdc
10005400:	eb0c 0301 	add.w	r3, ip, r1
10005404:	f04f 3501 	mov.w	r5, #16843009	@ 0x1010101
10005408:	eb00 0cc3 	add.w	ip, r0, r3, lsl #3
1000540c:	f04f 4600 	mov.w	r6, #2147483648	@ 0x80000000
10005410:	eb00 0ec3 	add.w	lr, r0, r3, lsl #3
10005414:	2301      	movs	r3, #1
10005416:	f50e 5e86 	add.w	lr, lr, #4288	@ 0x10c0
1000541a:	1d0c      	adds	r4, r1, #4
1000541c:	f101 0708 	add.w	r7, r1, #8
10005420:	408d      	lsls	r5, r1
10005422:	f8ce 6010 	str.w	r6, [lr, #16]
10005426:	fa03 f404 	lsl.w	r4, r3, r4
1000542a:	f8ce 6010 	str.w	r6, [lr, #16]
1000542e:	f002 021f 	and.w	r2, r2, #31
10005432:	6085      	str	r5, [r0, #8]
10005434:	40bb      	lsls	r3, r7
10005436:	f500 5000 	add.w	r0, r0, #8192	@ 0x2000
1000543a:	6004      	str	r4, [r0, #0]
1000543c:	f10e 0e10 	add.w	lr, lr, #16
10005440:	6003      	str	r3, [r0, #0]
10005442:	2000      	movs	r0, #0
10005444:	f8cc 20d8 	str.w	r2, [ip, #216]	@ 0xd8
10005448:	bdf0      	pop	{r4, r5, r6, r7, pc}
1000544a:	f44f 3780 	mov.w	r7, #65536	@ 0x10000
1000544e:	f44f 2640 	mov.w	r6, #786432	@ 0xc0000
10005452:	f44f 35f8 	mov.w	r5, #126976	@ 0x1f000
10005456:	eb01 0441 	add.w	r4, r1, r1, lsl #1
1000545a:	eb00 04c4 	add.w	r4, r0, r4, lsl #3
1000545e:	f8c4 70c8 	str.w	r7, [r4, #200]	@ 0xc8
10005462:	ea4f 0c41 	mov.w	ip, r1, lsl #1
10005466:	f8c4 60d0 	str.w	r6, [r4, #208]	@ 0xd0
1000546a:	f8c4 50cc 	str.w	r5, [r4, #204]	@ 0xcc
1000546e:	f8c4 30dc 	str.w	r3, [r4, #220]	@ 0xdc
10005472:	e7c5      	b.n	10005400 <pio_sm_init+0x34>

10005474 <dma_claim_unused_channel>:
10005474:	b510      	push	{r4, lr}
10005476:	4c05      	ldr	r4, [pc, #20]	@ (1000548c <dma_claim_unused_channel+0x18>)
10005478:	b082      	sub	sp, #8
1000547a:	4601      	mov	r1, r0
1000547c:	230f      	movs	r3, #15
1000547e:	2200      	movs	r2, #0
10005480:	9400      	str	r4, [sp, #0]
10005482:	4803      	ldr	r0, [pc, #12]	@ (10005490 <dma_claim_unused_channel+0x1c>)
10005484:	f7fc fe98 	bl	100021b8 <hw_claim_unused_from_range>
10005488:	b002      	add	sp, #8
1000548a:	bd10      	pop	{r4, pc}
1000548c:	10006550 	.word	0x10006550
10005490:	20026ab0 	.word	0x20026ab0

10005494 <i2c_read_blocking_internal.constprop.0>:
10005494:	b570      	push	{r4, r5, r6, lr}
10005496:	2500      	movs	r5, #0
10005498:	2601      	movs	r6, #1
1000549a:	6804      	ldr	r4, [r0, #0]
1000549c:	2b00      	cmp	r3, #0
1000549e:	66e5      	str	r5, [r4, #108]	@ 0x6c
100054a0:	4684      	mov	ip, r0
100054a2:	6061      	str	r1, [r4, #4]
100054a4:	4628      	mov	r0, r5
100054a6:	f89d e010 	ldrb.w	lr, [sp, #16]
100054aa:	66e6      	str	r6, [r4, #108]	@ 0x6c
100054ac:	dd16      	ble.n	100054dc <i2c_read_blocking_internal.constprop.0+0x48>
100054ae:	1e5d      	subs	r5, r3, #1
100054b0:	6f61      	ldr	r1, [r4, #116]	@ 0x74
100054b2:	2910      	cmp	r1, #16
100054b4:	d0fc      	beq.n	100054b0 <i2c_read_blocking_internal.constprop.0+0x1c>
100054b6:	b300      	cbz	r0, 100054fa <i2c_read_blocking_internal.constprop.0+0x66>
100054b8:	2100      	movs	r1, #0
100054ba:	42a8      	cmp	r0, r5
100054bc:	bf04      	itt	eq
100054be:	f08e 0601 	eoreq.w	r6, lr, #1
100054c2:	ea41 2146 	orreq.w	r1, r1, r6, lsl #9
100054c6:	f441 7180 	orr.w	r1, r1, #256	@ 0x100
100054ca:	6121      	str	r1, [r4, #16]
100054cc:	f8d4 1080 	ldr.w	r1, [r4, #128]	@ 0x80
100054d0:	6b61      	ldr	r1, [r4, #52]	@ 0x34
100054d2:	0649      	lsls	r1, r1, #25
100054d4:	d505      	bpl.n	100054e2 <i2c_read_blocking_internal.constprop.0+0x4e>
100054d6:	f04f 30ff 	mov.w	r0, #4294967295	@ 0xffffffff
100054da:	6d63      	ldr	r3, [r4, #84]	@ 0x54
100054dc:	f88c e004 	strb.w	lr, [ip, #4]
100054e0:	bd70      	pop	{r4, r5, r6, pc}
100054e2:	6fa1      	ldr	r1, [r4, #120]	@ 0x78
100054e4:	2900      	cmp	r1, #0
100054e6:	d0f1      	beq.n	100054cc <i2c_read_blocking_internal.constprop.0+0x38>
100054e8:	6921      	ldr	r1, [r4, #16]
100054ea:	3001      	adds	r0, #1
100054ec:	4283      	cmp	r3, r0
100054ee:	f802 1b01 	strb.w	r1, [r2], #1
100054f2:	d0f3      	beq.n	100054dc <i2c_read_blocking_internal.constprop.0+0x48>
100054f4:	f8dc 4000 	ldr.w	r4, [ip]
100054f8:	e7da      	b.n	100054b0 <i2c_read_blocking_internal.constprop.0+0x1c>
100054fa:	f89c 1004 	ldrb.w	r1, [ip, #4]
100054fe:	0289      	lsls	r1, r1, #10
10005500:	e7db      	b.n	100054ba <i2c_read_blocking_internal.constprop.0+0x26>
10005502:	bf00      	nop

10005504 <i2c_write_blocking_internal.constprop.0>:
10005504:	e92d 41f0 	stmdb	sp!, {r4, r5, r6, r7, r8, lr}
10005508:	2700      	movs	r7, #0
1000550a:	2401      	movs	r4, #1
1000550c:	4694      	mov	ip, r2
1000550e:	6802      	ldr	r2, [r0, #0]
10005510:	4605      	mov	r5, r0
10005512:	66d7      	str	r7, [r2, #108]	@ 0x6c
10005514:	6051      	str	r1, [r2, #4]
10005516:	66d4      	str	r4, [r2, #108]	@ 0x6c
10005518:	1e1c      	subs	r4, r3, #0
1000551a:	4638      	mov	r0, r7
1000551c:	f89d 6018 	ldrb.w	r6, [sp, #24]
10005520:	dd1e      	ble.n	10005560 <i2c_write_blocking_internal.constprop.0+0x5c>
10005522:	7929      	ldrb	r1, [r5, #4]
10005524:	f086 0701 	eor.w	r7, r6, #1
10005528:	0289      	lsls	r1, r1, #10
1000552a:	027f      	lsls	r7, r7, #9
1000552c:	f104 3eff 	add.w	lr, r4, #4294967295	@ 0xffffffff
10005530:	4570      	cmp	r0, lr
10005532:	bf0c      	ite	eq
10005534:	46b8      	moveq	r8, r7
10005536:	f04f 0800 	movne.w	r8, #0
1000553a:	f81c 3b01 	ldrb.w	r3, [ip], #1
1000553e:	430b      	orrs	r3, r1
10005540:	ea43 0308 	orr.w	r3, r3, r8
10005544:	6113      	str	r3, [r2, #16]
10005546:	6b53      	ldr	r3, [r2, #52]	@ 0x34
10005548:	06d9      	lsls	r1, r3, #27
1000554a:	d5fc      	bpl.n	10005546 <i2c_write_blocking_internal.constprop.0+0x42>
1000554c:	f8d2 1080 	ldr.w	r1, [r2, #128]	@ 0x80
10005550:	b949      	cbnz	r1, 10005566 <i2c_write_blocking_internal.constprop.0+0x62>
10005552:	4570      	cmp	r0, lr
10005554:	d01c      	beq.n	10005590 <i2c_write_blocking_internal.constprop.0+0x8c>
10005556:	3001      	adds	r0, #1
10005558:	4284      	cmp	r4, r0
1000555a:	f04f 0100 	mov.w	r1, #0
1000555e:	d1e7      	bne.n	10005530 <i2c_write_blocking_internal.constprop.0+0x2c>
10005560:	712e      	strb	r6, [r5, #4]
10005562:	e8bd 81f0 	ldmia.w	sp!, {r4, r5, r6, r7, r8, pc}
10005566:	f04f 0801 	mov.w	r8, #1
1000556a:	6d53      	ldr	r3, [r2, #84]	@ 0x54
1000556c:	6b53      	ldr	r3, [r2, #52]	@ 0x34
1000556e:	059b      	lsls	r3, r3, #22
10005570:	d5fc      	bpl.n	1000556c <i2c_write_blocking_internal.constprop.0+0x68>
10005572:	6e13      	ldr	r3, [r2, #96]	@ 0x60
10005574:	f1b8 0f00 	cmp.w	r8, #0
10005578:	d0ed      	beq.n	10005556 <i2c_write_blocking_internal.constprop.0+0x52>
1000557a:	b169      	cbz	r1, 10005598 <i2c_write_blocking_internal.constprop.0+0x94>
1000557c:	07cb      	lsls	r3, r1, #31
1000557e:	d40b      	bmi.n	10005598 <i2c_write_blocking_internal.constprop.0+0x94>
10005580:	f011 0f08 	tst.w	r1, #8
10005584:	bf08      	it	eq
10005586:	f04f 30ff 	moveq.w	r0, #4294967295	@ 0xffffffff
1000558a:	712e      	strb	r6, [r5, #4]
1000558c:	e8bd 81f0 	ldmia.w	sp!, {r4, r5, r6, r7, r8, pc}
10005590:	2e00      	cmp	r6, #0
10005592:	d1e0      	bne.n	10005556 <i2c_write_blocking_internal.constprop.0+0x52>
10005594:	46b0      	mov	r8, r6
10005596:	e7e9      	b.n	1000556c <i2c_write_blocking_internal.constprop.0+0x68>
10005598:	f04f 30ff 	mov.w	r0, #4294967295	@ 0xffffffff
1000559c:	e7e0      	b.n	10005560 <i2c_write_blocking_internal.constprop.0+0x5c>
1000559e:	bf00      	nop

100055a0 <i2c_set_baudrate>:
100055a0:	b5f8      	push	{r3, r4, r5, r6, r7, lr}
100055a2:	4604      	mov	r4, r0
100055a4:	2005      	movs	r0, #5
100055a6:	460f      	mov	r7, r1
100055a8:	f7fd fc1e 	bl	10002de8 <clock_get_hz>
100055ac:	eb00 0c57 	add.w	ip, r0, r7, lsr #1
100055b0:	fbbc fcf7 	udiv	ip, ip, r7
100055b4:	4d20      	ldr	r5, [pc, #128]	@ (10005638 <i2c_set_baudrate+0x98>)
100055b6:	eb0c 024c 	add.w	r2, ip, ip, lsl #1
100055ba:	fba5 6502 	umull	r6, r5, r5, r2
100055be:	491f      	ldr	r1, [pc, #124]	@ (1000563c <i2c_set_baudrate+0x9c>)
100055c0:	08ae      	lsrs	r6, r5, #2
100055c2:	428f      	cmp	r7, r1
100055c4:	eb00 0340 	add.w	r3, r0, r0, lsl #1
100055c8:	ebac 0595 	sub.w	r5, ip, r5, lsr #2
100055cc:	d82e      	bhi.n	1000562c <i2c_set_baudrate+0x8c>
100055ce:	f101 41d6 	add.w	r1, r1, #1795162112	@ 0x6b000000
100055d2:	f501 01a1 	add.w	r1, r1, #5275648	@ 0x508000
100055d6:	f601 012c 	addw	r1, r1, #2092	@ 0x82c
100055da:	fba1 1303 	umull	r1, r3, r1, r3
100055de:	0d9b      	lsrs	r3, r3, #22
100055e0:	3301      	adds	r3, #1
100055e2:	2100      	movs	r1, #0
100055e4:	2a4f      	cmp	r2, #79	@ 0x4f
100055e6:	bf98      	it	ls
100055e8:	2201      	movls	r2, #1
100055ea:	6824      	ldr	r4, [r4, #0]
100055ec:	fbb0 f0fc 	udiv	r0, r0, ip
100055f0:	66e1      	str	r1, [r4, #108]	@ 0x6c
100055f2:	6821      	ldr	r1, [r4, #0]
100055f4:	f504 5780 	add.w	r7, r4, #4096	@ 0x1000
100055f8:	f081 0104 	eor.w	r1, r1, #4
100055fc:	f001 0106 	and.w	r1, r1, #6
10005600:	6039      	str	r1, [r7, #0]
10005602:	bf88      	it	hi
10005604:	490c      	ldrhi	r1, [pc, #48]	@ (10005638 <i2c_set_baudrate+0x98>)
10005606:	61e5      	str	r5, [r4, #28]
10005608:	bf84      	itt	hi
1000560a:	fba1 1202 	umullhi	r1, r2, r1, r2
1000560e:	0992      	lsrhi	r2, r2, #6
10005610:	6226      	str	r6, [r4, #32]
10005612:	f8c4 20a0 	str.w	r2, [r4, #160]	@ 0xa0
10005616:	4622      	mov	r2, r4
10005618:	2101      	movs	r1, #1
1000561a:	f852 5f7c 	ldr.w	r5, [r2, #124]!
1000561e:	406b      	eors	r3, r5
10005620:	b29b      	uxth	r3, r3
10005622:	f502 5280 	add.w	r2, r2, #4096	@ 0x1000
10005626:	6013      	str	r3, [r2, #0]
10005628:	66e1      	str	r1, [r4, #108]	@ 0x6c
1000562a:	bdf8      	pop	{r3, r4, r5, r6, r7, pc}
1000562c:	4904      	ldr	r1, [pc, #16]	@ (10005640 <i2c_set_baudrate+0xa0>)
1000562e:	fba1 1303 	umull	r1, r3, r1, r3
10005632:	0ddb      	lsrs	r3, r3, #23
10005634:	3301      	adds	r3, #1
10005636:	e7d4      	b.n	100055e2 <i2c_set_baudrate+0x42>
10005638:	cccccccd 	.word	0xcccccccd
1000563c:	000f423f 	.word	0x000f423f
10005640:	55e63b89 	.word	0x55e63b89

10005644 <i2c_init>:
10005644:	4a0e      	ldr	r2, [pc, #56]	@ (10005680 <i2c_init+0x3c>)
10005646:	b430      	push	{r4, r5}
10005648:	4290      	cmp	r0, r2
1000564a:	bf14      	ite	ne
1000564c:	2220      	movne	r2, #32
1000564e:	2210      	moveq	r2, #16
10005650:	4d0c      	ldr	r5, [pc, #48]	@ (10005684 <i2c_init+0x40>)
10005652:	4b0d      	ldr	r3, [pc, #52]	@ (10005688 <i2c_init+0x44>)
10005654:	4c0d      	ldr	r4, [pc, #52]	@ (1000568c <i2c_init+0x48>)
10005656:	602a      	str	r2, [r5, #0]
10005658:	601a      	str	r2, [r3, #0]
1000565a:	68a3      	ldr	r3, [r4, #8]
1000565c:	ea32 0303 	bics.w	r3, r2, r3
10005660:	d1fb      	bne.n	1000565a <i2c_init+0x16>
10005662:	f240 1565 	movw	r5, #357	@ 0x165
10005666:	2403      	movs	r4, #3
10005668:	6802      	ldr	r2, [r0, #0]
1000566a:	7103      	strb	r3, [r0, #4]
1000566c:	66d3      	str	r3, [r2, #108]	@ 0x6c
1000566e:	6015      	str	r5, [r2, #0]
10005670:	63d3      	str	r3, [r2, #60]	@ 0x3c
10005672:	6393      	str	r3, [r2, #56]	@ 0x38
10005674:	f8c2 4088 	str.w	r4, [r2, #136]	@ 0x88
10005678:	bc30      	pop	{r4, r5}
1000567a:	f7ff bf91 	b.w	100055a0 <i2c_set_baudrate>
1000567e:	bf00      	nop
10005680:	200006ec 	.word	0x200006ec
10005684:	40022000 	.word	0x40022000
10005688:	40023000 	.word	0x40023000
1000568c:	40020000 	.word	0x40020000

10005690 <i2c_write_blocking>:
10005690:	b410      	push	{r4}
10005692:	f89d 4004 	ldrb.w	r4, [sp, #4]
10005696:	9401      	str	r4, [sp, #4]
10005698:	f85d 4b04 	ldr.w	r4, [sp], #4
1000569c:	f7ff bf32 	b.w	10005504 <i2c_write_blocking_internal.constprop.0>

100056a0 <i2c_read_blocking>:
100056a0:	b410      	push	{r4}
100056a2:	f89d 4004 	ldrb.w	r4, [sp, #4]
100056a6:	9401      	str	r4, [sp, #4]
100056a8:	f85d 4b04 	ldr.w	r4, [sp], #4
100056ac:	f7ff bef2 	b.w	10005494 <i2c_read_blocking_internal.constprop.0>

100056b0 <malloc>:
100056b0:	4b02      	ldr	r3, [pc, #8]	@ (100056bc <malloc+0xc>)
100056b2:	4601      	mov	r1, r0
100056b4:	6818      	ldr	r0, [r3, #0]
100056b6:	f000 b80b 	b.w	100056d0 <_malloc_r>
100056ba:	bf00      	nop
100056bc:	20000b08 	.word	0x20000b08

100056c0 <free>:
100056c0:	4b02      	ldr	r3, [pc, #8]	@ (100056cc <free+0xc>)
100056c2:	4601      	mov	r1, r0
100056c4:	6818      	ldr	r0, [r3, #0]
100056c6:	f000 bc43 	b.w	10005f50 <_free_r>
100056ca:	bf00      	nop
100056cc:	20000b08 	.word	0x20000b08

100056d0 <_malloc_r>:
100056d0:	f101 030b 	add.w	r3, r1, #11
100056d4:	2b16      	cmp	r3, #22
100056d6:	e92d 4ff0 	stmdb	sp!, {r4, r5, r6, r7, r8, r9, sl, fp, lr}
100056da:	4607      	mov	r7, r0
100056dc:	b083      	sub	sp, #12
100056de:	d823      	bhi.n	10005728 <_malloc_r+0x58>
100056e0:	2910      	cmp	r1, #16
100056e2:	f200 80af 	bhi.w	10005844 <_malloc_r+0x174>
100056e6:	f000 faaf 	bl	10005c48 <__malloc_lock>
100056ea:	2510      	movs	r5, #16
100056ec:	2318      	movs	r3, #24
100056ee:	2002      	movs	r0, #2
100056f0:	4eba      	ldr	r6, [pc, #744]	@ (100059dc <_malloc_r+0x30c>)
100056f2:	4433      	add	r3, r6
100056f4:	685c      	ldr	r4, [r3, #4]
100056f6:	f1a3 0208 	sub.w	r2, r3, #8
100056fa:	4294      	cmp	r4, r2
100056fc:	f000 8156 	beq.w	100059ac <_malloc_r+0x2dc>
10005700:	6863      	ldr	r3, [r4, #4]
10005702:	4638      	mov	r0, r7
10005704:	f023 0303 	bic.w	r3, r3, #3
10005708:	e9d4 1202 	ldrd	r1, r2, [r4, #8]
1000570c:	4423      	add	r3, r4
1000570e:	60ca      	str	r2, [r1, #12]
10005710:	6091      	str	r1, [r2, #8]
10005712:	685a      	ldr	r2, [r3, #4]
10005714:	3408      	adds	r4, #8
10005716:	f042 0201 	orr.w	r2, r2, #1
1000571a:	605a      	str	r2, [r3, #4]
1000571c:	f000 fa9a 	bl	10005c54 <__malloc_unlock>
10005720:	4620      	mov	r0, r4
10005722:	b003      	add	sp, #12
10005724:	e8bd 8ff0 	ldmia.w	sp!, {r4, r5, r6, r7, r8, r9, sl, fp, pc}
10005728:	2b00      	cmp	r3, #0
1000572a:	f023 0507 	bic.w	r5, r3, #7
1000572e:	f2c0 8089 	blt.w	10005844 <_malloc_r+0x174>
10005732:	42a9      	cmp	r1, r5
10005734:	f200 8086 	bhi.w	10005844 <_malloc_r+0x174>
10005738:	f000 fa86 	bl	10005c48 <__malloc_lock>
1000573c:	f5b5 7ffc 	cmp.w	r5, #504	@ 0x1f8
10005740:	f0c0 827b 	bcc.w	10005c3a <_malloc_r+0x56a>
10005744:	0a6b      	lsrs	r3, r5, #9
10005746:	f000 8084 	beq.w	10005852 <_malloc_r+0x182>
1000574a:	2b04      	cmp	r3, #4
1000574c:	f200 8162 	bhi.w	10005a14 <_malloc_r+0x344>
10005750:	09ab      	lsrs	r3, r5, #6
10005752:	f103 0039 	add.w	r0, r3, #57	@ 0x39
10005756:	f103 0e38 	add.w	lr, r3, #56	@ 0x38
1000575a:	00c3      	lsls	r3, r0, #3
1000575c:	4e9f      	ldr	r6, [pc, #636]	@ (100059dc <_malloc_r+0x30c>)
1000575e:	4433      	add	r3, r6
10005760:	f1a3 0c08 	sub.w	ip, r3, #8
10005764:	685c      	ldr	r4, [r3, #4]
10005766:	45a4      	cmp	ip, r4
10005768:	d107      	bne.n	1000577a <_malloc_r+0xaa>
1000576a:	e00d      	b.n	10005788 <_malloc_r+0xb8>
1000576c:	2a00      	cmp	r2, #0
1000576e:	68e1      	ldr	r1, [r4, #12]
10005770:	f280 8116 	bge.w	100059a0 <_malloc_r+0x2d0>
10005774:	458c      	cmp	ip, r1
10005776:	460c      	mov	r4, r1
10005778:	d006      	beq.n	10005788 <_malloc_r+0xb8>
1000577a:	6863      	ldr	r3, [r4, #4]
1000577c:	f023 0303 	bic.w	r3, r3, #3
10005780:	1b5a      	subs	r2, r3, r5
10005782:	2a0f      	cmp	r2, #15
10005784:	ddf2      	ble.n	1000576c <_malloc_r+0x9c>
10005786:	4670      	mov	r0, lr
10005788:	f8df 8268 	ldr.w	r8, [pc, #616]	@ 100059f4 <_malloc_r+0x324>
1000578c:	6934      	ldr	r4, [r6, #16]
1000578e:	4544      	cmp	r4, r8
10005790:	f000 80f2 	beq.w	10005978 <_malloc_r+0x2a8>
10005794:	6863      	ldr	r3, [r4, #4]
10005796:	f023 0c03 	bic.w	ip, r3, #3
1000579a:	ebac 0305 	sub.w	r3, ip, r5
1000579e:	2b0f      	cmp	r3, #15
100057a0:	f300 8174 	bgt.w	10005a8c <_malloc_r+0x3bc>
100057a4:	2b00      	cmp	r3, #0
100057a6:	e9c6 8804 	strd	r8, r8, [r6, #16]
100057aa:	f280 8163 	bge.w	10005a74 <_malloc_r+0x3a4>
100057ae:	f5bc 7f00 	cmp.w	ip, #512	@ 0x200
100057b2:	f8d6 e004 	ldr.w	lr, [r6, #4]
100057b6:	f080 80ff 	bcs.w	100059b8 <_malloc_r+0x2e8>
100057ba:	ea4f 03dc 	mov.w	r3, ip, lsr #3
100057be:	2201      	movs	r2, #1
100057c0:	ea4f 1c5c 	mov.w	ip, ip, lsr #5
100057c4:	3301      	adds	r3, #1
100057c6:	fa02 f20c 	lsl.w	r2, r2, ip
100057ca:	f856 1033 	ldr.w	r1, [r6, r3, lsl #3]
100057ce:	ea4e 0e02 	orr.w	lr, lr, r2
100057d2:	eb06 02c3 	add.w	r2, r6, r3, lsl #3
100057d6:	3a08      	subs	r2, #8
100057d8:	f8c6 e004 	str.w	lr, [r6, #4]
100057dc:	e9c4 1202 	strd	r1, r2, [r4, #8]
100057e0:	f846 4033 	str.w	r4, [r6, r3, lsl #3]
100057e4:	60cc      	str	r4, [r1, #12]
100057e6:	1083      	asrs	r3, r0, #2
100057e8:	f04f 0c01 	mov.w	ip, #1
100057ec:	fa0c fc03 	lsl.w	ip, ip, r3
100057f0:	45f4      	cmp	ip, lr
100057f2:	d834      	bhi.n	1000585e <_malloc_r+0x18e>
100057f4:	ea1c 0f0e 	tst.w	ip, lr
100057f8:	d107      	bne.n	1000580a <_malloc_r+0x13a>
100057fa:	f020 0003 	bic.w	r0, r0, #3
100057fe:	ea4f 0c4c 	mov.w	ip, ip, lsl #1
10005802:	3004      	adds	r0, #4
10005804:	ea1c 0f0e 	tst.w	ip, lr
10005808:	d0f9      	beq.n	100057fe <_malloc_r+0x12e>
1000580a:	eb06 0ac0 	add.w	sl, r6, r0, lsl #3
1000580e:	4681      	mov	r9, r0
10005810:	46d6      	mov	lr, sl
10005812:	f8de 300c 	ldr.w	r3, [lr, #12]
10005816:	e00b      	b.n	10005830 <_malloc_r+0x160>
10005818:	685a      	ldr	r2, [r3, #4]
1000581a:	461c      	mov	r4, r3
1000581c:	68db      	ldr	r3, [r3, #12]
1000581e:	f022 0203 	bic.w	r2, r2, #3
10005822:	1b51      	subs	r1, r2, r5
10005824:	290f      	cmp	r1, #15
10005826:	f300 8101 	bgt.w	10005a2c <_malloc_r+0x35c>
1000582a:	2900      	cmp	r1, #0
1000582c:	f280 8115 	bge.w	10005a5a <_malloc_r+0x38a>
10005830:	459e      	cmp	lr, r3
10005832:	d1f1      	bne.n	10005818 <_malloc_r+0x148>
10005834:	f109 0901 	add.w	r9, r9, #1
10005838:	f10e 0e08 	add.w	lr, lr, #8
1000583c:	f019 0f03 	tst.w	r9, #3
10005840:	d1e7      	bne.n	10005812 <_malloc_r+0x142>
10005842:	e158      	b.n	10005af6 <_malloc_r+0x426>
10005844:	230c      	movs	r3, #12
10005846:	603b      	str	r3, [r7, #0]
10005848:	2400      	movs	r4, #0
1000584a:	4620      	mov	r0, r4
1000584c:	b003      	add	sp, #12
1000584e:	e8bd 8ff0 	ldmia.w	sp!, {r4, r5, r6, r7, r8, r9, sl, fp, pc}
10005852:	f44f 7300 	mov.w	r3, #512	@ 0x200
10005856:	2040      	movs	r0, #64	@ 0x40
10005858:	f04f 0e3f 	mov.w	lr, #63	@ 0x3f
1000585c:	e77e      	b.n	1000575c <_malloc_r+0x8c>
1000585e:	68b4      	ldr	r4, [r6, #8]
10005860:	6863      	ldr	r3, [r4, #4]
10005862:	f023 0903 	bic.w	r9, r3, #3
10005866:	45a9      	cmp	r9, r5
10005868:	eba9 0305 	sub.w	r3, r9, r5
1000586c:	d302      	bcc.n	10005874 <_malloc_r+0x1a4>
1000586e:	2b0f      	cmp	r3, #15
10005870:	f300 8085 	bgt.w	1000597e <_malloc_r+0x2ae>
10005874:	4b5a      	ldr	r3, [pc, #360]	@ (100059e0 <_malloc_r+0x310>)
10005876:	2008      	movs	r0, #8
10005878:	681b      	ldr	r3, [r3, #0]
1000587a:	f103 0810 	add.w	r8, r3, #16
1000587e:	eb04 0309 	add.w	r3, r4, r9
10005882:	9300      	str	r3, [sp, #0]
10005884:	f000 fa56 	bl	10005d34 <sysconf>
10005888:	4a56      	ldr	r2, [pc, #344]	@ (100059e4 <_malloc_r+0x314>)
1000588a:	44a8      	add	r8, r5
1000588c:	4683      	mov	fp, r0
1000588e:	6813      	ldr	r3, [r2, #0]
10005890:	3301      	adds	r3, #1
10005892:	d005      	beq.n	100058a0 <_malloc_r+0x1d0>
10005894:	f108 38ff 	add.w	r8, r8, #4294967295	@ 0xffffffff
10005898:	4243      	negs	r3, r0
1000589a:	4480      	add	r8, r0
1000589c:	ea03 0808 	and.w	r8, r3, r8
100058a0:	4641      	mov	r1, r8
100058a2:	4638      	mov	r0, r7
100058a4:	f000 fa2a 	bl	10005cfc <_sbrk_r>
100058a8:	f1b0 3fff 	cmp.w	r0, #4294967295	@ 0xffffffff
100058ac:	4682      	mov	sl, r0
100058ae:	4a4d      	ldr	r2, [pc, #308]	@ (100059e4 <_malloc_r+0x314>)
100058b0:	f000 8107 	beq.w	10005ac2 <_malloc_r+0x3f2>
100058b4:	eb04 0309 	add.w	r3, r4, r9
100058b8:	4283      	cmp	r3, r0
100058ba:	f200 8100 	bhi.w	10005abe <_malloc_r+0x3ee>
100058be:	4b4a      	ldr	r3, [pc, #296]	@ (100059e8 <_malloc_r+0x318>)
100058c0:	f10b 3cff 	add.w	ip, fp, #4294967295	@ 0xffffffff
100058c4:	6818      	ldr	r0, [r3, #0]
100058c6:	4440      	add	r0, r8
100058c8:	6018      	str	r0, [r3, #0]
100058ca:	f000 8164 	beq.w	10005b96 <_malloc_r+0x4c6>
100058ce:	6811      	ldr	r1, [r2, #0]
100058d0:	3101      	adds	r1, #1
100058d2:	f000 816c 	beq.w	10005bae <_malloc_r+0x4de>
100058d6:	eb04 0209 	add.w	r2, r4, r9
100058da:	ebaa 0202 	sub.w	r2, sl, r2
100058de:	4402      	add	r2, r0
100058e0:	601a      	str	r2, [r3, #0]
100058e2:	f01a 0207 	ands.w	r2, sl, #7
100058e6:	e9cd 2300 	strd	r2, r3, [sp]
100058ea:	f000 8127 	beq.w	10005b3c <_malloc_r+0x46c>
100058ee:	f1c2 0208 	rsb	r2, r2, #8
100058f2:	4638      	mov	r0, r7
100058f4:	4492      	add	sl, r2
100058f6:	445a      	add	r2, fp
100058f8:	44d0      	add	r8, sl
100058fa:	ea08 010c 	and.w	r1, r8, ip
100058fe:	1a52      	subs	r2, r2, r1
10005900:	ea02 0b0c 	and.w	fp, r2, ip
10005904:	4659      	mov	r1, fp
10005906:	f000 f9f9 	bl	10005cfc <_sbrk_r>
1000590a:	1c42      	adds	r2, r0, #1
1000590c:	9b01      	ldr	r3, [sp, #4]
1000590e:	f000 816a 	beq.w	10005be6 <_malloc_r+0x516>
10005912:	eba0 000a 	sub.w	r0, r0, sl
10005916:	eb00 080b 	add.w	r8, r0, fp
1000591a:	6818      	ldr	r0, [r3, #0]
1000591c:	f048 0201 	orr.w	r2, r8, #1
10005920:	42b4      	cmp	r4, r6
10005922:	f8c6 a008 	str.w	sl, [r6, #8]
10005926:	4458      	add	r0, fp
10005928:	f8ca 2004 	str.w	r2, [sl, #4]
1000592c:	6018      	str	r0, [r3, #0]
1000592e:	d017      	beq.n	10005960 <_malloc_r+0x290>
10005930:	f1b9 0f0f 	cmp.w	r9, #15
10005934:	f240 813e 	bls.w	10005bb4 <_malloc_r+0x4e4>
10005938:	6861      	ldr	r1, [r4, #4]
1000593a:	f1a9 020c 	sub.w	r2, r9, #12
1000593e:	f04f 0c05 	mov.w	ip, #5
10005942:	f022 0207 	bic.w	r2, r2, #7
10005946:	f001 0101 	and.w	r1, r1, #1
1000594a:	4311      	orrs	r1, r2
1000594c:	2a0f      	cmp	r2, #15
1000594e:	6061      	str	r1, [r4, #4]
10005950:	eb04 0102 	add.w	r1, r4, r2
10005954:	e9c1 cc01 	strd	ip, ip, [r1, #4]
10005958:	f200 814d 	bhi.w	10005bf6 <_malloc_r+0x526>
1000595c:	f8da 2004 	ldr.w	r2, [sl, #4]
10005960:	4b22      	ldr	r3, [pc, #136]	@ (100059ec <_malloc_r+0x31c>)
10005962:	4654      	mov	r4, sl
10005964:	6819      	ldr	r1, [r3, #0]
10005966:	4281      	cmp	r1, r0
10005968:	bf38      	it	cc
1000596a:	6018      	strcc	r0, [r3, #0]
1000596c:	4b20      	ldr	r3, [pc, #128]	@ (100059f0 <_malloc_r+0x320>)
1000596e:	6819      	ldr	r1, [r3, #0]
10005970:	4281      	cmp	r1, r0
10005972:	bf38      	it	cc
10005974:	6018      	strcc	r0, [r3, #0]
10005976:	e0a6      	b.n	10005ac6 <_malloc_r+0x3f6>
10005978:	f8d6 e004 	ldr.w	lr, [r6, #4]
1000597c:	e733      	b.n	100057e6 <_malloc_r+0x116>
1000597e:	1962      	adds	r2, r4, r5
10005980:	f045 0501 	orr.w	r5, r5, #1
10005984:	f043 0301 	orr.w	r3, r3, #1
10005988:	3408      	adds	r4, #8
1000598a:	f844 5c04 	str.w	r5, [r4, #-4]
1000598e:	4638      	mov	r0, r7
10005990:	60b2      	str	r2, [r6, #8]
10005992:	6053      	str	r3, [r2, #4]
10005994:	f000 f95e 	bl	10005c54 <__malloc_unlock>
10005998:	4620      	mov	r0, r4
1000599a:	b003      	add	sp, #12
1000599c:	e8bd 8ff0 	ldmia.w	sp!, {r4, r5, r6, r7, r8, r9, sl, fp, pc}
100059a0:	68a2      	ldr	r2, [r4, #8]
100059a2:	4423      	add	r3, r4
100059a4:	4638      	mov	r0, r7
100059a6:	60d1      	str	r1, [r2, #12]
100059a8:	608a      	str	r2, [r1, #8]
100059aa:	e6b2      	b.n	10005712 <_malloc_r+0x42>
100059ac:	68dc      	ldr	r4, [r3, #12]
100059ae:	42a3      	cmp	r3, r4
100059b0:	f47f aea6 	bne.w	10005700 <_malloc_r+0x30>
100059b4:	3002      	adds	r0, #2
100059b6:	e6e7      	b.n	10005788 <_malloc_r+0xb8>
100059b8:	f5bc 6f20 	cmp.w	ip, #2560	@ 0xa00
100059bc:	ea4f 225c 	mov.w	r2, ip, lsr #9
100059c0:	d376      	bcc.n	10005ab0 <_malloc_r+0x3e0>
100059c2:	2a14      	cmp	r2, #20
100059c4:	f200 80cd 	bhi.w	10005b62 <_malloc_r+0x492>
100059c8:	f102 035c 	add.w	r3, r2, #92	@ 0x5c
100059cc:	325b      	adds	r2, #91	@ 0x5b
100059ce:	00db      	lsls	r3, r3, #3
100059d0:	18f1      	adds	r1, r6, r3
100059d2:	58f3      	ldr	r3, [r6, r3]
100059d4:	3908      	subs	r1, #8
100059d6:	4299      	cmp	r1, r3
100059d8:	d111      	bne.n	100059fe <_malloc_r+0x32e>
100059da:	e0a5      	b.n	10005b28 <_malloc_r+0x458>
100059dc:	20000700 	.word	0x20000700
100059e0:	20000ee4 	.word	0x20000ee4
100059e4:	200006f4 	.word	0x200006f4
100059e8:	20000eb4 	.word	0x20000eb4
100059ec:	20000edc 	.word	0x20000edc
100059f0:	20000ee0 	.word	0x20000ee0
100059f4:	20000708 	.word	0x20000708
100059f8:	689b      	ldr	r3, [r3, #8]
100059fa:	4299      	cmp	r1, r3
100059fc:	d004      	beq.n	10005a08 <_malloc_r+0x338>
100059fe:	685a      	ldr	r2, [r3, #4]
10005a00:	f022 0203 	bic.w	r2, r2, #3
10005a04:	4562      	cmp	r2, ip
10005a06:	d8f7      	bhi.n	100059f8 <_malloc_r+0x328>
10005a08:	68d9      	ldr	r1, [r3, #12]
10005a0a:	e9c4 3102 	strd	r3, r1, [r4, #8]
10005a0e:	608c      	str	r4, [r1, #8]
10005a10:	60dc      	str	r4, [r3, #12]
10005a12:	e6e8      	b.n	100057e6 <_malloc_r+0x116>
10005a14:	2b14      	cmp	r3, #20
10005a16:	d963      	bls.n	10005ae0 <_malloc_r+0x410>
10005a18:	2b54      	cmp	r3, #84	@ 0x54
10005a1a:	f200 80ab 	bhi.w	10005b74 <_malloc_r+0x4a4>
10005a1e:	0b2b      	lsrs	r3, r5, #12
10005a20:	f103 006f 	add.w	r0, r3, #111	@ 0x6f
10005a24:	f103 0e6e 	add.w	lr, r3, #110	@ 0x6e
10005a28:	00c3      	lsls	r3, r0, #3
10005a2a:	e697      	b.n	1000575c <_malloc_r+0x8c>
10005a2c:	f8d4 c008 	ldr.w	ip, [r4, #8]
10005a30:	4638      	mov	r0, r7
10005a32:	1967      	adds	r7, r4, r5
10005a34:	f045 0501 	orr.w	r5, r5, #1
10005a38:	6065      	str	r5, [r4, #4]
10005a3a:	f8cc 300c 	str.w	r3, [ip, #12]
10005a3e:	f8c3 c008 	str.w	ip, [r3, #8]
10005a42:	f041 0301 	orr.w	r3, r1, #1
10005a46:	e9c6 7704 	strd	r7, r7, [r6, #16]
10005a4a:	e9c7 8802 	strd	r8, r8, [r7, #8]
10005a4e:	607b      	str	r3, [r7, #4]
10005a50:	50a1      	str	r1, [r4, r2]
10005a52:	3408      	adds	r4, #8
10005a54:	f000 f8fe 	bl	10005c54 <__malloc_unlock>
10005a58:	e6f7      	b.n	1000584a <_malloc_r+0x17a>
10005a5a:	4422      	add	r2, r4
10005a5c:	4638      	mov	r0, r7
10005a5e:	6851      	ldr	r1, [r2, #4]
10005a60:	f041 0101 	orr.w	r1, r1, #1
10005a64:	6051      	str	r1, [r2, #4]
10005a66:	f854 2f08 	ldr.w	r2, [r4, #8]!
10005a6a:	60d3      	str	r3, [r2, #12]
10005a6c:	609a      	str	r2, [r3, #8]
10005a6e:	f000 f8f1 	bl	10005c54 <__malloc_unlock>
10005a72:	e6ea      	b.n	1000584a <_malloc_r+0x17a>
10005a74:	44a4      	add	ip, r4
10005a76:	4638      	mov	r0, r7
10005a78:	3408      	adds	r4, #8
10005a7a:	f8dc 3004 	ldr.w	r3, [ip, #4]
10005a7e:	f043 0301 	orr.w	r3, r3, #1
10005a82:	f8cc 3004 	str.w	r3, [ip, #4]
10005a86:	f000 f8e5 	bl	10005c54 <__malloc_unlock>
10005a8a:	e6de      	b.n	1000584a <_malloc_r+0x17a>
10005a8c:	1962      	adds	r2, r4, r5
10005a8e:	f043 0101 	orr.w	r1, r3, #1
10005a92:	f045 0501 	orr.w	r5, r5, #1
10005a96:	4638      	mov	r0, r7
10005a98:	6065      	str	r5, [r4, #4]
10005a9a:	e9c6 2204 	strd	r2, r2, [r6, #16]
10005a9e:	e9c2 8802 	strd	r8, r8, [r2, #8]
10005aa2:	6051      	str	r1, [r2, #4]
10005aa4:	f844 300c 	str.w	r3, [r4, ip]
10005aa8:	3408      	adds	r4, #8
10005aaa:	f000 f8d3 	bl	10005c54 <__malloc_unlock>
10005aae:	e6cc      	b.n	1000584a <_malloc_r+0x17a>
10005ab0:	ea4f 129c 	mov.w	r2, ip, lsr #6
10005ab4:	f102 0339 	add.w	r3, r2, #57	@ 0x39
10005ab8:	3238      	adds	r2, #56	@ 0x38
10005aba:	00db      	lsls	r3, r3, #3
10005abc:	e788      	b.n	100059d0 <_malloc_r+0x300>
10005abe:	42b4      	cmp	r4, r6
10005ac0:	d062      	beq.n	10005b88 <_malloc_r+0x4b8>
10005ac2:	68b4      	ldr	r4, [r6, #8]
10005ac4:	6862      	ldr	r2, [r4, #4]
10005ac6:	f022 0803 	bic.w	r8, r2, #3
10005aca:	45a8      	cmp	r8, r5
10005acc:	eba8 0305 	sub.w	r3, r8, r5
10005ad0:	d302      	bcc.n	10005ad8 <_malloc_r+0x408>
10005ad2:	2b0f      	cmp	r3, #15
10005ad4:	f73f af53 	bgt.w	1000597e <_malloc_r+0x2ae>
10005ad8:	4638      	mov	r0, r7
10005ada:	f000 f8bb 	bl	10005c54 <__malloc_unlock>
10005ade:	e6b3      	b.n	10005848 <_malloc_r+0x178>
10005ae0:	f103 005c 	add.w	r0, r3, #92	@ 0x5c
10005ae4:	f103 0e5b 	add.w	lr, r3, #91	@ 0x5b
10005ae8:	00c3      	lsls	r3, r0, #3
10005aea:	e637      	b.n	1000575c <_malloc_r+0x8c>
10005aec:	f85a 3908 	ldr.w	r3, [sl], #-8
10005af0:	4553      	cmp	r3, sl
10005af2:	f040 80a0 	bne.w	10005c36 <_malloc_r+0x566>
10005af6:	f010 0f03 	tst.w	r0, #3
10005afa:	f100 30ff 	add.w	r0, r0, #4294967295	@ 0xffffffff
10005afe:	d1f5      	bne.n	10005aec <_malloc_r+0x41c>
10005b00:	6873      	ldr	r3, [r6, #4]
10005b02:	ea23 030c 	bic.w	r3, r3, ip
10005b06:	6073      	str	r3, [r6, #4]
10005b08:	ea4f 0c4c 	mov.w	ip, ip, lsl #1
10005b0c:	f10c 32ff 	add.w	r2, ip, #4294967295	@ 0xffffffff
10005b10:	429a      	cmp	r2, r3
10005b12:	d304      	bcc.n	10005b1e <_malloc_r+0x44e>
10005b14:	e6a3      	b.n	1000585e <_malloc_r+0x18e>
10005b16:	ea4f 0c4c 	mov.w	ip, ip, lsl #1
10005b1a:	f109 0904 	add.w	r9, r9, #4
10005b1e:	ea1c 0f03 	tst.w	ip, r3
10005b22:	d0f8      	beq.n	10005b16 <_malloc_r+0x446>
10005b24:	4648      	mov	r0, r9
10005b26:	e670      	b.n	1000580a <_malloc_r+0x13a>
10005b28:	1092      	asrs	r2, r2, #2
10005b2a:	f04f 0c01 	mov.w	ip, #1
10005b2e:	fa0c f202 	lsl.w	r2, ip, r2
10005b32:	ea4e 0e02 	orr.w	lr, lr, r2
10005b36:	f8c6 e004 	str.w	lr, [r6, #4]
10005b3a:	e766      	b.n	10005a0a <_malloc_r+0x33a>
10005b3c:	eb0a 0208 	add.w	r2, sl, r8
10005b40:	4638      	mov	r0, r7
10005b42:	ea02 020c 	and.w	r2, r2, ip
10005b46:	ebab 0b02 	sub.w	fp, fp, r2
10005b4a:	ea0b 0b0c 	and.w	fp, fp, ip
10005b4e:	4659      	mov	r1, fp
10005b50:	f000 f8d4 	bl	10005cfc <_sbrk_r>
10005b54:	1c43      	adds	r3, r0, #1
10005b56:	9b01      	ldr	r3, [sp, #4]
10005b58:	f47f aedb 	bne.w	10005912 <_malloc_r+0x242>
10005b5c:	f8dd b000 	ldr.w	fp, [sp]
10005b60:	e6db      	b.n	1000591a <_malloc_r+0x24a>
10005b62:	2a54      	cmp	r2, #84	@ 0x54
10005b64:	d82a      	bhi.n	10005bbc <_malloc_r+0x4ec>
10005b66:	ea4f 321c 	mov.w	r2, ip, lsr #12
10005b6a:	f102 036f 	add.w	r3, r2, #111	@ 0x6f
10005b6e:	326e      	adds	r2, #110	@ 0x6e
10005b70:	00db      	lsls	r3, r3, #3
10005b72:	e72d      	b.n	100059d0 <_malloc_r+0x300>
10005b74:	f5b3 7faa 	cmp.w	r3, #340	@ 0x154
10005b78:	d82a      	bhi.n	10005bd0 <_malloc_r+0x500>
10005b7a:	0beb      	lsrs	r3, r5, #15
10005b7c:	f103 0078 	add.w	r0, r3, #120	@ 0x78
10005b80:	f103 0e77 	add.w	lr, r3, #119	@ 0x77
10005b84:	00c3      	lsls	r3, r0, #3
10005b86:	e5e9      	b.n	1000575c <_malloc_r+0x8c>
10005b88:	4b2e      	ldr	r3, [pc, #184]	@ (10005c44 <_malloc_r+0x574>)
10005b8a:	f10b 3cff 	add.w	ip, fp, #4294967295	@ 0xffffffff
10005b8e:	6818      	ldr	r0, [r3, #0]
10005b90:	4440      	add	r0, r8
10005b92:	6018      	str	r0, [r3, #0]
10005b94:	e69b      	b.n	100058ce <_malloc_r+0x1fe>
10005b96:	ea1a 0f0c 	tst.w	sl, ip
10005b9a:	f47f ae98 	bne.w	100058ce <_malloc_r+0x1fe>
10005b9e:	44c8      	add	r8, r9
10005ba0:	f8d6 a008 	ldr.w	sl, [r6, #8]
10005ba4:	f048 0201 	orr.w	r2, r8, #1
10005ba8:	f8ca 2004 	str.w	r2, [sl, #4]
10005bac:	e6d8      	b.n	10005960 <_malloc_r+0x290>
10005bae:	f8c2 a000 	str.w	sl, [r2]
10005bb2:	e696      	b.n	100058e2 <_malloc_r+0x212>
10005bb4:	2301      	movs	r3, #1
10005bb6:	f8ca 3004 	str.w	r3, [sl, #4]
10005bba:	e78d      	b.n	10005ad8 <_malloc_r+0x408>
10005bbc:	f5b2 7faa 	cmp.w	r2, #340	@ 0x154
10005bc0:	d824      	bhi.n	10005c0c <_malloc_r+0x53c>
10005bc2:	ea4f 32dc 	mov.w	r2, ip, lsr #15
10005bc6:	f102 0378 	add.w	r3, r2, #120	@ 0x78
10005bca:	3277      	adds	r2, #119	@ 0x77
10005bcc:	00db      	lsls	r3, r3, #3
10005bce:	e6ff      	b.n	100059d0 <_malloc_r+0x300>
10005bd0:	f240 5254 	movw	r2, #1364	@ 0x554
10005bd4:	4293      	cmp	r3, r2
10005bd6:	d824      	bhi.n	10005c22 <_malloc_r+0x552>
10005bd8:	0cab      	lsrs	r3, r5, #18
10005bda:	f103 007d 	add.w	r0, r3, #125	@ 0x7d
10005bde:	f103 0e7c 	add.w	lr, r3, #124	@ 0x7c
10005be2:	00c3      	lsls	r3, r0, #3
10005be4:	e5ba      	b.n	1000575c <_malloc_r+0x8c>
10005be6:	9a00      	ldr	r2, [sp, #0]
10005be8:	f04f 0b00 	mov.w	fp, #0
10005bec:	3a08      	subs	r2, #8
10005bee:	4490      	add	r8, r2
10005bf0:	eba8 080a 	sub.w	r8, r8, sl
10005bf4:	e691      	b.n	1000591a <_malloc_r+0x24a>
10005bf6:	4638      	mov	r0, r7
10005bf8:	f104 0108 	add.w	r1, r4, #8
10005bfc:	9300      	str	r3, [sp, #0]
10005bfe:	f000 f9a7 	bl	10005f50 <_free_r>
10005c02:	9b00      	ldr	r3, [sp, #0]
10005c04:	f8d6 a008 	ldr.w	sl, [r6, #8]
10005c08:	6818      	ldr	r0, [r3, #0]
10005c0a:	e6a7      	b.n	1000595c <_malloc_r+0x28c>
10005c0c:	f240 5354 	movw	r3, #1364	@ 0x554
10005c10:	429a      	cmp	r2, r3
10005c12:	d80c      	bhi.n	10005c2e <_malloc_r+0x55e>
10005c14:	ea4f 429c 	mov.w	r2, ip, lsr #18
10005c18:	f102 037d 	add.w	r3, r2, #125	@ 0x7d
10005c1c:	327c      	adds	r2, #124	@ 0x7c
10005c1e:	00db      	lsls	r3, r3, #3
10005c20:	e6d6      	b.n	100059d0 <_malloc_r+0x300>
10005c22:	f44f 737e 	mov.w	r3, #1016	@ 0x3f8
10005c26:	207f      	movs	r0, #127	@ 0x7f
10005c28:	f04f 0e7e 	mov.w	lr, #126	@ 0x7e
10005c2c:	e596      	b.n	1000575c <_malloc_r+0x8c>
10005c2e:	f44f 737e 	mov.w	r3, #1016	@ 0x3f8
10005c32:	227e      	movs	r2, #126	@ 0x7e
10005c34:	e6cc      	b.n	100059d0 <_malloc_r+0x300>
10005c36:	6873      	ldr	r3, [r6, #4]
10005c38:	e766      	b.n	10005b08 <_malloc_r+0x438>
10005c3a:	08e8      	lsrs	r0, r5, #3
10005c3c:	f105 0308 	add.w	r3, r5, #8
10005c40:	e556      	b.n	100056f0 <_malloc_r+0x20>
10005c42:	bf00      	nop
10005c44:	20000eb4 	.word	0x20000eb4

10005c48 <__malloc_lock>:
10005c48:	4801      	ldr	r0, [pc, #4]	@ (10005c50 <__malloc_lock+0x8>)
10005c4a:	f000 b86f 	b.w	10005d2c <__retarget_lock_acquire_recursive>
10005c4e:	bf00      	nop
10005c50:	20000eb0 	.word	0x20000eb0

10005c54 <__malloc_unlock>:
10005c54:	4801      	ldr	r0, [pc, #4]	@ (10005c5c <__malloc_unlock+0x8>)
10005c56:	f000 b86b 	b.w	10005d30 <__retarget_lock_release_recursive>
10005c5a:	bf00      	nop
10005c5c:	20000eb0 	.word	0x20000eb0

10005c60 <memset>:
10005c60:	0783      	lsls	r3, r0, #30
10005c62:	b530      	push	{r4, r5, lr}
10005c64:	d046      	beq.n	10005cf4 <memset+0x94>
10005c66:	1884      	adds	r4, r0, r2
10005c68:	4684      	mov	ip, r0
10005c6a:	e004      	b.n	10005c76 <memset+0x16>
10005c6c:	f803 1b01 	strb.w	r1, [r3], #1
10005c70:	079d      	lsls	r5, r3, #30
10005c72:	d004      	beq.n	10005c7e <memset+0x1e>
10005c74:	469c      	mov	ip, r3
10005c76:	45a4      	cmp	ip, r4
10005c78:	4663      	mov	r3, ip
10005c7a:	d1f7      	bne.n	10005c6c <memset+0xc>
10005c7c:	bd30      	pop	{r4, r5, pc}
10005c7e:	3a01      	subs	r2, #1
10005c80:	4402      	add	r2, r0
10005c82:	eba2 020c 	sub.w	r2, r2, ip
10005c86:	2a03      	cmp	r2, #3
10005c88:	d929      	bls.n	10005cde <memset+0x7e>
10005c8a:	b2cc      	uxtb	r4, r1
10005c8c:	2a0f      	cmp	r2, #15
10005c8e:	eb04 2404 	add.w	r4, r4, r4, lsl #8
10005c92:	eb04 4404 	add.w	r4, r4, r4, lsl #16
10005c96:	d92f      	bls.n	10005cf8 <memset+0x98>
10005c98:	f1a2 0c10 	sub.w	ip, r2, #16
10005c9c:	f103 0510 	add.w	r5, r3, #16
10005ca0:	f02c 0c0f 	bic.w	ip, ip, #15
10005ca4:	44ac      	add	ip, r5
10005ca6:	e9c3 4400 	strd	r4, r4, [r3]
10005caa:	e9c3 4402 	strd	r4, r4, [r3, #8]
10005cae:	3310      	adds	r3, #16
10005cb0:	4563      	cmp	r3, ip
10005cb2:	d1f8      	bne.n	10005ca6 <memset+0x46>
10005cb4:	f012 0f0c 	tst.w	r2, #12
10005cb8:	f002 0e0f 	and.w	lr, r2, #15
10005cbc:	d018      	beq.n	10005cf0 <memset+0x90>
10005cbe:	f02e 0c03 	bic.w	ip, lr, #3
10005cc2:	f1ae 0504 	sub.w	r5, lr, #4
10005cc6:	461a      	mov	r2, r3
10005cc8:	449c      	add	ip, r3
10005cca:	f842 4b04 	str.w	r4, [r2], #4
10005cce:	4562      	cmp	r2, ip
10005cd0:	d1fb      	bne.n	10005cca <memset+0x6a>
10005cd2:	f025 0403 	bic.w	r4, r5, #3
10005cd6:	3304      	adds	r3, #4
10005cd8:	f00e 0203 	and.w	r2, lr, #3
10005cdc:	4423      	add	r3, r4
10005cde:	2a00      	cmp	r2, #0
10005ce0:	d0cc      	beq.n	10005c7c <memset+0x1c>
10005ce2:	b2c9      	uxtb	r1, r1
10005ce4:	441a      	add	r2, r3
10005ce6:	f803 1b01 	strb.w	r1, [r3], #1
10005cea:	4293      	cmp	r3, r2
10005cec:	d1fb      	bne.n	10005ce6 <memset+0x86>
10005cee:	bd30      	pop	{r4, r5, pc}
10005cf0:	4672      	mov	r2, lr
10005cf2:	e7f4      	b.n	10005cde <memset+0x7e>
10005cf4:	4603      	mov	r3, r0
10005cf6:	e7c6      	b.n	10005c86 <memset+0x26>
10005cf8:	4696      	mov	lr, r2
10005cfa:	e7e0      	b.n	10005cbe <memset+0x5e>

10005cfc <_sbrk_r>:
10005cfc:	b538      	push	{r3, r4, r5, lr}
10005cfe:	2200      	movs	r2, #0
10005d00:	4d06      	ldr	r5, [pc, #24]	@ (10005d1c <_sbrk_r+0x20>)
10005d02:	4604      	mov	r4, r0
10005d04:	4608      	mov	r0, r1
10005d06:	602a      	str	r2, [r5, #0]
10005d08:	f7ff f902 	bl	10004f10 <_sbrk>
10005d0c:	1c43      	adds	r3, r0, #1
10005d0e:	d000      	beq.n	10005d12 <_sbrk_r+0x16>
10005d10:	bd38      	pop	{r3, r4, r5, pc}
10005d12:	682b      	ldr	r3, [r5, #0]
10005d14:	2b00      	cmp	r3, #0
10005d16:	d0fb      	beq.n	10005d10 <_sbrk_r+0x14>
10005d18:	6023      	str	r3, [r4, #0]
10005d1a:	bd38      	pop	{r3, r4, r5, pc}
10005d1c:	20001088 	.word	0x20001088

10005d20 <__errno>:
10005d20:	4b01      	ldr	r3, [pc, #4]	@ (10005d28 <__errno+0x8>)
10005d22:	6818      	ldr	r0, [r3, #0]
10005d24:	4770      	bx	lr
10005d26:	bf00      	nop
10005d28:	20000b08 	.word	0x20000b08

10005d2c <__retarget_lock_acquire_recursive>:
10005d2c:	4770      	bx	lr
10005d2e:	bf00      	nop

10005d30 <__retarget_lock_release_recursive>:
10005d30:	4770      	bx	lr
10005d32:	bf00      	nop

10005d34 <sysconf>:
10005d34:	2808      	cmp	r0, #8
10005d36:	d102      	bne.n	10005d3e <sysconf+0xa>
10005d38:	f44f 5080 	mov.w	r0, #4096	@ 0x1000
10005d3c:	4770      	bx	lr
10005d3e:	b508      	push	{r3, lr}
10005d40:	f7ff ffee 	bl	10005d20 <__errno>
10005d44:	2216      	movs	r2, #22
10005d46:	4603      	mov	r3, r0
10005d48:	f04f 30ff 	mov.w	r0, #4294967295	@ 0xffffffff
10005d4c:	601a      	str	r2, [r3, #0]
10005d4e:	bd08      	pop	{r3, pc}

10005d50 <memcpy>:
10005d50:	4684      	mov	ip, r0
10005d52:	ea41 0300 	orr.w	r3, r1, r0
10005d56:	f013 0303 	ands.w	r3, r3, #3
10005d5a:	d149      	bne.n	10005df0 <memcpy+0xa0>
10005d5c:	3a40      	subs	r2, #64	@ 0x40
10005d5e:	d323      	bcc.n	10005da8 <memcpy+0x58>
10005d60:	680b      	ldr	r3, [r1, #0]
10005d62:	6003      	str	r3, [r0, #0]
10005d64:	684b      	ldr	r3, [r1, #4]
10005d66:	6043      	str	r3, [r0, #4]
10005d68:	688b      	ldr	r3, [r1, #8]
10005d6a:	6083      	str	r3, [r0, #8]
10005d6c:	68cb      	ldr	r3, [r1, #12]
10005d6e:	60c3      	str	r3, [r0, #12]
10005d70:	690b      	ldr	r3, [r1, #16]
10005d72:	6103      	str	r3, [r0, #16]
10005d74:	694b      	ldr	r3, [r1, #20]
10005d76:	6143      	str	r3, [r0, #20]
10005d78:	698b      	ldr	r3, [r1, #24]
10005d7a:	6183      	str	r3, [r0, #24]
10005d7c:	69cb      	ldr	r3, [r1, #28]
10005d7e:	61c3      	str	r3, [r0, #28]
10005d80:	6a0b      	ldr	r3, [r1, #32]
10005d82:	6203      	str	r3, [r0, #32]
10005d84:	6a4b      	ldr	r3, [r1, #36]	@ 0x24
10005d86:	6243      	str	r3, [r0, #36]	@ 0x24
10005d88:	6a8b      	ldr	r3, [r1, #40]	@ 0x28
10005d8a:	6283      	str	r3, [r0, #40]	@ 0x28
10005d8c:	6acb      	ldr	r3, [r1, #44]	@ 0x2c
10005d8e:	62c3      	str	r3, [r0, #44]	@ 0x2c
10005d90:	6b0b      	ldr	r3, [r1, #48]	@ 0x30
10005d92:	6303      	str	r3, [r0, #48]	@ 0x30
10005d94:	6b4b      	ldr	r3, [r1, #52]	@ 0x34
10005d96:	6343      	str	r3, [r0, #52]	@ 0x34
10005d98:	6b8b      	ldr	r3, [r1, #56]	@ 0x38
10005d9a:	6383      	str	r3, [r0, #56]	@ 0x38
10005d9c:	6bcb      	ldr	r3, [r1, #60]	@ 0x3c
10005d9e:	63c3      	str	r3, [r0, #60]	@ 0x3c
10005da0:	3040      	adds	r0, #64	@ 0x40
10005da2:	3140      	adds	r1, #64	@ 0x40
10005da4:	3a40      	subs	r2, #64	@ 0x40
10005da6:	d2db      	bcs.n	10005d60 <memcpy+0x10>
10005da8:	3230      	adds	r2, #48	@ 0x30
10005daa:	d30b      	bcc.n	10005dc4 <memcpy+0x74>
10005dac:	680b      	ldr	r3, [r1, #0]
10005dae:	6003      	str	r3, [r0, #0]
10005db0:	684b      	ldr	r3, [r1, #4]
10005db2:	6043      	str	r3, [r0, #4]
10005db4:	688b      	ldr	r3, [r1, #8]
10005db6:	6083      	str	r3, [r0, #8]
10005db8:	68cb      	ldr	r3, [r1, #12]
10005dba:	60c3      	str	r3, [r0, #12]
10005dbc:	3010      	adds	r0, #16
10005dbe:	3110      	adds	r1, #16
10005dc0:	3a10      	subs	r2, #16
10005dc2:	d2f3      	bcs.n	10005dac <memcpy+0x5c>
10005dc4:	320c      	adds	r2, #12
10005dc6:	d305      	bcc.n	10005dd4 <memcpy+0x84>
10005dc8:	f851 3b04 	ldr.w	r3, [r1], #4
10005dcc:	f840 3b04 	str.w	r3, [r0], #4
10005dd0:	3a04      	subs	r2, #4
10005dd2:	d2f9      	bcs.n	10005dc8 <memcpy+0x78>
10005dd4:	3204      	adds	r2, #4
10005dd6:	d008      	beq.n	10005dea <memcpy+0x9a>
10005dd8:	07d2      	lsls	r2, r2, #31
10005dda:	bf1c      	itt	ne
10005ddc:	f811 3b01 	ldrbne.w	r3, [r1], #1
10005de0:	f800 3b01 	strbne.w	r3, [r0], #1
10005de4:	d301      	bcc.n	10005dea <memcpy+0x9a>
10005de6:	880b      	ldrh	r3, [r1, #0]
10005de8:	8003      	strh	r3, [r0, #0]
10005dea:	4660      	mov	r0, ip
10005dec:	4770      	bx	lr
10005dee:	bf00      	nop
10005df0:	2a08      	cmp	r2, #8
10005df2:	d313      	bcc.n	10005e1c <memcpy+0xcc>
10005df4:	078b      	lsls	r3, r1, #30
10005df6:	d0b1      	beq.n	10005d5c <memcpy+0xc>
10005df8:	f010 0303 	ands.w	r3, r0, #3
10005dfc:	d0ae      	beq.n	10005d5c <memcpy+0xc>
10005dfe:	f1c3 0304 	rsb	r3, r3, #4
10005e02:	1ad2      	subs	r2, r2, r3
10005e04:	07db      	lsls	r3, r3, #31
10005e06:	bf1c      	itt	ne
10005e08:	f811 3b01 	ldrbne.w	r3, [r1], #1
10005e0c:	f800 3b01 	strbne.w	r3, [r0], #1
10005e10:	d3a4      	bcc.n	10005d5c <memcpy+0xc>
10005e12:	f831 3b02 	ldrh.w	r3, [r1], #2
10005e16:	f820 3b02 	strh.w	r3, [r0], #2
10005e1a:	e79f      	b.n	10005d5c <memcpy+0xc>
10005e1c:	3a04      	subs	r2, #4
10005e1e:	d3d9      	bcc.n	10005dd4 <memcpy+0x84>
10005e20:	3a01      	subs	r2, #1
10005e22:	f811 3b01 	ldrb.w	r3, [r1], #1
10005e26:	f800 3b01 	strb.w	r3, [r0], #1
10005e2a:	d2f9      	bcs.n	10005e20 <memcpy+0xd0>
10005e2c:	780b      	ldrb	r3, [r1, #0]
10005e2e:	7003      	strb	r3, [r0, #0]
10005e30:	784b      	ldrb	r3, [r1, #1]
10005e32:	7043      	strb	r3, [r0, #1]
10005e34:	788b      	ldrb	r3, [r1, #2]
10005e36:	7083      	strb	r3, [r0, #2]
10005e38:	4660      	mov	r0, ip
10005e3a:	4770      	bx	lr

10005e3c <strlen>:
10005e3c:	f020 0103 	bic.w	r1, r0, #3
10005e40:	f010 0003 	ands.w	r0, r0, #3
10005e44:	f1c0 0000 	rsb	r0, r0, #0
10005e48:	f851 3b04 	ldr.w	r3, [r1], #4
10005e4c:	f100 0c04 	add.w	ip, r0, #4
10005e50:	ea4f 0ccc 	mov.w	ip, ip, lsl #3
10005e54:	f06f 0200 	mvn.w	r2, #0
10005e58:	bf1c      	itt	ne
10005e5a:	fa22 f20c 	lsrne.w	r2, r2, ip
10005e5e:	4313      	orrne	r3, r2
10005e60:	f04f 0c01 	mov.w	ip, #1
10005e64:	ea4c 2c0c 	orr.w	ip, ip, ip, lsl #8
10005e68:	ea4c 4c0c 	orr.w	ip, ip, ip, lsl #16
10005e6c:	eba3 020c 	sub.w	r2, r3, ip
10005e70:	ea22 0203 	bic.w	r2, r2, r3
10005e74:	ea12 12cc 	ands.w	r2, r2, ip, lsl #7
10005e78:	bf04      	itt	eq
10005e7a:	f851 3b04 	ldreq.w	r3, [r1], #4
10005e7e:	3004      	addeq	r0, #4
10005e80:	d0f4      	beq.n	10005e6c <strlen+0x30>
10005e82:	f1c2 0100 	rsb	r1, r2, #0
10005e86:	ea02 0201 	and.w	r2, r2, r1
10005e8a:	fab2 f282 	clz	r2, r2
10005e8e:	f1c2 021f 	rsb	r2, r2, #31
10005e92:	eb00 00d2 	add.w	r0, r0, r2, lsr #3
10005e96:	4770      	bx	lr

10005e98 <_malloc_trim_r>:
10005e98:	e92d 43f8 	stmdb	sp!, {r3, r4, r5, r6, r7, r8, r9, lr}
10005e9c:	4606      	mov	r6, r0
10005e9e:	f8df 80ac 	ldr.w	r8, [pc, #172]	@ 10005f4c <_malloc_trim_r+0xb4>
10005ea2:	2008      	movs	r0, #8
10005ea4:	4689      	mov	r9, r1
10005ea6:	f7ff ff45 	bl	10005d34 <sysconf>
10005eaa:	4605      	mov	r5, r0
10005eac:	4630      	mov	r0, r6
10005eae:	f7ff fecb 	bl	10005c48 <__malloc_lock>
10005eb2:	f8d8 3008 	ldr.w	r3, [r8, #8]
10005eb6:	685f      	ldr	r7, [r3, #4]
10005eb8:	f027 0703 	bic.w	r7, r7, #3
10005ebc:	f1a7 0411 	sub.w	r4, r7, #17
10005ec0:	eba4 0409 	sub.w	r4, r4, r9
10005ec4:	442c      	add	r4, r5
10005ec6:	fbb4 f4f5 	udiv	r4, r4, r5
10005eca:	3c01      	subs	r4, #1
10005ecc:	fb05 f404 	mul.w	r4, r5, r4
10005ed0:	42a5      	cmp	r5, r4
10005ed2:	dc08      	bgt.n	10005ee6 <_malloc_trim_r+0x4e>
10005ed4:	2100      	movs	r1, #0
10005ed6:	4630      	mov	r0, r6
10005ed8:	f7ff ff10 	bl	10005cfc <_sbrk_r>
10005edc:	f8d8 3008 	ldr.w	r3, [r8, #8]
10005ee0:	443b      	add	r3, r7
10005ee2:	4298      	cmp	r0, r3
10005ee4:	d005      	beq.n	10005ef2 <_malloc_trim_r+0x5a>
10005ee6:	4630      	mov	r0, r6
10005ee8:	f7ff feb4 	bl	10005c54 <__malloc_unlock>
10005eec:	2000      	movs	r0, #0
10005eee:	e8bd 83f8 	ldmia.w	sp!, {r3, r4, r5, r6, r7, r8, r9, pc}
10005ef2:	4261      	negs	r1, r4
10005ef4:	4630      	mov	r0, r6
10005ef6:	f7ff ff01 	bl	10005cfc <_sbrk_r>
10005efa:	3001      	adds	r0, #1
10005efc:	d00f      	beq.n	10005f1e <_malloc_trim_r+0x86>
10005efe:	1b3f      	subs	r7, r7, r4
10005f00:	4a10      	ldr	r2, [pc, #64]	@ (10005f44 <_malloc_trim_r+0xac>)
10005f02:	f8d8 3008 	ldr.w	r3, [r8, #8]
10005f06:	4630      	mov	r0, r6
10005f08:	f047 0701 	orr.w	r7, r7, #1
10005f0c:	605f      	str	r7, [r3, #4]
10005f0e:	6813      	ldr	r3, [r2, #0]
10005f10:	1b1b      	subs	r3, r3, r4
10005f12:	6013      	str	r3, [r2, #0]
10005f14:	f7ff fe9e 	bl	10005c54 <__malloc_unlock>
10005f18:	2001      	movs	r0, #1
10005f1a:	e8bd 83f8 	ldmia.w	sp!, {r3, r4, r5, r6, r7, r8, r9, pc}
10005f1e:	2100      	movs	r1, #0
10005f20:	4630      	mov	r0, r6
10005f22:	f7ff feeb 	bl	10005cfc <_sbrk_r>
10005f26:	f8d8 2008 	ldr.w	r2, [r8, #8]
10005f2a:	1a83      	subs	r3, r0, r2
10005f2c:	2b0f      	cmp	r3, #15
10005f2e:	ddda      	ble.n	10005ee6 <_malloc_trim_r+0x4e>
10005f30:	f043 0301 	orr.w	r3, r3, #1
10005f34:	4903      	ldr	r1, [pc, #12]	@ (10005f44 <_malloc_trim_r+0xac>)
10005f36:	6053      	str	r3, [r2, #4]
10005f38:	4b03      	ldr	r3, [pc, #12]	@ (10005f48 <_malloc_trim_r+0xb0>)
10005f3a:	681b      	ldr	r3, [r3, #0]
10005f3c:	1ac0      	subs	r0, r0, r3
10005f3e:	6008      	str	r0, [r1, #0]
10005f40:	e7d1      	b.n	10005ee6 <_malloc_trim_r+0x4e>
10005f42:	bf00      	nop
10005f44:	20000eb4 	.word	0x20000eb4
10005f48:	200006f4 	.word	0x200006f4
10005f4c:	20000700 	.word	0x20000700

10005f50 <_free_r>:
10005f50:	2900      	cmp	r1, #0
10005f52:	d05a      	beq.n	1000600a <_free_r+0xba>
10005f54:	b5f8      	push	{r3, r4, r5, r6, r7, lr}
10005f56:	460c      	mov	r4, r1
10005f58:	4607      	mov	r7, r0
10005f5a:	f7ff fe75 	bl	10005c48 <__malloc_lock>
10005f5e:	4d73      	ldr	r5, [pc, #460]	@ (1000612c <_free_r+0x1dc>)
10005f60:	f854 cc04 	ldr.w	ip, [r4, #-4]
10005f64:	f1a4 0208 	sub.w	r2, r4, #8
10005f68:	68a8      	ldr	r0, [r5, #8]
10005f6a:	f02c 0301 	bic.w	r3, ip, #1
10005f6e:	f00c 0e01 	and.w	lr, ip, #1
10005f72:	18d1      	adds	r1, r2, r3
10005f74:	684e      	ldr	r6, [r1, #4]
10005f76:	4288      	cmp	r0, r1
10005f78:	f026 0603 	bic.w	r6, r6, #3
10005f7c:	d07c      	beq.n	10006078 <_free_r+0x128>
10005f7e:	1988      	adds	r0, r1, r6
10005f80:	604e      	str	r6, [r1, #4]
10005f82:	6840      	ldr	r0, [r0, #4]
10005f84:	f000 0001 	and.w	r0, r0, #1
10005f88:	f1be 0f00 	cmp.w	lr, #0
10005f8c:	d12e      	bne.n	10005fec <_free_r+0x9c>
10005f8e:	f854 4c08 	ldr.w	r4, [r4, #-8]
10005f92:	f105 0c08 	add.w	ip, r5, #8
10005f96:	1b12      	subs	r2, r2, r4
10005f98:	4423      	add	r3, r4
10005f9a:	6894      	ldr	r4, [r2, #8]
10005f9c:	4564      	cmp	r4, ip
10005f9e:	d060      	beq.n	10006062 <_free_r+0x112>
10005fa0:	f8d2 e00c 	ldr.w	lr, [r2, #12]
10005fa4:	f8c4 e00c 	str.w	lr, [r4, #12]
10005fa8:	f8ce 4008 	str.w	r4, [lr, #8]
10005fac:	2800      	cmp	r0, #0
10005fae:	d07d      	beq.n	100060ac <_free_r+0x15c>
10005fb0:	f043 0001 	orr.w	r0, r3, #1
10005fb4:	6050      	str	r0, [r2, #4]
10005fb6:	600b      	str	r3, [r1, #0]
10005fb8:	f5b3 7f00 	cmp.w	r3, #512	@ 0x200
10005fbc:	d22e      	bcs.n	1000601c <_free_r+0xcc>
10005fbe:	0958      	lsrs	r0, r3, #5
10005fc0:	08d9      	lsrs	r1, r3, #3
10005fc2:	2301      	movs	r3, #1
10005fc4:	4083      	lsls	r3, r0
10005fc6:	6868      	ldr	r0, [r5, #4]
10005fc8:	3101      	adds	r1, #1
10005fca:	4303      	orrs	r3, r0
10005fcc:	f855 0031 	ldr.w	r0, [r5, r1, lsl #3]
10005fd0:	606b      	str	r3, [r5, #4]
10005fd2:	eb05 03c1 	add.w	r3, r5, r1, lsl #3
10005fd6:	3b08      	subs	r3, #8
10005fd8:	e9c2 0302 	strd	r0, r3, [r2, #8]
10005fdc:	f845 2031 	str.w	r2, [r5, r1, lsl #3]
10005fe0:	60c2      	str	r2, [r0, #12]
10005fe2:	4638      	mov	r0, r7
10005fe4:	e8bd 40f8 	ldmia.w	sp!, {r3, r4, r5, r6, r7, lr}
10005fe8:	f7ff be34 	b.w	10005c54 <__malloc_unlock>
10005fec:	b970      	cbnz	r0, 1000600c <_free_r+0xbc>
10005fee:	4433      	add	r3, r6
10005ff0:	f105 0c08 	add.w	ip, r5, #8
10005ff4:	6888      	ldr	r0, [r1, #8]
10005ff6:	f043 0401 	orr.w	r4, r3, #1
10005ffa:	4560      	cmp	r0, ip
10005ffc:	d06e      	beq.n	100060dc <_free_r+0x18c>
10005ffe:	68c9      	ldr	r1, [r1, #12]
10006000:	60c1      	str	r1, [r0, #12]
10006002:	6088      	str	r0, [r1, #8]
10006004:	6054      	str	r4, [r2, #4]
10006006:	50d3      	str	r3, [r2, r3]
10006008:	e7d6      	b.n	10005fb8 <_free_r+0x68>
1000600a:	4770      	bx	lr
1000600c:	f04c 0101 	orr.w	r1, ip, #1
10006010:	f5b3 7f00 	cmp.w	r3, #512	@ 0x200
10006014:	f844 1c04 	str.w	r1, [r4, #-4]
10006018:	50d3      	str	r3, [r2, r3]
1000601a:	d3d0      	bcc.n	10005fbe <_free_r+0x6e>
1000601c:	f5b3 6f20 	cmp.w	r3, #2560	@ 0xa00
10006020:	ea4f 2153 	mov.w	r1, r3, lsr #9
10006024:	d244      	bcs.n	100060b0 <_free_r+0x160>
10006026:	0999      	lsrs	r1, r3, #6
10006028:	f101 0039 	add.w	r0, r1, #57	@ 0x39
1000602c:	f101 0438 	add.w	r4, r1, #56	@ 0x38
10006030:	00c1      	lsls	r1, r0, #3
10006032:	1868      	adds	r0, r5, r1
10006034:	5869      	ldr	r1, [r5, r1]
10006036:	3808      	subs	r0, #8
10006038:	4288      	cmp	r0, r1
1000603a:	d103      	bne.n	10006044 <_free_r+0xf4>
1000603c:	e055      	b.n	100060ea <_free_r+0x19a>
1000603e:	6889      	ldr	r1, [r1, #8]
10006040:	4288      	cmp	r0, r1
10006042:	d004      	beq.n	1000604e <_free_r+0xfe>
10006044:	684c      	ldr	r4, [r1, #4]
10006046:	f024 0403 	bic.w	r4, r4, #3
1000604a:	429c      	cmp	r4, r3
1000604c:	d8f7      	bhi.n	1000603e <_free_r+0xee>
1000604e:	68c8      	ldr	r0, [r1, #12]
10006050:	e9c2 1002 	strd	r1, r0, [r2, #8]
10006054:	6082      	str	r2, [r0, #8]
10006056:	4638      	mov	r0, r7
10006058:	60ca      	str	r2, [r1, #12]
1000605a:	e8bd 40f8 	ldmia.w	sp!, {r3, r4, r5, r6, r7, lr}
1000605e:	f7ff bdf9 	b.w	10005c54 <__malloc_unlock>
10006062:	bb80      	cbnz	r0, 100060c6 <_free_r+0x176>
10006064:	441e      	add	r6, r3
10006066:	e9d1 1302 	ldrd	r1, r3, [r1, #8]
1000606a:	60cb      	str	r3, [r1, #12]
1000606c:	6099      	str	r1, [r3, #8]
1000606e:	f046 0301 	orr.w	r3, r6, #1
10006072:	6053      	str	r3, [r2, #4]
10006074:	5196      	str	r6, [r2, r6]
10006076:	e7b4      	b.n	10005fe2 <_free_r+0x92>
10006078:	441e      	add	r6, r3
1000607a:	f1be 0f00 	cmp.w	lr, #0
1000607e:	d107      	bne.n	10006090 <_free_r+0x140>
10006080:	f854 3c08 	ldr.w	r3, [r4, #-8]
10006084:	1ad2      	subs	r2, r2, r3
10006086:	441e      	add	r6, r3
10006088:	e9d2 1302 	ldrd	r1, r3, [r2, #8]
1000608c:	60cb      	str	r3, [r1, #12]
1000608e:	6099      	str	r1, [r3, #8]
10006090:	f046 0301 	orr.w	r3, r6, #1
10006094:	6053      	str	r3, [r2, #4]
10006096:	4b26      	ldr	r3, [pc, #152]	@ (10006130 <_free_r+0x1e0>)
10006098:	60aa      	str	r2, [r5, #8]
1000609a:	681b      	ldr	r3, [r3, #0]
1000609c:	42b3      	cmp	r3, r6
1000609e:	d8a0      	bhi.n	10005fe2 <_free_r+0x92>
100060a0:	4b24      	ldr	r3, [pc, #144]	@ (10006134 <_free_r+0x1e4>)
100060a2:	4638      	mov	r0, r7
100060a4:	6819      	ldr	r1, [r3, #0]
100060a6:	f7ff fef7 	bl	10005e98 <_malloc_trim_r>
100060aa:	e79a      	b.n	10005fe2 <_free_r+0x92>
100060ac:	4433      	add	r3, r6
100060ae:	e7a1      	b.n	10005ff4 <_free_r+0xa4>
100060b0:	2914      	cmp	r1, #20
100060b2:	d90d      	bls.n	100060d0 <_free_r+0x180>
100060b4:	2954      	cmp	r1, #84	@ 0x54
100060b6:	d81f      	bhi.n	100060f8 <_free_r+0x1a8>
100060b8:	0b19      	lsrs	r1, r3, #12
100060ba:	f101 006f 	add.w	r0, r1, #111	@ 0x6f
100060be:	f101 046e 	add.w	r4, r1, #110	@ 0x6e
100060c2:	00c1      	lsls	r1, r0, #3
100060c4:	e7b5      	b.n	10006032 <_free_r+0xe2>
100060c6:	f043 0001 	orr.w	r0, r3, #1
100060ca:	6050      	str	r0, [r2, #4]
100060cc:	600b      	str	r3, [r1, #0]
100060ce:	e788      	b.n	10005fe2 <_free_r+0x92>
100060d0:	f101 005c 	add.w	r0, r1, #92	@ 0x5c
100060d4:	f101 045b 	add.w	r4, r1, #91	@ 0x5b
100060d8:	00c1      	lsls	r1, r0, #3
100060da:	e7aa      	b.n	10006032 <_free_r+0xe2>
100060dc:	e9c5 2204 	strd	r2, r2, [r5, #16]
100060e0:	e9c2 cc02 	strd	ip, ip, [r2, #8]
100060e4:	6054      	str	r4, [r2, #4]
100060e6:	50d3      	str	r3, [r2, r3]
100060e8:	e77b      	b.n	10005fe2 <_free_r+0x92>
100060ea:	10a4      	asrs	r4, r4, #2
100060ec:	2301      	movs	r3, #1
100060ee:	40a3      	lsls	r3, r4
100060f0:	686c      	ldr	r4, [r5, #4]
100060f2:	4323      	orrs	r3, r4
100060f4:	606b      	str	r3, [r5, #4]
100060f6:	e7ab      	b.n	10006050 <_free_r+0x100>
100060f8:	f5b1 7faa 	cmp.w	r1, #340	@ 0x154
100060fc:	d806      	bhi.n	1000610c <_free_r+0x1bc>
100060fe:	0bd9      	lsrs	r1, r3, #15
10006100:	f101 0078 	add.w	r0, r1, #120	@ 0x78
10006104:	f101 0477 	add.w	r4, r1, #119	@ 0x77
10006108:	00c1      	lsls	r1, r0, #3
1000610a:	e792      	b.n	10006032 <_free_r+0xe2>
1000610c:	f240 5054 	movw	r0, #1364	@ 0x554
10006110:	4281      	cmp	r1, r0
10006112:	d806      	bhi.n	10006122 <_free_r+0x1d2>
10006114:	0c99      	lsrs	r1, r3, #18
10006116:	f101 007d 	add.w	r0, r1, #125	@ 0x7d
1000611a:	f101 047c 	add.w	r4, r1, #124	@ 0x7c
1000611e:	00c1      	lsls	r1, r0, #3
10006120:	e787      	b.n	10006032 <_free_r+0xe2>
10006122:	f44f 717e 	mov.w	r1, #1016	@ 0x3f8
10006126:	247e      	movs	r4, #126	@ 0x7e
10006128:	e783      	b.n	10006032 <_free_r+0xe2>
1000612a:	bf00      	nop
1000612c:	20000700 	.word	0x20000700
10006130:	200006f8 	.word	0x200006f8
10006134:	20000ee4 	.word	0x20000ee4

10006138 <_fini>:
10006138:	b5f8      	push	{r3, r4, r5, r6, r7, lr}
1000613a:	bf00      	nop
1000613c:	0000      	movs	r0, r0
	...

10006140 <____aeabi_uldivmod_veneer>:
10006140:	f85f f000 	ldr.w	pc, [pc]	@ 10006144 <____aeabi_uldivmod_veneer+0x4>
10006144:	200002f9 	.word	0x200002f9

10006148 <__mutex_exit_veneer>:
10006148:	f85f f000 	ldr.w	pc, [pc]	@ 1000614c <__mutex_exit_veneer+0x4>
1000614c:	200002bd 	.word	0x200002bd

10006150 <__mutex_enter_blocking_veneer>:
10006150:	f85f f000 	ldr.w	pc, [pc]	@ 10006154 <__mutex_enter_blocking_veneer+0x4>
10006154:	20000169 	.word	0x20000169

10006158 <__mutex_try_enter_block_until_veneer>:
10006158:	f85f f000 	ldr.w	pc, [pc]	@ 1000615c <__mutex_try_enter_block_until_veneer+0x4>
1000615c:	20000255 	.word	0x20000255

10006160 <__pre_init_runtime_init_bootrom_reset>:
10006160:	10003385                                .3..

10006164 <__pre_init_runtime_init_early_resets>:
10006164:	100032f9                                .2..

10006168 <__pre_init_runtime_init_usb_power_down>:
10006168:	1000332d                                -3..

1000616c <__pre_init_runtime_init_clocks>:
1000616c:	10003419                                .4..

10006170 <__pre_init_runtime_init_post_clock_resets>:
10006170:	10003365                                e3..

10006174 <__pre_init_runtime_init_boot_locks_reset>:
10006174:	1000327d                                }2..

10006178 <__pre_init_runtime_init_spin_locks_reset>:
10006178:	100033ad                                .3..

1000617c <__pre_init_runtime_init_bootrom_locking_enable>:
1000617c:	10003269                                i2..

10006180 <__pre_init_runtime_init_mutex>:
10006180:	10002379                                y#..

10006184 <__pre_init_runtime_init_install_ram_vector_table>:
10006184:	100033b1                                .3..

10006188 <__pre_init_runtime_init_default_alarm_pool>:
10006188:	100026f1                                .&..

1000618c <__pre_init_first_per_core_initializer>:
1000618c:	100032c9                                .2..

10006190 <__pre_init_runtime_init_per_core_bootrom_reset>:
10006190:	10003399                                .3..

10006194 <__pre_init_runtime_init_per_core_enable_coprocessors>:
10006194:	10003349                                I3..

10006198 <__pre_init_spinlock_set_extexclall>:
10006198:	10002251                                Q"..

1000619c <__pre_init_runtime_init_per_core_irq_priorities>:
1000619c:	10002279                                y"..

100061a0 <__frame_dummy_init_array_entry>:
100061a0:	10000211                                ....

Disassembly of section .data:

20000110 <vga_line_handler>:
20000110:	2002      	movs	r0, #2
20000112:	b430      	push	{r4, r5}
20000114:	4a0f      	ldr	r2, [pc, #60]	@ (20000154 <vga_line_handler+0x44>)
20000116:	4d10      	ldr	r5, [pc, #64]	@ (20000158 <vga_line_handler+0x48>)
20000118:	4b10      	ldr	r3, [pc, #64]	@ (2000015c <vga_line_handler+0x4c>)
2000011a:	4911      	ldr	r1, [pc, #68]	@ (20000160 <vga_line_handler+0x50>)
2000011c:	4c11      	ldr	r4, [pc, #68]	@ (20000164 <vga_line_handler+0x54>)
2000011e:	6310      	str	r0, [r2, #48]	@ 0x30
20000120:	681b      	ldr	r3, [r3, #0]
20000122:	682a      	ldr	r2, [r5, #0]
20000124:	6808      	ldr	r0, [r1, #0]
20000126:	6821      	ldr	r1, [r4, #0]
20000128:	eb02 0c82 	add.w	ip, r2, r2, lsl #2
2000012c:	019b      	lsls	r3, r3, #6
2000012e:	f103 43a0 	add.w	r3, r3, #1342177280	@ 0x50000000
20000132:	3101      	adds	r1, #1
20000134:	eb00 104c 	add.w	r0, r0, ip, lsl #5
20000138:	63d8      	str	r0, [r3, #60]	@ 0x3c
2000013a:	07cb      	lsls	r3, r1, #31
2000013c:	bf5c      	itt	pl
2000013e:	3201      	addpl	r2, #1
20000140:	602a      	strpl	r2, [r5, #0]
20000142:	2aef      	cmp	r2, #239	@ 0xef
20000144:	6021      	str	r1, [r4, #0]
20000146:	dd02      	ble.n	2000014e <vga_line_handler+0x3e>
20000148:	2300      	movs	r3, #0
2000014a:	602b      	str	r3, [r5, #0]
2000014c:	6023      	str	r3, [r4, #0]
2000014e:	bc30      	pop	{r4, r5}
20000150:	4770      	bx	lr
20000152:	bf00      	nop
20000154:	50200000 	.word	0x50200000
20000158:	20001080 	.word	0x20001080
2000015c:	200011f8 	.word	0x200011f8
20000160:	20001268 	.word	0x20001268
20000164:	200010c8 	.word	0x200010c8

20000168 <mutex_enter_blocking>:
20000168:	f04f 4350 	mov.w	r3, #3489660928	@ 0xd0000000
2000016c:	b510      	push	{r4, lr}
2000016e:	6802      	ldr	r2, [r0, #0]
20000170:	f993 4000 	ldrsb.w	r4, [r3]
20000174:	f3ef 8310 	mrs	r3, PRIMASK
20000178:	b672      	cpsid	i
2000017a:	e8d2 cfcf 	ldaexb	ip, [r2]
2000017e:	2101      	movs	r1, #1
20000180:	f1bc 0f00 	cmp.w	ip, #0
20000184:	d1f9      	bne.n	2000017a <mutex_enter_blocking+0x12>
20000186:	e8c2 1f4c 	strexb	ip, r1, [r2]
2000018a:	f1bc 0f00 	cmp.w	ip, #0
2000018e:	d1f4      	bne.n	2000017a <mutex_enter_blocking+0x12>
20000190:	f3bf 8f5f 	dmb	sy
20000194:	f990 2004 	ldrsb.w	r2, [r0, #4]
20000198:	2a00      	cmp	r2, #0
2000019a:	db1c      	blt.n	200001d6 <mutex_enter_blocking+0x6e>
2000019c:	2100      	movs	r1, #0
2000019e:	6802      	ldr	r2, [r0, #0]
200001a0:	e8c2 1f8f 	stlb	r1, [r2]
200001a4:	f383 8810 	msr	PRIMASK, r3
200001a8:	bf20      	wfe
200001aa:	6802      	ldr	r2, [r0, #0]
200001ac:	f3ef 8310 	mrs	r3, PRIMASK
200001b0:	b672      	cpsid	i
200001b2:	e8d2 efcf 	ldaexb	lr, [r2]
200001b6:	f05f 0c01 	movs.w	ip, #1
200001ba:	f1be 0f00 	cmp.w	lr, #0
200001be:	d1f8      	bne.n	200001b2 <mutex_enter_blocking+0x4a>
200001c0:	e8c2 cf4e 	strexb	lr, ip, [r2]
200001c4:	f1be 0f00 	cmp.w	lr, #0
200001c8:	d1f3      	bne.n	200001b2 <mutex_enter_blocking+0x4a>
200001ca:	f3bf 8f5f 	dmb	sy
200001ce:	f990 2004 	ldrsb.w	r2, [r0, #4]
200001d2:	2a00      	cmp	r2, #0
200001d4:	dae3      	bge.n	2000019e <mutex_enter_blocking+0x36>
200001d6:	2200      	movs	r2, #0
200001d8:	6801      	ldr	r1, [r0, #0]
200001da:	7104      	strb	r4, [r0, #4]
200001dc:	e8c1 2f8f 	stlb	r2, [r1]
200001e0:	f383 8810 	msr	PRIMASK, r3
200001e4:	bd10      	pop	{r4, pc}
200001e6:	bf00      	nop

200001e8 <mutex_enter_block_until>:
200001e8:	f04f 4150 	mov.w	r1, #3489660928	@ 0xd0000000
200001ec:	e92d 41f0 	stmdb	sp!, {r4, r5, r6, r7, r8, lr}
200001f0:	2700      	movs	r7, #0
200001f2:	4604      	mov	r4, r0
200001f4:	4616      	mov	r6, r2
200001f6:	461d      	mov	r5, r3
200001f8:	f8d1 8000 	ldr.w	r8, [r1]
200001fc:	e008      	b.n	20000210 <mutex_enter_block_until+0x28>
200001fe:	e8c1 7f8f 	stlb	r7, [r1]
20000202:	f38c 8810 	msr	PRIMASK, ip
20000206:	4630      	mov	r0, r6
20000208:	4629      	mov	r1, r5
2000020a:	f000 fa35 	bl	20000678 <__best_effort_wfe_or_timeout_veneer>
2000020e:	b9e8      	cbnz	r0, 2000024c <mutex_enter_block_until+0x64>
20000210:	6821      	ldr	r1, [r4, #0]
20000212:	f3ef 8c10 	mrs	ip, PRIMASK
20000216:	b672      	cpsid	i
20000218:	e8d1 2fcf 	ldaexb	r2, [r1]
2000021c:	2301      	movs	r3, #1
2000021e:	2a00      	cmp	r2, #0
20000220:	d1fa      	bne.n	20000218 <mutex_enter_block_until+0x30>
20000222:	e8c1 3f42 	strexb	r2, r3, [r1]
20000226:	2a00      	cmp	r2, #0
20000228:	d1f6      	bne.n	20000218 <mutex_enter_block_until+0x30>
2000022a:	f3bf 8f5f 	dmb	sy
2000022e:	f994 3004 	ldrsb.w	r3, [r4, #4]
20000232:	6821      	ldr	r1, [r4, #0]
20000234:	2b00      	cmp	r3, #0
20000236:	dae2      	bge.n	200001fe <mutex_enter_block_until+0x16>
20000238:	2300      	movs	r3, #0
2000023a:	f884 8004 	strb.w	r8, [r4, #4]
2000023e:	e8c1 3f8f 	stlb	r3, [r1]
20000242:	f38c 8810 	msr	PRIMASK, ip
20000246:	2001      	movs	r0, #1
20000248:	e8bd 81f0 	ldmia.w	sp!, {r4, r5, r6, r7, r8, pc}
2000024c:	2000      	movs	r0, #0
2000024e:	e8bd 81f0 	ldmia.w	sp!, {r4, r5, r6, r7, r8, pc}
20000252:	bf00      	nop

20000254 <mutex_try_enter_block_until>:
20000254:	b530      	push	{r4, r5, lr}
20000256:	6804      	ldr	r4, [r0, #0]
20000258:	f3ef 8c10 	mrs	ip, PRIMASK
2000025c:	b672      	cpsid	i
2000025e:	e8d4 efcf 	ldaexb	lr, [r4]
20000262:	2501      	movs	r5, #1
20000264:	f1be 0f00 	cmp.w	lr, #0
20000268:	d1f9      	bne.n	2000025e <mutex_try_enter_block_until+0xa>
2000026a:	e8c4 5f4e 	strexb	lr, r5, [r4]
2000026e:	f1be 0f00 	cmp.w	lr, #0
20000272:	d1f4      	bne.n	2000025e <mutex_try_enter_block_until+0xa>
20000274:	f3bf 8f5f 	dmb	sy
20000278:	f990 4004 	ldrsb.w	r4, [r0, #4]
2000027c:	6805      	ldr	r5, [r0, #0]
2000027e:	2c00      	cmp	r4, #0
20000280:	db10      	blt.n	200002a4 <mutex_try_enter_block_until+0x50>
20000282:	2100      	movs	r1, #0
20000284:	e8c5 1f8f 	stlb	r1, [r5]
20000288:	f38c 8810 	msr	PRIMASK, ip
2000028c:	f04f 4550 	mov.w	r5, #3489660928	@ 0xd0000000
20000290:	f995 5000 	ldrsb.w	r5, [r5]
20000294:	42a5      	cmp	r5, r4
20000296:	d101      	bne.n	2000029c <mutex_try_enter_block_until+0x48>
20000298:	4608      	mov	r0, r1
2000029a:	bd30      	pop	{r4, r5, pc}
2000029c:	e8bd 4030 	ldmia.w	sp!, {r4, r5, lr}
200002a0:	f7ff bfa2 	b.w	200001e8 <mutex_enter_block_until>
200002a4:	f04f 4250 	mov.w	r2, #3489660928	@ 0xd0000000
200002a8:	6812      	ldr	r2, [r2, #0]
200002aa:	2300      	movs	r3, #0
200002ac:	7102      	strb	r2, [r0, #4]
200002ae:	e8c5 3f8f 	stlb	r3, [r5]
200002b2:	f38c 8810 	msr	PRIMASK, ip
200002b6:	2001      	movs	r0, #1
200002b8:	bd30      	pop	{r4, r5, pc}
200002ba:	bf00      	nop

200002bc <mutex_exit>:
200002bc:	6803      	ldr	r3, [r0, #0]
200002be:	f3ef 8210 	mrs	r2, PRIMASK
200002c2:	b672      	cpsid	i
200002c4:	e8d3 cfcf 	ldaexb	ip, [r3]
200002c8:	2101      	movs	r1, #1
200002ca:	f1bc 0f00 	cmp.w	ip, #0
200002ce:	d1f9      	bne.n	200002c4 <mutex_exit+0x8>
200002d0:	e8c3 1f4c 	strexb	ip, r1, [r3]
200002d4:	f1bc 0f00 	cmp.w	ip, #0
200002d8:	d1f4      	bne.n	200002c4 <mutex_exit+0x8>
200002da:	f3bf 8f5f 	dmb	sy
200002de:	f04f 0cff 	mov.w	ip, #255	@ 0xff
200002e2:	2300      	movs	r3, #0
200002e4:	6801      	ldr	r1, [r0, #0]
200002e6:	f880 c004 	strb.w	ip, [r0, #4]
200002ea:	e8c1 3f8f 	stlb	r3, [r1]
200002ee:	f382 8810 	msr	PRIMASK, r2
200002f2:	bf40      	sev
200002f4:	4770      	bx	lr
200002f6:	bf00      	nop

200002f8 <__aeabi_uldivmod>:
200002f8:	b953      	cbnz	r3, 20000310 <__aeabi_uldivmod+0x18>
200002fa:	b94a      	cbnz	r2, 20000310 <__aeabi_uldivmod+0x18>
200002fc:	2900      	cmp	r1, #0
200002fe:	bf08      	it	eq
20000300:	2800      	cmpeq	r0, #0
20000302:	bf1c      	itt	ne
20000304:	f04f 31ff 	movne.w	r1, #4294967295	@ 0xffffffff
20000308:	f04f 30ff 	movne.w	r0, #4294967295	@ 0xffffffff
2000030c:	f000 b9b2 	b.w	20000674 <__aeabi_idiv0>
20000310:	f1ad 0c08 	sub.w	ip, sp, #8
20000314:	e96d ce04 	strd	ip, lr, [sp, #-16]!
20000318:	f000 f806 	bl	20000328 <__udivmoddi4>
2000031c:	f8dd e004 	ldr.w	lr, [sp, #4]
20000320:	e9dd 2302 	ldrd	r2, r3, [sp, #8]
20000324:	b004      	add	sp, #16
20000326:	4770      	bx	lr

20000328 <__udivmoddi4>:
20000328:	e92d 4ff0 	stmdb	sp!, {r4, r5, r6, r7, r8, r9, sl, fp, lr}
2000032c:	468c      	mov	ip, r1
2000032e:	9e09      	ldr	r6, [sp, #36]	@ 0x24
20000330:	4604      	mov	r4, r0
20000332:	460f      	mov	r7, r1
20000334:	2b00      	cmp	r3, #0
20000336:	d148      	bne.n	200003ca <__udivmoddi4+0xa2>
20000338:	428a      	cmp	r2, r1
2000033a:	4615      	mov	r5, r2
2000033c:	d95e      	bls.n	200003fc <__udivmoddi4+0xd4>
2000033e:	fab2 f382 	clz	r3, r2
20000342:	b13b      	cbz	r3, 20000354 <__udivmoddi4+0x2c>
20000344:	f1c3 0220 	rsb	r2, r3, #32
20000348:	409f      	lsls	r7, r3
2000034a:	409d      	lsls	r5, r3
2000034c:	409c      	lsls	r4, r3
2000034e:	fa20 f202 	lsr.w	r2, r0, r2
20000352:	4317      	orrs	r7, r2
20000354:	ea4f 4e15 	mov.w	lr, r5, lsr #16
20000358:	fa1f fc85 	uxth.w	ip, r5
2000035c:	0c22      	lsrs	r2, r4, #16
2000035e:	fbb7 f1fe 	udiv	r1, r7, lr
20000362:	fb0e 7711 	mls	r7, lr, r1, r7
20000366:	fb01 f00c 	mul.w	r0, r1, ip
2000036a:	ea42 4207 	orr.w	r2, r2, r7, lsl #16
2000036e:	4290      	cmp	r0, r2
20000370:	d907      	bls.n	20000382 <__udivmoddi4+0x5a>
20000372:	18aa      	adds	r2, r5, r2
20000374:	f101 37ff 	add.w	r7, r1, #4294967295	@ 0xffffffff
20000378:	d202      	bcs.n	20000380 <__udivmoddi4+0x58>
2000037a:	4290      	cmp	r0, r2
2000037c:	f200 8158 	bhi.w	20000630 <__udivmoddi4+0x308>
20000380:	4639      	mov	r1, r7
20000382:	1a12      	subs	r2, r2, r0
20000384:	b2a4      	uxth	r4, r4
20000386:	fbb2 f0fe 	udiv	r0, r2, lr
2000038a:	fb0e 2210 	mls	r2, lr, r0, r2
2000038e:	fb00 fc0c 	mul.w	ip, r0, ip
20000392:	ea44 4402 	orr.w	r4, r4, r2, lsl #16
20000396:	45a4      	cmp	ip, r4
20000398:	d90b      	bls.n	200003b2 <__udivmoddi4+0x8a>
2000039a:	192c      	adds	r4, r5, r4
2000039c:	f100 32ff 	add.w	r2, r0, #4294967295	@ 0xffffffff
200003a0:	bf2c      	ite	cs
200003a2:	2701      	movcs	r7, #1
200003a4:	2700      	movcc	r7, #0
200003a6:	45a4      	cmp	ip, r4
200003a8:	d902      	bls.n	200003b0 <__udivmoddi4+0x88>
200003aa:	2f00      	cmp	r7, #0
200003ac:	f000 8143 	beq.w	20000636 <__udivmoddi4+0x30e>
200003b0:	4610      	mov	r0, r2
200003b2:	ea40 4001 	orr.w	r0, r0, r1, lsl #16
200003b6:	eba4 040c 	sub.w	r4, r4, ip
200003ba:	2100      	movs	r1, #0
200003bc:	b11e      	cbz	r6, 200003c6 <__udivmoddi4+0x9e>
200003be:	40dc      	lsrs	r4, r3
200003c0:	2300      	movs	r3, #0
200003c2:	e9c6 4300 	strd	r4, r3, [r6]
200003c6:	e8bd 8ff0 	ldmia.w	sp!, {r4, r5, r6, r7, r8, r9, sl, fp, pc}
200003ca:	428b      	cmp	r3, r1
200003cc:	d906      	bls.n	200003dc <__udivmoddi4+0xb4>
200003ce:	b10e      	cbz	r6, 200003d4 <__udivmoddi4+0xac>
200003d0:	e9c6 0100 	strd	r0, r1, [r6]
200003d4:	2100      	movs	r1, #0
200003d6:	4608      	mov	r0, r1
200003d8:	e8bd 8ff0 	ldmia.w	sp!, {r4, r5, r6, r7, r8, r9, sl, fp, pc}
200003dc:	fab3 f183 	clz	r1, r3
200003e0:	2900      	cmp	r1, #0
200003e2:	d151      	bne.n	20000488 <__udivmoddi4+0x160>
200003e4:	4563      	cmp	r3, ip
200003e6:	f0c0 8116 	bcc.w	20000616 <__udivmoddi4+0x2ee>
200003ea:	4282      	cmp	r2, r0
200003ec:	f240 8113 	bls.w	20000616 <__udivmoddi4+0x2ee>
200003f0:	4608      	mov	r0, r1
200003f2:	2e00      	cmp	r6, #0
200003f4:	d0e7      	beq.n	200003c6 <__udivmoddi4+0x9e>
200003f6:	e9c6 4700 	strd	r4, r7, [r6]
200003fa:	e7e4      	b.n	200003c6 <__udivmoddi4+0x9e>
200003fc:	2a00      	cmp	r2, #0
200003fe:	f000 80af 	beq.w	20000560 <__udivmoddi4+0x238>
20000402:	fab2 f382 	clz	r3, r2
20000406:	2b00      	cmp	r3, #0
20000408:	f040 80c2 	bne.w	20000590 <__udivmoddi4+0x268>
2000040c:	1a8a      	subs	r2, r1, r2
2000040e:	ea4f 4e15 	mov.w	lr, r5, lsr #16
20000412:	b2af      	uxth	r7, r5
20000414:	2101      	movs	r1, #1
20000416:	0c20      	lsrs	r0, r4, #16
20000418:	fbb2 fcfe 	udiv	ip, r2, lr
2000041c:	fb0e 221c 	mls	r2, lr, ip, r2
20000420:	ea40 4202 	orr.w	r2, r0, r2, lsl #16
20000424:	fb07 f00c 	mul.w	r0, r7, ip
20000428:	4290      	cmp	r0, r2
2000042a:	d90e      	bls.n	2000044a <__udivmoddi4+0x122>
2000042c:	18aa      	adds	r2, r5, r2
2000042e:	f10c 38ff 	add.w	r8, ip, #4294967295	@ 0xffffffff
20000432:	bf2c      	ite	cs
20000434:	f04f 0901 	movcs.w	r9, #1
20000438:	f04f 0900 	movcc.w	r9, #0
2000043c:	4290      	cmp	r0, r2
2000043e:	d903      	bls.n	20000448 <__udivmoddi4+0x120>
20000440:	f1b9 0f00 	cmp.w	r9, #0
20000444:	f000 80f0 	beq.w	20000628 <__udivmoddi4+0x300>
20000448:	46c4      	mov	ip, r8
2000044a:	1a12      	subs	r2, r2, r0
2000044c:	b2a4      	uxth	r4, r4
2000044e:	fbb2 f0fe 	udiv	r0, r2, lr
20000452:	fb0e 2210 	mls	r2, lr, r0, r2
20000456:	fb00 f707 	mul.w	r7, r0, r7
2000045a:	ea44 4402 	orr.w	r4, r4, r2, lsl #16
2000045e:	42a7      	cmp	r7, r4
20000460:	d90e      	bls.n	20000480 <__udivmoddi4+0x158>
20000462:	192c      	adds	r4, r5, r4
20000464:	f100 32ff 	add.w	r2, r0, #4294967295	@ 0xffffffff
20000468:	bf2c      	ite	cs
2000046a:	f04f 0e01 	movcs.w	lr, #1
2000046e:	f04f 0e00 	movcc.w	lr, #0
20000472:	42a7      	cmp	r7, r4
20000474:	d903      	bls.n	2000047e <__udivmoddi4+0x156>
20000476:	f1be 0f00 	cmp.w	lr, #0
2000047a:	f000 80d2 	beq.w	20000622 <__udivmoddi4+0x2fa>
2000047e:	4610      	mov	r0, r2
20000480:	1be4      	subs	r4, r4, r7
20000482:	ea40 400c 	orr.w	r0, r0, ip, lsl #16
20000486:	e799      	b.n	200003bc <__udivmoddi4+0x94>
20000488:	f1c1 0520 	rsb	r5, r1, #32
2000048c:	408b      	lsls	r3, r1
2000048e:	fa0c f401 	lsl.w	r4, ip, r1
20000492:	fa00 f901 	lsl.w	r9, r0, r1
20000496:	fa22 f705 	lsr.w	r7, r2, r5
2000049a:	fa2c fc05 	lsr.w	ip, ip, r5
2000049e:	408a      	lsls	r2, r1
200004a0:	431f      	orrs	r7, r3
200004a2:	fa20 f305 	lsr.w	r3, r0, r5
200004a6:	0c38      	lsrs	r0, r7, #16
200004a8:	4323      	orrs	r3, r4
200004aa:	fa1f fe87 	uxth.w	lr, r7
200004ae:	0c1c      	lsrs	r4, r3, #16
200004b0:	fbbc f8f0 	udiv	r8, ip, r0
200004b4:	fb00 cc18 	mls	ip, r0, r8, ip
200004b8:	ea44 440c 	orr.w	r4, r4, ip, lsl #16
200004bc:	fb08 fc0e 	mul.w	ip, r8, lr
200004c0:	45a4      	cmp	ip, r4
200004c2:	d90e      	bls.n	200004e2 <__udivmoddi4+0x1ba>
200004c4:	193c      	adds	r4, r7, r4
200004c6:	f108 3aff 	add.w	sl, r8, #4294967295	@ 0xffffffff
200004ca:	bf2c      	ite	cs
200004cc:	f04f 0b01 	movcs.w	fp, #1
200004d0:	f04f 0b00 	movcc.w	fp, #0
200004d4:	45a4      	cmp	ip, r4
200004d6:	d903      	bls.n	200004e0 <__udivmoddi4+0x1b8>
200004d8:	f1bb 0f00 	cmp.w	fp, #0
200004dc:	f000 80b8 	beq.w	20000650 <__udivmoddi4+0x328>
200004e0:	46d0      	mov	r8, sl
200004e2:	eba4 040c 	sub.w	r4, r4, ip
200004e6:	fa1f fc83 	uxth.w	ip, r3
200004ea:	fbb4 f3f0 	udiv	r3, r4, r0
200004ee:	fb00 4413 	mls	r4, r0, r3, r4
200004f2:	fb03 fe0e 	mul.w	lr, r3, lr
200004f6:	ea4c 4404 	orr.w	r4, ip, r4, lsl #16
200004fa:	45a6      	cmp	lr, r4
200004fc:	d90e      	bls.n	2000051c <__udivmoddi4+0x1f4>
200004fe:	193c      	adds	r4, r7, r4
20000500:	f103 30ff 	add.w	r0, r3, #4294967295	@ 0xffffffff
20000504:	bf2c      	ite	cs
20000506:	f04f 0c01 	movcs.w	ip, #1
2000050a:	f04f 0c00 	movcc.w	ip, #0
2000050e:	45a6      	cmp	lr, r4
20000510:	d903      	bls.n	2000051a <__udivmoddi4+0x1f2>
20000512:	f1bc 0f00 	cmp.w	ip, #0
20000516:	f000 809f 	beq.w	20000658 <__udivmoddi4+0x330>
2000051a:	4603      	mov	r3, r0
2000051c:	ea43 4008 	orr.w	r0, r3, r8, lsl #16
20000520:	eba4 040e 	sub.w	r4, r4, lr
20000524:	fba0 ec02 	umull	lr, ip, r0, r2
20000528:	4564      	cmp	r4, ip
2000052a:	4673      	mov	r3, lr
2000052c:	46e0      	mov	r8, ip
2000052e:	d302      	bcc.n	20000536 <__udivmoddi4+0x20e>
20000530:	d107      	bne.n	20000542 <__udivmoddi4+0x21a>
20000532:	45f1      	cmp	r9, lr
20000534:	d205      	bcs.n	20000542 <__udivmoddi4+0x21a>
20000536:	ebbe 0302 	subs.w	r3, lr, r2
2000053a:	eb6c 0c07 	sbc.w	ip, ip, r7
2000053e:	3801      	subs	r0, #1
20000540:	46e0      	mov	r8, ip
20000542:	b15e      	cbz	r6, 2000055c <__udivmoddi4+0x234>
20000544:	ebb9 0203 	subs.w	r2, r9, r3
20000548:	eb64 0408 	sbc.w	r4, r4, r8
2000054c:	fa04 f505 	lsl.w	r5, r4, r5
20000550:	fa22 f301 	lsr.w	r3, r2, r1
20000554:	40cc      	lsrs	r4, r1
20000556:	431d      	orrs	r5, r3
20000558:	e9c6 5400 	strd	r5, r4, [r6]
2000055c:	2100      	movs	r1, #0
2000055e:	e732      	b.n	200003c6 <__udivmoddi4+0x9e>
20000560:	0842      	lsrs	r2, r0, #1
20000562:	462f      	mov	r7, r5
20000564:	084b      	lsrs	r3, r1, #1
20000566:	46ac      	mov	ip, r5
20000568:	ea42 72c1 	orr.w	r2, r2, r1, lsl #31
2000056c:	46ae      	mov	lr, r5
2000056e:	07c4      	lsls	r4, r0, #31
20000570:	0c11      	lsrs	r1, r2, #16
20000572:	b292      	uxth	r2, r2
20000574:	ea41 4103 	orr.w	r1, r1, r3, lsl #16
20000578:	ea42 4201 	orr.w	r2, r2, r1, lsl #16
2000057c:	fbb1 f1f5 	udiv	r1, r1, r5
20000580:	fbb3 f0f5 	udiv	r0, r3, r5
20000584:	231f      	movs	r3, #31
20000586:	eba2 020c 	sub.w	r2, r2, ip
2000058a:	ea41 4100 	orr.w	r1, r1, r0, lsl #16
2000058e:	e742      	b.n	20000416 <__udivmoddi4+0xee>
20000590:	409d      	lsls	r5, r3
20000592:	f1c3 0220 	rsb	r2, r3, #32
20000596:	4099      	lsls	r1, r3
20000598:	409c      	lsls	r4, r3
2000059a:	fa2c fc02 	lsr.w	ip, ip, r2
2000059e:	ea4f 4e15 	mov.w	lr, r5, lsr #16
200005a2:	fa20 f202 	lsr.w	r2, r0, r2
200005a6:	b2af      	uxth	r7, r5
200005a8:	fbbc f8fe 	udiv	r8, ip, lr
200005ac:	430a      	orrs	r2, r1
200005ae:	fb0e cc18 	mls	ip, lr, r8, ip
200005b2:	0c11      	lsrs	r1, r2, #16
200005b4:	ea41 410c 	orr.w	r1, r1, ip, lsl #16
200005b8:	fb08 fc07 	mul.w	ip, r8, r7
200005bc:	458c      	cmp	ip, r1
200005be:	d950      	bls.n	20000662 <__udivmoddi4+0x33a>
200005c0:	1869      	adds	r1, r5, r1
200005c2:	f108 30ff 	add.w	r0, r8, #4294967295	@ 0xffffffff
200005c6:	bf2c      	ite	cs
200005c8:	f04f 0901 	movcs.w	r9, #1
200005cc:	f04f 0900 	movcc.w	r9, #0
200005d0:	458c      	cmp	ip, r1
200005d2:	d902      	bls.n	200005da <__udivmoddi4+0x2b2>
200005d4:	f1b9 0f00 	cmp.w	r9, #0
200005d8:	d030      	beq.n	2000063c <__udivmoddi4+0x314>
200005da:	eba1 010c 	sub.w	r1, r1, ip
200005de:	fbb1 f8fe 	udiv	r8, r1, lr
200005e2:	fb08 fc07 	mul.w	ip, r8, r7
200005e6:	fb0e 1118 	mls	r1, lr, r8, r1
200005ea:	b292      	uxth	r2, r2
200005ec:	ea42 4201 	orr.w	r2, r2, r1, lsl #16
200005f0:	4562      	cmp	r2, ip
200005f2:	d234      	bcs.n	2000065e <__udivmoddi4+0x336>
200005f4:	18aa      	adds	r2, r5, r2
200005f6:	f108 31ff 	add.w	r1, r8, #4294967295	@ 0xffffffff
200005fa:	bf2c      	ite	cs
200005fc:	f04f 0901 	movcs.w	r9, #1
20000600:	f04f 0900 	movcc.w	r9, #0
20000604:	4562      	cmp	r2, ip
20000606:	d2be      	bcs.n	20000586 <__udivmoddi4+0x25e>
20000608:	f1b9 0f00 	cmp.w	r9, #0
2000060c:	d1bb      	bne.n	20000586 <__udivmoddi4+0x25e>
2000060e:	f1a8 0102 	sub.w	r1, r8, #2
20000612:	442a      	add	r2, r5
20000614:	e7b7      	b.n	20000586 <__udivmoddi4+0x25e>
20000616:	1a84      	subs	r4, r0, r2
20000618:	eb6c 0203 	sbc.w	r2, ip, r3
2000061c:	2001      	movs	r0, #1
2000061e:	4617      	mov	r7, r2
20000620:	e6e7      	b.n	200003f2 <__udivmoddi4+0xca>
20000622:	442c      	add	r4, r5
20000624:	3802      	subs	r0, #2
20000626:	e72b      	b.n	20000480 <__udivmoddi4+0x158>
20000628:	f1ac 0c02 	sub.w	ip, ip, #2
2000062c:	442a      	add	r2, r5
2000062e:	e70c      	b.n	2000044a <__udivmoddi4+0x122>
20000630:	3902      	subs	r1, #2
20000632:	442a      	add	r2, r5
20000634:	e6a5      	b.n	20000382 <__udivmoddi4+0x5a>
20000636:	442c      	add	r4, r5
20000638:	3802      	subs	r0, #2
2000063a:	e6ba      	b.n	200003b2 <__udivmoddi4+0x8a>
2000063c:	eba5 0c0c 	sub.w	ip, r5, ip
20000640:	f1a8 0002 	sub.w	r0, r8, #2
20000644:	4461      	add	r1, ip
20000646:	fbb1 f8fe 	udiv	r8, r1, lr
2000064a:	fb08 fc07 	mul.w	ip, r8, r7
2000064e:	e7ca      	b.n	200005e6 <__udivmoddi4+0x2be>
20000650:	f1a8 0802 	sub.w	r8, r8, #2
20000654:	443c      	add	r4, r7
20000656:	e744      	b.n	200004e2 <__udivmoddi4+0x1ba>
20000658:	3b02      	subs	r3, #2
2000065a:	443c      	add	r4, r7
2000065c:	e75e      	b.n	2000051c <__udivmoddi4+0x1f4>
2000065e:	4641      	mov	r1, r8
20000660:	e791      	b.n	20000586 <__udivmoddi4+0x25e>
20000662:	eba1 010c 	sub.w	r1, r1, ip
20000666:	4640      	mov	r0, r8
20000668:	fbb1 f8fe 	udiv	r8, r1, lr
2000066c:	fb08 fc07 	mul.w	ip, r8, r7
20000670:	e7b9      	b.n	200005e6 <__udivmoddi4+0x2be>
20000672:	bf00      	nop

20000674 <__aeabi_idiv0>:
20000674:	4770      	bx	lr
20000676:	bf00      	nop

20000678 <__best_effort_wfe_or_timeout_veneer>:
20000678:	f85f f000 	ldr.w	pc, [pc]	@ 2000067c <__best_effort_wfe_or_timeout_veneer+0x4>
2000067c:	10002a1d 	.word	0x10002a1d

20000680 <last_toggle_time>:
20000680:	00000001                                ....

20000684 <rgb_sm>:
20000684:	00000002                                ....

20000688 <vsync_sm>:
20000688:	00000001                                ....

2000068c <bus_pio1>:
2000068c:	50300000                                ..0P

20000690 <bus_pio0>:
20000690:	50200000                                .. P

20000694 <active_buffer>:
20000694:	200012b0                                ... 

20000698 <font_8x18_info>:
20000698:	10006378 00011208 10008364              xc......d...

200006a4 <font_8x16_info>:
200006a4:	10006384 00011008 10007b44              .c......D{..

200006b0 <font_8x14_info>:
200006b0:	10006390 00010e08 10007344              .c......Ds..

200006bc <font_8x12_info>:
200006bc:	1000639c 00010c08 10006b44              .c......Dk..

200006c8 <striped_spin_lock_num>:
200006c8:	00000010                                ....

200006cc <default_alarm_pool>:
	...
200006e0:	20000c60                                `.. 

200006e4 <i2c1_inst>:
200006e4:	40098000 00000000                       ...@....

200006ec <i2c0_inst>:
200006ec:	40090000 00000000                       ...@....

200006f4 <__malloc_sbrk_base>:
200006f4:	ffffffff                                ....

200006f8 <__malloc_trim_threshold>:
200006f8:	00020000 00000000                       ........

20000700 <__malloc_av_>:
	...
20000708:	20000700 20000700 20000708 20000708     ... ... ... ... 
20000718:	20000710 20000710 20000718 20000718     ... ... ... ... 
20000728:	20000720 20000720 20000728 20000728      ..  .. (.. (.. 
20000738:	20000730 20000730 20000738 20000738     0.. 0.. 8.. 8.. 
20000748:	20000740 20000740 20000748 20000748     @.. @.. H.. H.. 
20000758:	20000750 20000750 20000758 20000758     P.. P.. X.. X.. 
20000768:	20000760 20000760 20000768 20000768     `.. `.. h.. h.. 
20000778:	20000770 20000770 20000778 20000778     p.. p.. x.. x.. 
20000788:	20000780 20000780 20000788 20000788     ... ... ... ... 
20000798:	20000790 20000790 20000798 20000798     ... ... ... ... 
200007a8:	200007a0 200007a0 200007a8 200007a8     ... ... ... ... 
200007b8:	200007b0 200007b0 200007b8 200007b8     ... ... ... ... 
200007c8:	200007c0 200007c0 200007c8 200007c8     ... ... ... ... 
200007d8:	200007d0 200007d0 200007d8 200007d8     ... ... ... ... 
200007e8:	200007e0 200007e0 200007e8 200007e8     ... ... ... ... 
200007f8:	200007f0 200007f0 200007f8 200007f8     ... ... ... ... 
20000808:	20000800 20000800 20000808 20000808     ... ... ... ... 
20000818:	20000810 20000810 20000818 20000818     ... ... ... ... 
20000828:	20000820 20000820 20000828 20000828      ..  .. (.. (.. 
20000838:	20000830 20000830 20000838 20000838     0.. 0.. 8.. 8.. 
20000848:	20000840 20000840 20000848 20000848     @.. @.. H.. H.. 
20000858:	20000850 20000850 20000858 20000858     P.. P.. X.. X.. 
20000868:	20000860 20000860 20000868 20000868     `.. `.. h.. h.. 
20000878:	20000870 20000870 20000878 20000878     p.. p.. x.. x.. 
20000888:	20000880 20000880 20000888 20000888     ... ... ... ... 
20000898:	20000890 20000890 20000898 20000898     ... ... ... ... 
200008a8:	200008a0 200008a0 200008a8 200008a8     ... ... ... ... 
200008b8:	200008b0 200008b0 200008b8 200008b8     ... ... ... ... 
200008c8:	200008c0 200008c0 200008c8 200008c8     ... ... ... ... 
200008d8:	200008d0 200008d0 200008d8 200008d8     ... ... ... ... 
200008e8:	200008e0 200008e0 200008e8 200008e8     ... ... ... ... 
200008f8:	200008f0 200008f0 200008f8 200008f8     ... ... ... ... 
20000908:	20000900 20000900 20000908 20000908     ... ... ... ... 
20000918:	20000910 20000910 20000918 20000918     ... ... ... ... 
20000928:	20000920 20000920 20000928 20000928      ..  .. (.. (.. 
20000938:	20000930 20000930 20000938 20000938     0.. 0.. 8.. 8.. 
20000948:	20000940 20000940 20000948 20000948     @.. @.. H.. H.. 
20000958:	20000950 20000950 20000958 20000958     P.. P.. X.. X.. 
20000968:	20000960 20000960 20000968 20000968     `.. `.. h.. h.. 
20000978:	20000970 20000970 20000978 20000978     p.. p.. x.. x.. 
20000988:	20000980 20000980 20000988 20000988     ... ... ... ... 
20000998:	20000990 20000990 20000998 20000998     ... ... ... ... 
200009a8:	200009a0 200009a0 200009a8 200009a8     ... ... ... ... 
200009b8:	200009b0 200009b0 200009b8 200009b8     ... ... ... ... 
200009c8:	200009c0 200009c0 200009c8 200009c8     ... ... ... ... 
200009d8:	200009d0 200009d0 200009d8 200009d8     ... ... ... ... 
200009e8:	200009e0 200009e0 200009e8 200009e8     ... ... ... ... 
200009f8:	200009f0 200009f0 200009f8 200009f8     ... ... ... ... 
20000a08:	20000a00 20000a00 20000a08 20000a08     ... ... ... ... 
20000a18:	20000a10 20000a10 20000a18 20000a18     ... ... ... ... 
20000a28:	20000a20 20000a20 20000a28 20000a28      ..  .. (.. (.. 
20000a38:	20000a30 20000a30 20000a38 20000a38     0.. 0.. 8.. 8.. 
20000a48:	20000a40 20000a40 20000a48 20000a48     @.. @.. H.. H.. 
20000a58:	20000a50 20000a50 20000a58 20000a58     P.. P.. X.. X.. 
20000a68:	20000a60 20000a60 20000a68 20000a68     `.. `.. h.. h.. 
20000a78:	20000a70 20000a70 20000a78 20000a78     p.. p.. x.. x.. 
20000a88:	20000a80 20000a80 20000a88 20000a88     ... ... ... ... 
20000a98:	20000a90 20000a90 20000a98 20000a98     ... ... ... ... 
20000aa8:	20000aa0 20000aa0 20000aa8 20000aa8     ... ... ... ... 
20000ab8:	20000ab0 20000ab0 20000ab8 20000ab8     ... ... ... ... 
20000ac8:	20000ac0 20000ac0 20000ac8 20000ac8     ... ... ... ... 
20000ad8:	20000ad0 20000ad0 20000ad8 20000ad8     ... ... ... ... 
20000ae8:	20000ae0 20000ae0 20000ae8 20000ae8     ... ... ... ... 
20000af8:	20000af0 20000af0 20000af8 20000af8     ... ... ... ... 

20000b08 <_impure_ptr>:
20000b08:	20000b10 00000000                       ... ....

20000b10 <_impure_data>:
20000b10:	00000000 20000ee8 20000f50 20000fb8     ....... P.. ... 
	...
20000ba8:	00000001 00000000 abcd330e e66d1234     .........3..4.m.
20000bb8:	0005deec 0000000b 00000000 00000000     ................
	...

20000c50 <malloc_mutex>:
	...

20000c58 <print_mutex>:
	...
