Sections:
00: ".vectors" (0-2C0)
01: ".jumptable" (0-0)
02: ".text" (0-BB0)
03: ".rodata" (0-0)
04: ".data" (0-533)
05: ".bss" (0-63B)
06: "DATA" (0-2070)


Source: "vbug2-0.asm"
                            	     1:         SECTION .vectors
                            	     2:         ORG     $00000000
                            	     3:         ; --- Vetores de Exceção do 68000 ---
00:00000000 000FFFF0        	     4:         DC.L    $000FFFF0         ; SP inicial
00:00000004 000011E2        	     5:         DC.L    Vbug2Start        ; PC inicial
00:00000008 00001000        	     6:         DC.L    SERVICE_BUS_ERR   ; Bus Error
00:0000000C 00001002        	     7:         DC.L    SERVICE_ADDR_ERR  ; Address Error
00:00000010 00001004        	     8:         DC.L    SERVICE_ILLEGAL   ; Illegal Instruction
00:00000014 00001006        	     9:         DC.L    SERVICE_DIV0      ; Division by Zero
00:00000018 00001008        	    10:         DC.L    SERVICE_CHECK     ; CHK Instruction
00:0000001C 0000100A        	    11:         DC.L    SERVICE_TRAPV     ; TRAPV Instruction
00:00000020 0000100C        	    12:         DC.L    SERVICE_PRIV      ; Privilege Violation
00:00000024 0000100E        	    13:         DC.L    SERVICE_TRACE     ; Trace
00:00000028 00001010        	    14:         DC.L    SERVICE_LINE_A    ; Line A Emulator
00:0000002C 00001012        	    15:         DC.L    SERVICE_LINE_F    ; Line F Emulator
00:00000030 00001014        	    16:         DC.L    DefaultHandler     
00:00000034 00001014        	    17:         DC.L    DefaultHandler     
00:00000038 00001014        	    18:         DC.L    DefaultHandler     
00:0000003C 00001014        	    19:         DC.L    DefaultHandler     
00:00000040 00001014        	    20:         DC.L    DefaultHandler     
00:00000044 00001014        	    21:         DC.L    DefaultHandler     
00:00000048 00001014        	    22:         DC.L    DefaultHandler     
00:0000004C 00001014        	    23:         DC.L    DefaultHandler     
00:00000050 00001014        	    24:         DC.L    DefaultHandler
00:00000054 00001014        	    25:         DC.L    DefaultHandler
00:00000058 00001014        	    26:         DC.L    DefaultHandler
00:0000005C 00001014        	    27:         DC.L    DefaultHandler
00:00000060 000010CE        	    28:         DC.L    SpuriousHandler    ; $60: Spurious handler
00:00000064 00001154        	    29:         DC.L    Int1Handler        ; $64: Level 1 Interrupt
00:00000068 00001164        	    30:         DC.L    Int2Handler        ; $68: Level 2 Interrupt
00:0000006C 00001174        	    31:         DC.L    Int3Handler        ; $6C: Level 3 Interrupt
00:00000070 00001184        	    32:         DC.L    Int4Handler        ; $70: Level 4 Interrupt
00:00000074 00001194        	    33:         DC.L    Int5Handler        ; $74: Level 5 Interrupt
00:00000078 000011A4        	    34:         DC.L    Int6Handler        ; $78: Level 6 Interrupt
00:0000007C 000011B6        	    35:         DC.L    Int7Handler        ; $7C: Level 7 Interrupt
00:00000080 000010D0        	    36:         DC.L    Trap0Handler
00:00000084 000010D8        	    37:         DC.L    Trap1Handler
00:00000088 000010E4        	    38:         DC.L    Trap2Handler
00:0000008C 000010EC        	    39:         DC.L    Trap3Handler
00:00000090 000010F4        	    40:         DC.L    Trap4Handler
00:00000094 000010FC        	    41:         DC.L    Trap5Handler
00:00000098 00001104        	    42:         DC.L    Trap6Handler
00:0000009C 0000110C        	    43:         DC.L    Trap7Handler
00:000000A0 00001114        	    44:         DC.L    Trap8Handler
00:000000A4 0000111C        	    45:         DC.L    Trap9Handler
00:000000A8 00001124        	    46:         DC.L    TrapAHandler
00:000000AC 0000112C        	    47:         DC.L    TrapBHandler
00:000000B0 00001134        	    48:         DC.L    TrapCHandler
00:000000B4 0000113C        	    49:         DC.L    TrapDHandler
00:000000B8 00001144        	    50:         DC.L    TrapEHandler
00:000000BC 0000114C        	    51:         DC.L    TrapFHandler
00:000000C0 000011C6        	    52:         DCB.L   128,Universal_Trampoline
00:000000C4 *
                            	    53: 
                            	    54:         SECTION .jumptable
                            	    55:         ORG     $0400
                            	    56: ROM_JUMPTABLE:
                            	    57:         ; BRA     UART_Init          ;        0x400
                            	    58:         ; BRA     UART_WriteConout     ;        0x404
                            	    59:         ; BRA     UART_ReadConin      ;        0x408
                            	    60:         ; BRA     UART_Select        ;        0x40C
                            	    61:         ; BRA     UART_Setbaudrate   ;        0x410
                            	    62:         ; BRA     DELAY_MS           ;        0x414
                            	    63:         ; BRA     MEMDUMP            ;        0x418
                            	    64:         ; BRA     UART_ReadConinNonEcho;       0x41C
                            	    65:         ; BRA     vbug2_start         ;       0x420
                            	    66:         ; BRA     warm_start          ;       0x424
                            	    67:         ; BRA     MenuLoop            ;       0x428
                            	    68:         ; BRA     NewLine            ;       0x42C
                            	    69:         ; BRA     UART_WriteStringConout    ;       0x430
                            	    70:         ; BRA     UART_INIT1          ;       0x434
                            	    71: ; =============================================================================
                            	    72: ; FIM DA TABELA DE VETORES (Endereço $000400 alcançado de forma contínua!)
                            	    73: ; =============================================================================
                            	    74: 
                            	    75: ROMBASE           equ $00000
                            	    76: ROMSIZE           equ $3FFFF    ;256K WORDS
                            	    77: RAMBASE           equ $80000
                            	    78: RAMSIZE           equ $7FFFF    ;512K WORDS
                            	    79: USER_SP           equ $6F000
                            	    80: RAM_VECTOR_BASE   equ RAMBASE
                            	    81: RAM_VARIABLES     equ RAMBASE+$400
                            	    82: RAM_VECTOR_CODE   equ RAMBASE+RAM_VARIABLES+$400
                            	    83: RAM_USER_APP_AREA equ $82000
                            	    84: 
                            	    85: CMD_CCONIN        equ $1
                            	    86: CMD_CCONOUT       equ $2
                            	    87: CMD_CCONOUTSTR    equ $3
                            	    88: CMD_PTERM0        equ $0
                            	    89: 
                            	    90: ;Memory map for vectors
                            	    91: ;0x80000 -> 0x803FF - 1024bytes Ram vector table
                            	    92: ;0x80400 -> 0x80800 - 1024bytes Ram variables
                            	    93: ;0x80800 -> 0x80C00 - 5120bytes Ram vector code
                            	    94: ;0x82000 -> 0x84000 - 8192bytes Ram user app area
                            	    95:         SECTION .text
                            	    96:         ORG $00001000
                            	    97: 
                            	    98: SERVICE_BUS_ERR:
02:00001000 4E73            	    99:         RTE
                            	   100: SERVICE_ADDR_ERR:
02:00001002 4E73            	   101:         RTE
                            	   102: SERVICE_ILLEGAL:
02:00001004 4E73            	   103:         RTE
                            	   104: SERVICE_DIV0:
02:00001006 4E73            	   105:         RTE
                            	   106: SERVICE_CHECK:
02:00001008 4E73            	   107:         RTE
                            	   108: SERVICE_TRAPV:
02:0000100A 4E73            	   109:         RTE
                            	   110: SERVICE_PRIV:
02:0000100C 4E73            	   111:         RTE
                            	   112: SERVICE_TRACE:
02:0000100E 4E73            	   113:         RTE
                            	   114: SERVICE_LINE_A:
02:00001010 4E73            	   115:         RTE
                            	   116: SERVICE_LINE_F:
02:00001012 4E73            	   117:         RTE
                            	   118: DefaultHandler:
02:00001014 48E7FFFE        	   119:         MOVEM.L D0-D7/A0-A6,-(SP)
                            	   120:         ; --- IDENTIFICA O TIPO DE EXCEÇÃO, AGORA lê corretamente da pilha ---
02:00001018 202F000E        	   121:         MOVE.L  (14,SP),D0      ; ⭐⭐ PC (14 bytes abaixo por causa dos registradores salvos)
02:0000101C 322F0012        	   122:         MOVE.W  (18,SP),D1      ; ⭐⭐ SR (18 bytes abaixo)
02:00001020 342F0014        	   123:         MOVE.W  (20,SP),D2      ; ⭐⭐ Vector Offset (20 bytes abaixo)
                            	   124:         ; Mostra informações detalhadas
02:00001024 41F9000004A1    	   125:         LEA     MsgDebug,A0
02:0000102A 4EB813C0        	   126:         JSR     WriteStringConout
02:0000102E 2000            	   127:         MOVE.L  D0,D0           ; PC
02:00001030 4EB81448        	   128:         JSR     PrintHexAddressConout
02:00001034 4EB811C8        	   129:         JSR     NewLine
02:00001038 41F9000004B2    	   130:         LEA     MsgSr,A0
02:0000103E 4EB813C0        	   131:         JSR     WriteStringConout
02:00001042 3001            	   132:         MOVE.W  D1,D0           ; SR
02:00001044 4EB81448        	   133:         JSR     PrintHexAddressConout
02:00001048 4EB811C8        	   134:         JSR     NewLine
02:0000104C 41F9000004BF    	   135:         LEA     MsgVector,A0
02:00001052 4EB813C0        	   136:         JSR     WriteStringConout
02:00001056 3002            	   137:         MOVE.W  D2,D0           ; Vector offset
02:00001058 4EB81448        	   138:         JSR     PrintHexAddressConout
02:0000105C 4EB811C8        	   139:         JSR     NewLine
                            	   140:         ; --- ANALISA O VETOR ---
02:00001060 E44A            	   141:         LSR.W   #2,D2           ; Divide por 4 para get vector number
02:00001062 024200FF        	   142:         ANDI.W  #$FF,D2         ; Vector number em D2
02:00001066 41F9000004CF    	   143:         LEA     MsgVectorNum,A0
02:0000106C 4EB813C0        	   144:         JSR     WriteStringConout
02:00001070 3002            	   145:         MOVE.W  D2,D0
02:00001072 4EB81448        	   146:         JSR     PrintHexAddressConout
02:00001076 4EB811C8        	   147:         JSR     NewLine
                            	   148:         ; --- MOSTRA QUAL EXCEÇÃO É ---
02:0000107A B47C0008        	   149:         CMP.W   #8,D2
02:0000107E 6608            	   150:         BNE     .not_bus_error
02:00001080 41F9000004DF    	   151:         LEA     MsgBusError,A0
02:00001086 6030            	   152:         BRA     .show_msg
                            	   153: .not_bus_error:
02:00001088 B47C0009        	   154:         CMP.W   #9,D2
02:0000108C 6608            	   155:         BNE     .not_address_error
02:0000108E 41F9000004EA    	   156:         LEA     MsgAddrError,A0
02:00001094 6022            	   157:         BRA     .show_msg
                            	   158: .not_address_error:
02:00001096 B47C000A        	   159:         CMP.W   #10,D2
02:0000109A 6608            	   160:         BNE     .not_illegal
02:0000109C 41F9000004F9    	   161:         LEA     MsgIllegal,A0
02:000010A2 6014            	   162:         BRA     .show_msg
                            	   163: .not_illegal:
02:000010A4 B47C0020        	   164:         CMP.W   #32,D2
02:000010A8 6508            	   165:         BLO     .other_exception
02:000010AA 41F90000050E    	   166:         LEA     MsgTrap,A0
02:000010B0 6006            	   167:         BRA     .show_msg
                            	   168: .other_exception:
02:000010B2 41F900000520    	   169:         LEA     MsgUnknown,A0
                            	   170: .show_msg:
02:000010B8 4EB813C0        	   171:         JSR     WriteStringConout
02:000010BC 4EB811C8        	   172:         JSR     NewLine
                            	   173:         ; Pequeno delay para visualização
02:000010C0 76054843        	   174:         MOVE.L  #$50000,D3
                            	   175: .DELAY:
02:000010C4 5383            	   176:         SUBQ.L  #1,D3
02:000010C6 66FC            	   177:         BNE     .DELAY
02:000010C8 4CDF7FFF        	   178:         MOVEM.L (SP)+,D0-D7/A0-A6
                            	   179:         ;MOVE.W  #$CC00,LED_ADDRESS  ; Indica spurious
02:000010CC 4E73            	   180:         RTE
                            	   181: SpuriousHandler:
02:000010CE 4E73            	   182:         RTE
                            	   183: Trap0Handler:
02:000010D0 207900080000    	   184:         MOVE.L  (RAM_VECTOR_BASE),A0     ; Trap 0 mapeada em $80000
02:000010D6 4ED0            	   185:         JMP     (A0)
                            	   186: Trap1Handler:
02:000010D8 207900080004    	   187:         MOVE.L  (RAM_VECTOR_BASE+4),A0   ; Trap 1 mapeada em $80004
02:000010DE 41F81B18        	   188:         LEA     vbug2_trap1,A0
02:000010E2 4ED0            	   189:         JMP     (A0)
                            	   190: Trap2Handler:
02:000010E4 207900080008    	   191:         MOVE.L  (RAM_VECTOR_BASE+8),A0   ; Trap 2 mapeada em $80008
02:000010EA 4ED0            	   192:         JMP     (A0)
                            	   193: Trap3Handler:
02:000010EC 20790008000C    	   194:         MOVE.L  (RAM_VECTOR_BASE+12),A0
02:000010F2 4ED0            	   195:         JMP     (A0)
                            	   196: Trap4Handler:
02:000010F4 207900080010    	   197:         MOVE.L  (RAM_VECTOR_BASE+16),A0
02:000010FA 4ED0            	   198:         JMP     (A0)
                            	   199: Trap5Handler:
02:000010FC 207900080014    	   200:         MOVE.L  (RAM_VECTOR_BASE+20),A0
02:00001102 4ED0            	   201:         JMP     (A0)
                            	   202: Trap6Handler:
02:00001104 207900080018    	   203:         MOVE.L  (RAM_VECTOR_BASE+24),A0
02:0000110A 4ED0            	   204:         JMP     (A0)
                            	   205: Trap7Handler:
02:0000110C 20790008001C    	   206:         MOVE.L  (RAM_VECTOR_BASE+28),A0
02:00001112 4ED0            	   207:         JMP     (A0)
                            	   208: Trap8Handler:
02:00001114 207900080020    	   209:         MOVE.L  (RAM_VECTOR_BASE+32),A0
02:0000111A 4ED0            	   210:         JMP     (A0)
                            	   211: Trap9Handler:
02:0000111C 207900080024    	   212:         MOVE.L  (RAM_VECTOR_BASE+36),A0
02:00001122 4ED0            	   213:         JMP     (A0)
                            	   214: TrapAHandler:
02:00001124 207900080028    	   215:         MOVE.L  (RAM_VECTOR_BASE+40),A0
02:0000112A 4ED0            	   216:         JMP     (A0)
                            	   217: TrapBHandler:
02:0000112C 20790008002C    	   218:         MOVE.L  (RAM_VECTOR_BASE+44),A0
02:00001132 4ED0            	   219:         JMP     (A0)
                            	   220: TrapCHandler:
02:00001134 207900080030    	   221:         MOVE.L  (RAM_VECTOR_BASE+48),A0
02:0000113A 4ED0            	   222:         JMP     (A0)
                            	   223: TrapDHandler:
02:0000113C 207900080034    	   224:         MOVE.L  (RAM_VECTOR_BASE+52),A0
02:00001142 4ED0            	   225:         JMP     (A0)
                            	   226: TrapEHandler:
02:00001144 207900080038    	   227:         MOVE.L  (RAM_VECTOR_BASE+56),A0
02:0000114A 4ED0            	   228:         JMP     (A0)
                            	   229: TrapFHandler:
02:0000114C 20790008003C    	   230:         MOVE.L  (RAM_VECTOR_BASE+60),A0
02:00001152 4ED0            	   231:         JMP     (A0)
                            	   232: 
                            	   233: Int1Handler:        
02:00001154 48E7FFFE        	   234:         MOVEM.L D0-D7/A0-A6,-(A7)
02:00001158 207900080040    	   235:         MOVE.L  (RAM_VECTOR_BASE+64),A0
02:0000115E 4CDF7FFF        	   236:         MOVEM.L (A7)+,D0-D7/A0-A6
02:00001162 4E73            	   237:         RTE
                            	   238: Int2Handler:        
02:00001164 48E7FFFE        	   239:         MOVEM.L D0-D7/A0-A6,-(A7)
02:00001168 207900080044    	   240:         MOVE.L  (RAM_VECTOR_BASE+68),A0
02:0000116E 4CDF7FFF        	   241:         MOVEM.L (A7)+,D0-D7/A0-A6
02:00001172 4E73            	   242:         RTE
                            	   243: Int3Handler:        
02:00001174 48E7FFFE        	   244:         MOVEM.L D0-D7/A0-A6,-(A7)
02:00001178 207900080048    	   245:         MOVE.L  (RAM_VECTOR_BASE+72),A0
02:0000117E 4CDF7FFF        	   246:         MOVEM.L (A7)+,D0-D7/A0-A6
02:00001182 4E73            	   247:         RTE
                            	   248: Int4Handler:        
02:00001184 48E7FFFE        	   249:         MOVEM.L D0-D7/A0-A6,-(A7)
02:00001188 20790008004C    	   250:         MOVE.L  (RAM_VECTOR_BASE+76),A0
02:0000118E 4CDF7FFF        	   251:         MOVEM.L (A7)+,D0-D7/A0-A6
02:00001192 4E73            	   252:         RTE
                            	   253: Int5Handler:        
02:00001194 48E7FFFE        	   254:         MOVEM.L D0-D7/A0-A6,-(A7)
02:00001198 207900080050    	   255:         MOVE.L  (RAM_VECTOR_BASE+80),A0
02:0000119E 4CDF7FFF        	   256:         MOVEM.L (A7)+,D0-D7/A0-A6
02:000011A2 4E73            	   257:         RTE
                            	   258: Int6Handler:        
02:000011A4 48E7FFFE        	   259:         MOVEM.L D0-D7/A0-A6,-(A7)
                            	   260:         ;MOVE.L  (RAM_VECTOR_BASE+84),A0
02:000011A8 103C0041        	   261:         move.b  #$41,D0
02:000011AC 4EB813B6        	   262:         jsr     WriteConout
02:000011B0 4CDF7FFF        	   263:         MOVEM.L (A7)+,D0-D7/A0-A6
02:000011B4 4E73            	   264:         RTE
                            	   265: Int7Handler:        
02:000011B6 48E7FFFE        	   266:         MOVEM.L D0-D7/A0-A6,-(A7)
02:000011BA 52B900080420    	   267:         ADDQ.L  #1,systemTick
02:000011C0 4CDF7FFF        	   268:         MOVEM.L (A7)+,D0-D7/A0-A6
02:000011C4 4E73            	   269:         RTE
                            	   270: 
                            	   271: ; Tratador para todos os outros vetores que você não mapeou individualmente ainda
                            	   272: Universal_Trampoline:
02:000011C6 4E73            	   273:         RTE
                            	   274: NewLine:
02:000011C8 48E7C000        	   275:         MOVEM.L  D0/D1,-(SP)          ; Salva D0
02:000011CC 103C000A        	   276:         MOVE.B  #10,D0
02:000011D0 4EB813B6        	   277:         JSR     WriteConout
02:000011D4 103C000D        	   278:         MOVE.B  #13,D0
02:000011D8 4EB813B6        	   279:         JSR     WriteConout
02:000011DC 4CDF0003        	   280:         MOVEM.L  (SP)+,D0/D1          ; Restaura D0
02:000011E0 4E75            	   281:         RTS
                            	   282: 
                            	   283: ;;;;;;;;;;;;;;;;;;;;;;;;;;;;;;;;;;;;;;;;;;;;;;;;;;;;;;;;;;;;;;;;;;;;;;;;;;;;;;;;
                            	   284: ;END OF BASIC CODE
                            	   285: ;
                            	   286: ;VBug2.0 init
                            	   287: ;
                            	   288: 
                            	   289: Vbug2Start:
02:000011E2 007C0700        	   290:         ori.w   #$0700,SR    ; Desabilita as interrupções (Nível 7)
02:000011E6 4FF9000FFFF0    	   291:         LEA     $FFFF0,SP ; Garante o Stack Pointer (se o hardware não carregou)
                            	   292: 
                            	   293: ;;;;;;;;;;;;;;;;;;;;;;;;;;;;;;;;;;;;;;;;;;;;;;;;;;;;;;;;;;;;;;;;;;;;;;;;;;;;;;;;
                            	   294: ;This gives hardware time to get up
                            	   295: ;
02:000011EC 223C0003FFFF    	   296:         MOVE.L  #$003FFFF,D1 ; Contador para o delay (ajuste se precisar de mais)
                            	   297: .DELAY01:
02:000011F2 5381            	   298:         SUBQ.L  #1,D1         ; Subtrai 1 de D1 (4 ciclos)
02:000011F4 66FC            	   299:         BNE.S   .DELAY01     ; Pula se não for zero (10 ciclos se pular, 8 se não)
                            	   300: ;;;;;;;;;;;;;;;;;;;;;;;;;;;;;;;;;;;;;;;;;;;;;;;;;;;;;;;;;;;;;;;;;;;;;;;;;;;;;;;;
                            	   301: 
                            	   302:         ;Set USP( user stack pointer)
                            	   303: ;        LEA     USER_SP,A0
                            	   304: ;        MOVE.L  A0,USP        ; 🔥 Define User Stack Pointe
                            	   305:         ;Clear memory
02:000011F6 41F900080000    	   306:         LEA     $080000,A0
02:000011FC 43F9000FFFFF    	   307:         LEA     $0FFFFF,A1
02:00001202 7000            	   308:         MOVEQ   #0,D0
                            	   309: .ClearLoop:
02:00001204 20C0            	   310:         MOVE.L  D0,(A0)+
02:00001206 B3C8            	   311:         CMPA.L  A0,A1
02:00001208 62FA            	   312:         BHI     .ClearLoop
                            	   313:         ;Initialize memory size
02:0000120A 23FC000000000008	   314:         MOVE.L  #$00000000,romBase
02:00001212 0400
02:00001214 23FC000040000008	   315:         MOVE.L  #$00004000,romSize
02:0000121C 0404
02:0000121E 23FC000800000008	   316:         MOVE.L  #RAMBASE,ramBase    ;Total ram 1572864 de 0x8000 até 0x180000
02:00001226 0408
02:00001228 23FC0007FFFF0008	   317:         MOVE.L  #RAMSIZE,ramSize
02:00001230 040C
                            	   318:         ;Initialize variables
02:00001232 327C176A        	   319:         MOVE.L  #PicoWriteChar,A1    ; Initialize cconout console char out
02:00001236 23C900080414    	   320:         MOVE.L  A1,cconout
02:0000123C 327C14EA        	   321:         MOVE.L  #UartReadChar,A1         ; Initialize cconin console char in
02:00001240 23C900080418    	   322:         MOVE.L  A1,cconin
02:00001246 227C00FF4000    	   323:         MOVE.L  #UART_BASE,A1    ; Initialize uart output,INPUT and baud
02:0000124C 23C900080410    	   324:         MOVE.L  A1,currentUart
02:00001252 23FC000000080008	   325:         MOVE.L  #B115200,currentBaudRate
02:0000125A 0A28
                            	   326: 
                            	   327: 
                            	   328:         ;Initialize picoVga
02:0000125C 4EB816DE        	   329:         JSR  InitPicoVga
                            	   330:         ;Initialize UARTs
02:00001260 4EB814A4        	   331:         JSR  InitUart1   
02:00001264 4EB81644        	   332:         JSR  InitUartb1
                            	   333:         ;Initialize TRAP1
02:00001268 4EB81B62        	   334:         JSR  InitTrap1
                            	   335: 
                            	   336: mainLoop:
                            	   337: subLoop:    
02:0000126C 4EB81758        	   338:         JSR     PicoClearScreen
02:00001270 41F9000000AC    	   339:         LEA     MsgOrionInit,A0
02:00001276 4EB813C0        	   340:         JSR     WriteStringConout
                            	   341: 
                            	   342:         ;JSR     PicoClearScreen
                            	   343: 
02:0000127A 41F900000161    	   344:         LEA     MsgMenuText,A0
02:00001280 4EB813C0        	   345:         JSR     WriteStringConout
02:00001284 4EB813AC        	   346:         JSR     ReadConin
02:00001288 4EB813B6        	   347:         JSR     WriteConout
                            	   348: 
02:0000128C B03C0031        	   349:         CMP.B   #'1',D0
02:00001290 6754            	   350:         BEQ.S   TmpReadPacketKbd
02:00001292 B03C0032        	   351:         CMP.B   #'2',D0
02:00001296 6746            	   352:         BEQ.S   TmpDumpPayloadHex
02:00001298 B03C0033        	   353:         CMP.B   #'3',D0
02:0000129C 6726            	   354:         BEQ     Xmodem
02:0000129E B03C0034        	   355:         CMP.B   #'4',D0
02:000012A2 674A            	   356:         BEQ.S   RunTrap1
02:000012A4 B03C0035        	   357:         CMP.B   #'5',D0
02:000012A8 6760            	   358:         BEQ.S   RunProgram
02:000012AA B03C0037        	   359:         CMP.B   #'7',D0
02:000012AE 671C            	   360:         BEQ     MemDump0
02:000012B0 B03C0038        	   361:         CMP.B   #'8',D0
02:000012B4 6700008E        	   362:         BEQ     ReadInHexa
02:000012B8 B03C0039        	   363:         CMP.B   #'9',D0
02:000012BC 6700010E        	   364:         BEQ     ReadHexAddressConin
                            	   365: 
02:000012C0 4EF8126C        	   366:         JMP     subLoop
                            	   367: 
                            	   368: Xmodem:
02:000012C4 4EB81A40        	   369:         JSR     XmodemRec
02:000012C8 4EF8126C        	   370:         JMP     subLoop        
                            	   371: 
                            	   372: MemDump0:
02:000012CC 70084840        	   373:         MOVE.L  #$00080000,D0
02:000012D0 23C000080424    	   374:         MOVE.L  D0,(addressInHex)
02:000012D6 4EB81884        	   375:         JSR     MemDump
02:000012DA 4EF8126C        	   376:         JMP     subLoop        
                            	   377: ;2
                            	   378: TmpDumpPayloadHex:
02:000012DE 4EB81862        	   379:         JSR     DumpPayloadHex
02:000012E2 4EF8126C        	   380:         JMP     subLoop
                            	   381: ;3
                            	   382: TmpReadPacketKbd:
02:000012E6 4EB817BA        	   383:         JSR     ReadPacketKbd
02:000012EA 4EF8126C        	   384:         JMP     subLoop
                            	   385: ;4 Testa trap 1
                            	   386: RunTrap1:
02:000012EE 41F90000028C    	   387:         LEA     MsgWritePrompt,A0
02:000012F4 4EB813C0        	   388:         JSR     WriteStringConout
02:000012F8 4EB813AC        	   389:         JSR     ReadConin
02:000012FC 1200            	   390:         MOVE.B  D0,D1
02:000012FE 7002            	   391:         MOVE.L  #$2,D0
02:00001300 4E41            	   392:         TRAP    #1
02:00001302 4EB813AC        	   393:         JSR     ReadConin
02:00001306 4EF8126C        	   394:         JMP     subLoop
                            	   395: ; 5. Executa programa na RAM
                            	   396: RunProgram:
02:0000130A 41F900080A3A    	   397:         LEA     flg_pgm_loaded,A0   ; Get flag program loaded
02:00001310 1010            	   398:         MOVE.B  (A0),D0              ; Program  loaded
02:00001312 B03C0001        	   399:         CMP.B   #1,D0
02:00001316 670E            	   400:         BEQ     .run_program
02:00001318 41F9000002D1    	   401:         LEA     MsgNoProgramToRUN,A0
02:0000131E 4EB813C0        	   402:         JSR     WriteStringConout
02:00001322 6000FF48        	   403:         BRA     subLoop
                            	   404: .run_program
02:00001326 41F9000002BA    	   405:         LEA     MsgRunPrompt,A0
02:0000132C 4EB813C0        	   406:         JSR     WriteStringConout
02:00001330 204F            	   407:         MOVE.L  SP,A0
02:00001332 23C80008041C    	   408:         MOVE.L  A0,monitorStack
02:00001338 41F900082000    	   409:         LEA     buf_pgm,A0   ; A0 aponta para o endereço buffer onde esta o progama
02:0000133E 4E90            	   410:         JSR     (A0)        ; Chama o código como uma sub-rotina (salva o endereço de retorno)
02:00001340 6000FF2A        	   411:         BRA     subLoop
                            	   412: 
                            	   413: ReadInHexa:
02:00001344 41F900000315    	   414:         LEA     MsgTestHexInput,A0
02:0000134A 4EB813C0        	   415:         JSR     WriteStringConout
02:0000134E 4EB813CC        	   416:         JSR     ReadHexAddressConin
02:00001352 41F900000315    	   417:         LEA     MsgTestHexInput,A0
02:00001358 4EB813C0        	   418:         JSR     WriteStringConout
02:0000135C 4EF8126C        	   419:         JMP     subLoop
                            	   420: 
                            	   421: ; Lê número hexadecimal (retorna em D0)
                            	   422: UART_ReadHex1:
02:00001360 2F01            	   423:         MOVE.L  D1,-(SP)
02:00001362 2F02            	   424:         MOVE.L  D2,-(SP)
                            	   425: 
02:00001364 41F90000028C    	   426:         LEA     MsgWritePrompt,A0
02:0000136A 4EB813C0        	   427:         JSR     WriteStringConout
                            	   428: 
02:0000136E 4EB811C8        	   429:         JSR     NewLine
                            	   430: 
02:00001372 7000            	   431:         MOVEQ   #0,D0
02:00001374 7200            	   432:         MOVEQ   #0,D1            ; Máximo 8 dígitos
02:00001376 7400            	   433:         MOVEQ   #0,D2            ; Resultado em D2
                            	   434: 
                            	   435: .Loop:
02:00001378 4EB813AC        	   436:         JSR     ReadConin
02:0000137C B03C000D        	   437:         CMP.B   #13,D0
02:00001380 670E            	   438:         BEQ     .Done
02:00001382 B03C000A        	   439:         CMP.B   #10,D0
02:00001386 6708            	   440:         BEQ     .Done
02:00001388 4EB900080628    	   441:         JSR     buf_put
02:0000138E 60E8            	   442:         BRA     .Loop
                            	   443: .Done:
                            	   444: 
                            	   445: .loop1:
02:00001390 4EB900080828    	   446:         JSR     buf_get
02:00001396 B03C00FF        	   447:         CMP.B   #-1,D0          ; Buffer vazio?
02:0000139A 6706            	   448:         BEQ     .fim            ; Se sim, ignora
02:0000139C 4EB813B6        	   449:         JSR     WriteConout
02:000013A0 60EE            	   450:         BRA     .loop1
                            	   451: .fim:
02:000013A2 241F            	   452:         MOVE.L  (SP)+,D2
02:000013A4 221F            	   453:         MOVE.L  (SP)+,D1
02:000013A6 4EB811C8        	   454:         JSR     NewLine
                            	   455:         ;bra     subLoop ;provisoriamente
02:000013AA 4E75            	   456:         RTS
                            	   457: 
                            	   458: 
                            	   459: ;Includes
                            	   460:         INCLUDE "pds_std_io.asm"

Source: "pds_std_io.asm"
                            	     1: 
                            	     2: FlushConin:
                            	     3: 
                            	     4: ReadConin:
02:000013AC 247900080418    	     5:     MOVE.L  (cconin),A2
02:000013B2 4E92            	     6:     JSR     (A2)
                            	     7: ;    ANDI.L  #$FF,D0       ; Mantém apenas o byte inferior
                            	     8:     
                            	     9: ;    MOVE.B  D0,-(SP)          ; Salva byte original
                            	    10: ;    JSR     PrintByteHex    
                            	    11: ;    MOVE.B  (SP)+,D0          ; Recupera byte
                            	    12: 
02:000013B4 4E75            	    13:     RTS
                            	    14: 
                            	    15: WriteConout:
02:000013B6 247900080414    	    16:     MOVE.L  (cconout),A2        ; Busca o endereço da rotina física da UART
02:000013BC 4E92            	    17:     JSR     (A2)
02:000013BE 4E75            	    18:     RTS     
                            	    19: 
                            	    20: WriteStringConout:
02:000013C0 1018            	    21:         MOVE.B  (A0)+,D0                ; Pega caractere e avança ponteiro
02:000013C2 6706            	    22:         BEQ.S   .Done                   ; Se for zero, termina
02:000013C4 4EB813B6        	    23:         JSR     WriteConout           ; Chama sua função gloriosa!
02:000013C8 60F6            	    24:         BRA.S   WriteStringConout         ; Loop para o próximo
                            	    25: .Done:
02:000013CA 4E75            	    26:         RTS    
                            	    27: ReadHexAddressConin:
02:000013CC 2F01            	    28:         MOVE.L  D1,-(SP)
02:000013CE 2F02            	    29:         MOVE.L  D2,-(SP)
                            	    30: 
02:000013D0 7000            	    31:         MOVEQ   #0,D0
02:000013D2 721C            	    32:         MOVEQ   #28,D1            ; Máximo 8 dígitos
02:000013D4 7400            	    33:         MOVEQ   #0,D2            ; Resultado em D2
                            	    34: .Loop:
02:000013D6 7000            	    35:         CLR.L   D0
02:000013D8 4EB813AC        	    36:         JSR.S   ReadConin
02:000013DC B03C000D        	    37:         CMP.B   #13,D0
02:000013E0 674C            	    38:         BEQ     .Done
02:000013E2 B03C000A        	    39:         CMP.B   #10,D0
02:000013E6 6746            	    40:         BEQ     .Done
                            	    41:         ;Tratando os numeros
02:000013E8 B03C0030        	    42:         CMP.B   #'0',D0
02:000013EC 6C02            	    43:         BGE     .maiorQueZero
02:000013EE 60E6            	    44:         BRA     .Loop
                            	    45: .maiorQueZero:
02:000013F0 B03C0039        	    46:         CMP.B   #'9',D0
02:000013F4 6F10            	    47:         BLE     .isdigit
                            	    48:         ;Tratando as letras
02:000013F6 B03C0041        	    49:         CMP.B   #'A',D0
02:000013FA 6C02            	    50:         BGE     .maiorQueA
02:000013FC 60D8            	    51:         BRA     .Loop
                            	    52: .maiorQueA:
02:000013FE B03C0046        	    53:         CMP.B   #'F',D0
02:00001402 6F16            	    54:         BLE     .isletter
02:00001404 60D0            	    55:         BRA     .Loop
                            	    56: .isdigit:
02:00001406 903C0030        	    57:         SUB.B   #'0',D0
02:0000140A E3A8            	    58:         LSL.L   D1,D0
02:0000140C 5901            	    59:         SUB.B   #4,D1
02:0000140E 8480            	    60:         OR.L    D0,D2
02:00001410 41F900080424    	    61:         LEA     addressInHex,A0
02:00001416 2082            	    62:         MOVE.L  D2,(A0)
02:00001418 60BC            	    63:         BRA     .Loop
                            	    64: .isletter:
02:0000141A 903C0037        	    65:         SUB.B   #$37,D0
02:0000141E E3A8            	    66:         LSL.L   D1,D0
02:00001420 5901            	    67:         SUB.B   #4,D1
02:00001422 8480            	    68:         OR.L    D0,D2
02:00001424 41F900080424    	    69:         LEA     addressInHex,A0
02:0000142A 2082            	    70:         MOVE.L  D2,(A0)
02:0000142C 60A8            	    71:         BRA     .Loop
                            	    72: .Done:
02:0000142E 4EB811C8        	    73:         JSR     NewLine
02:00001432 41F900080424    	    74:         LEA     addressInHex,A0
02:00001438 2010            	    75:         MOVE.L  (A0),D0
02:0000143A 4EB81448        	    76:         JSR     PrintHexAddressConout
02:0000143E 4EB811C8        	    77:         JSR     NewLine
02:00001442 241F            	    78:         MOVE.L  (SP)+,D2
02:00001444 221F            	    79:         MOVE.L  (SP)+,D1
02:00001446 4E75            	    80:         RTS
                            	    81: 
                            	    82: PrintHexAddressConout:
02:00001448 4840            	    83:         SWAP    D0                ; Imprime parte alta primeiro
02:0000144A 4EB81450        	    84:         JSR     .PrintWordHex
02:0000144E 4840            	    85:         SWAP    D0                ; Parte baixa
                            	    86: .PrintWordHex:
02:00001450 E158            	    87:         ROL.W   #8,D0             ; Byte mais significativo primeiro
02:00001452 4EB81458        	    88:         JSR     PrintByteHexConout
02:00001456 E058            	    89:         ROR.W   #8,D0             ; Byte menos significativo
                            	    90: PrintByteHexConout:
02:00001458 1F00            	    91:         MOVE.B  D0,-(SP)          ; Salva byte original
02:0000145A E808            	    92:         LSR.B   #4,D0             ; Nibble alto
02:0000145C 6106            	    93:         BSR     .PrintNibble
02:0000145E 101F            	    94:         MOVE.B  (SP)+,D0          ; Recupera byte
02:00001460 0200000F        	    95:         ANDI.B  #$0F,D0           ; Nibble baixo
                            	    96: .PrintNibble:
02:00001464 B03C0009        	    97:         CMP.B   #9,D0
02:00001468 6302            	    98:         BLS     .Decimal
02:0000146A 5E00            	    99:         ADD.B   #7,D0             ; Ajuste para A-F
                            	   100: .Decimal:
02:0000146C D03C0030        	   101:         ADD.B   #'0',D0
02:00001470 4EF813B6        	   102:         JMP     WriteConout    ; Usa JMP para tail call optimization        
                            	   103: 
                            	   104: 

Source: "vbug2-0.asm"
                            	   461:         INCLUDE "drv_uart.inc"

Source: "drv_uart.inc"
                            	     1: 
                            	     2: 
                            	     3: 
                            	     4: RHR         equ     $01   ; receive holding register (read)
                            	     5: THR         equ     $01   ; transmit holding register (write)
                            	     6: IER         equ     $03   ; interrupt enable register
                            	     7: ISR         equ     $05   ; interrupt status register (read)
                            	     8: FCR         equ     $05   ; FIFO control register (write)
                            	     9: LCR         equ     $07   ; line control register
                            	    10: MCR         equ     $09   ; modem control register
                            	    11: LSR         equ     $0B   ; line status register
                            	    12: MSR         equ     $0D   ; modem status register
                            	    13: SPR         equ     $0F   ; scratchpad register (reserved for system use)
                            	    14: DLL         equ     $01   ; divisor latch LSB
                            	    15: DLM         equ     $03   ; divisor latch MSB
                            	    16: ; aliases for register names (used by different manufacturers)cd ..
                            	    17: RBR         equ     RHR ; receive buffer register
                            	    18: IIR         equ     ISR ; interrupt identification register
                            	    19: SCR         equ     SPR ; scratch register
                            	    20: 
                            	    21: 
                            	    22: B009600     equ         $0060
                            	    23: B019200     equ         $0030
                            	    24: B038400     equ         $0018
                            	    25: B057600     equ         $0010
                            	    26: B115200     equ         $0008
                            	    27: B230400     equ         $0004
                            	    28: B460800     equ         $0002
                            	    29: B921600     equ         $0001
                            	    30: 
                            	    31: 
                            	    32: B009600L    equ         $60
                            	    33: B019200L    equ         $30
                            	    34: B038400L    equ         $18
                            	    35: B057600L    equ         $10
                            	    36: B115200L    equ         $08
                            	    37: B230400L    equ         $04
                            	    38: B460800L    equ         $02
                            	    39: B921600L    equ         $01
                            	    40: B009600H    equ         $00
                            	    41: B019200H    equ         $00     
                            	    42: B038400H    equ         $00     
                            	    43: B057600H    equ         $00     
                            	    44: B115200H    equ         $00     
                            	    45: B230400H    equ         $00
                            	    46: B460800H    equ         $00
                            	    47: B921600H    equ         $00
                            	    48: 

Source: "vbug2-0.asm"
                            	   462:         INCLUDE "drv_uart.asm"

Source: "drv_uart.asm"
                            	     1: ;Uart register offsets
                            	     2: UART_BASE   equ     $FF4000
                            	     3: 
                            	     4: ;;;;;;;;;;;;;;;;;;;;;;;;;;;;;;;;;;;;;;;;;;;;;;;;;;;;;;;;;;;;;;;;;;;;;;;;;;;;;;;
                            	     5: ; Initialize uart
                            	     6: ; Change A1
                            	     7: ; Parametros: none
                            	     8: ; ----------------------------------------------------------------------
                            	     9: InitUart:
02:00001474 227900080410    	    10:         move.l  currentUart,A1
02:0000147A 203900080A28    	    11:         move.l  currentBaudRate,D0
02:00001480 137C00830007    	    12:         move.b  #%10000011,LCR(A1) ;DLAB=1
02:00001486 137C00080001    	    13:         move.b  #$08,DLL(A1)       ; set divisor latch low byte
02:0000148C 137C00000003    	    14:         move.b  #$00,DLM(A1)       ; set divisor latch high byte
02:00001492 137C00030007    	    15:         move.b  #%00000011,LCR(A1) ; 8 data bits, no parity, 1 stop bit, DLAB=0
02:00001498 137C000D0005    	    16:         move.b  #%00001101,FCR(A1) ; enable FIFO
02:0000149E 4229000F        	    17:         clr.b   SCR(A1)            ; clear the scratch register
02:000014A2 4E75            	    18:         RTS
                            	    19: InitUart1:
02:000014A4 227900080410    	    20:         move.l  currentUart,A1
02:000014AA 203900080A28    	    21:         move.l  currentBaudRate,D0
02:000014B0 137C000D0005    	    22:         move.b  #%00001101,FCR(a1)      ; enable FIFO
02:000014B6 137C00830007    	    23:         move.b  #%10000011,LCR(a1)      ; 8 data bits, no parity, 1 stop bit, DLAB=1
02:000014BC 13400001        	    24:         move.b  D0,DLL(A1)              ; Byte 0 (LSB) -> DLL
02:000014C0 E088            	    25:         lsr.l   #8,D0                   ; Shift right 8 bits
02:000014C2 13400003        	    26:         move.b  D0,DLM(A1)              ; Byte 1 (agora no LSB) -> DLM
02:000014C6 08A900070007    	    27:         bclr.b  #7,LCR(a1)              ; 8 data bits, no parity, 1 stop bit, DLAB=0
02:000014CC 4229000F        	    28:         clr.b   SCR(a1)                 ; clear the scratch register
02:000014D0 4E75            	    29:         RTS
                            	    30: ;;;;;;;;;;;;;;;;;;;;;;;;;;;;;;;;;;;;;;;;;;;;;;;;;;;;;;;;;;;;;;;;;;;;;;;;;;;;;;;
                            	    31: ; Write char
                            	    32: ; Change A1
                            	    33: ; Receive char in D0
                            	    34: UartWriteChar:
02:000014D2 2F09            	    35:         MOVE.L A1,-(SP)
02:000014D4 227900080410    	    36:         move.l  currentUart,A1
                            	    37: .WaitTx:
02:000014DA 08290005000B    	    38:         btst    #5,LSR(A1)      ; wait until transmit holding register is empty
02:000014E0 67F8            	    39:         beq     .WaitTx
02:000014E2 13400001        	    40:         move.b  D0,THR(A1)      ; transmit byte
02:000014E6 225F            	    41:         MOVE.L (SP)+,A1
02:000014E8 4E75            	    42:         RTS
                            	    43: 
                            	    44: ;;;;;;;;;;;;;;;;;;;;;;;;;;;;;;;;;;;;;;;;;;;;;;;;;;;;;;;;;;;;;;;;;;;;;;;;;;;;;;;
                            	    45: ; Read char block
                            	    46: ; Change A1
                            	    47: ;
                            	    48: ; Return char in D0)
                            	    49: UartReadChar:
02:000014EA 2F09            	    50:         MOVE.L A1,-(SP)
02:000014EC 227900080410    	    51:         move.l  currentUart,A1
                            	    52: .WaitRx:
02:000014F2 08290000000B    	    53:         btst    #0,LSR(A1)        ; RX ready?
02:000014F8 67F8            	    54:         beq     .WaitRx
                            	    55: 
02:000014FA 10290001        	    56:         move.b  RHR(A1),D0
02:000014FE 225F            	    57:         MOVE.L (SP)+,A1
02:00001500 4E75            	    58:         RTS
                            	    59: 
                            	    60: UartFlush:
02:00001502 2F09            	    61:         MOVE.L A1,-(SP)
02:00001504 227900080410    	    62:         MOVE.L  currentUart,A1
                            	    63: .WaitRx:
02:0000150A 08290000000B    	    64:         btst    #0,LSR(A1)        ; RX ready?
02:00001510 6604            	    65:         BNE     .read
02:00001512 225F            	    66:         MOVE.L (SP)+,A1
02:00001514 4E75            	    67:         RTS
                            	    68: .read:
02:00001516 60F2            	    69:         BRA     .WaitRx
                            	    70: 
                            	    71: ;;;;;;;;;;;;;;;;;;;;;;;;;;;;;;;;;;;;;;;;;;;;;;;;;;;;;;;;;;;;;;;;;;;;;;;;;;;;;;;
                            	    72: ; Read char block with echo
                            	    73: ; Change A1
                            	    74: ;
                            	    75: ; Return char in D0)
                            	    76: DelUartReadCharEcho:
02:00001518 2F09            	    77:         MOVE.L A1,-(SP)
02:0000151A 227900080410    	    78:         move.l  currentUart,A1
                            	    79: .WaitRx:
02:00001520 08290000000B    	    80:         btst    #0,LSR(A1)        ; RX ready?
02:00001526 67F8            	    81:         beq     .WaitRx
02:00001528 10290001        	    82:         move.b  RHR(A1),D0
                            	    83: 
                            	    84: .WaitTx:
02:0000152C 08290005000B    	    85:         btst    #5,LSR(A1)      ; wait until transmit holding register is empty
02:00001532 67F8            	    86:         beq     .WaitTx
02:00001534 13400001        	    87:         move.b  D0,THR(A1)      ; transmit byte
02:00001538 225F            	    88:         MOVE.L (SP)+,A1
02:0000153A 4E75            	    89:         RTS
                            	    90: 
                            	    91: DelUartReadCharEcho2:
02:0000153C 2F09            	    92:         MOVE.L A1,-(SP)
02:0000153E 227900080410    	    93:         move.l  currentUart,A1
                            	    94: .WaitRx:
02:00001544 08290000000B    	    95:         btst    #0,LSR(A1)        ; RX ready?
02:0000154A 67F8            	    96:         beq     .WaitRx
02:0000154C 10290001        	    97:         move.b  RHR(A1),D0
                            	    98: 
02:00001550 4EB81B92        	    99:         JSR     PrintByteHex
                            	   100: 
02:00001554 225F            	   101:         MOVE.L (SP)+,A1
02:00001556 4E75            	   102:         RTS
                            	   103: 
                            	   104: ; ----------------------------------------------------------------------
                            	   105: ; UART_WriteString - Envia string terminada em null para UART
                            	   106: ; Entrada:
                            	   107: ;   A0 = Ponteiro para a string (endereço da string)
                            	   108: ; ----------------------------------------------------------------------
                            	   109: DelUartWriteString:
02:00001558 2F08            	   110:         MOVE.L  A0,-(SP)      ; Preserva D0
02:0000155A 2F00            	   111:         MOVE.L  D0,-(SP)      ; Preserva D0
                            	   112: .WriteLoop:
02:0000155C 1018            	   113:         MOVE.B  (A0)+,D0      ; Pega caractere
02:0000155E 6706            	   114:         BEQ     .Done
02:00001560 4EB813B6        	   115:         JSR     WriteConout ; Use sua rotine existente
02:00001564 60F6            	   116:         BRA     .WriteLoop
                            	   117: .Done:
02:00001566 201F            	   118:         MOVE.L  (SP)+,D0
02:00001568 205F            	   119:         MOVE.L  (SP)+,A0
02:0000156A 4E75            	   120:         RTS
                            	   121: 
                            	   122: ; Lê número hexadecimal (retorna em D0)
                            	   123: DelUartReadHex:
02:0000156C 2F01            	   124:         MOVE.L  D1,-(SP)
02:0000156E 2F02            	   125:         MOVE.L  D2,-(SP)
                            	   126: 
02:00001570 7000            	   127:         MOVEQ   #0,D0
02:00001572 721C            	   128:         MOVEQ   #28,D1            ; Máximo 8 dígitos
02:00001574 7400            	   129:         MOVEQ   #0,D2            ; Resultado em D2
                            	   130: .Loop:
02:00001576 7000            	   131:         CLR.L   D0
02:00001578 4EB813AC        	   132:         JSR     ReadConin
02:0000157C B03C000D        	   133:         CMP.B   #13,D0
02:00001580 674C            	   134:         BEQ     .Done
02:00001582 B03C000A        	   135:         CMP.B   #10,D0
02:00001586 6746            	   136:         BEQ     .Done
                            	   137:         ;Tratando os numeros
02:00001588 B03C0030        	   138:         CMP.B   #'0',D0
02:0000158C 6C02            	   139:         BGE     .maiorQueZero
02:0000158E 60E6            	   140:         BRA     .Loop
                            	   141: .maiorQueZero:
02:00001590 B03C0039        	   142:         CMP.B   #'9',D0
02:00001594 6F10            	   143:         BLE     .isdigit
                            	   144:         ;Tratando as letras
02:00001596 B03C0041        	   145:         CMP.B   #'A',D0
02:0000159A 6C02            	   146:         BGE     .maiorQueA
02:0000159C 60D8            	   147:         BRA     .Loop
                            	   148: .maiorQueA:
02:0000159E B03C0046        	   149:         CMP.B   #'F',D0
02:000015A2 6F16            	   150:         BLE     .isletter
02:000015A4 60D0            	   151:         BRA     .Loop
                            	   152: .isdigit:
02:000015A6 903C0030        	   153:         SUB.B   #'0',D0
02:000015AA E3A8            	   154:         LSL.L   D1,D0
02:000015AC 5901            	   155:         SUB.B   #4,D1
02:000015AE 8480            	   156:         OR.L    D0,D2
02:000015B0 41F900080424    	   157:         LEA     addressInHex,A0
02:000015B6 2082            	   158:         MOVE.L  D2,(A0)
02:000015B8 60BC            	   159:         BRA     .Loop
                            	   160: .isletter:
02:000015BA 903C0037        	   161:         SUB.B   #$37,D0
02:000015BE E3A8            	   162:         LSL.L   D1,D0
02:000015C0 5901            	   163:         SUB.B   #4,D1
02:000015C2 8480            	   164:         OR.L    D0,D2
02:000015C4 41F900080424    	   165:         LEA     addressInHex,A0
02:000015CA 2082            	   166:         MOVE.L  D2,(A0)
02:000015CC 60A8            	   167:         BRA     .Loop
                            	   168: .Done:
02:000015CE 4EB811C8        	   169:         JSR     NewLine
02:000015D2 41F900080424    	   170:         LEA     addressInHex,A0
02:000015D8 2010            	   171:         MOVE.L  (A0),D0
02:000015DA 4EB8178E        	   172:         JSR     PicoPrintHexAddress
02:000015DE 4EB811C8        	   173:         JSR     NewLine
02:000015E2 241F            	   174:         MOVE.L  (SP)+,D2
02:000015E4 221F            	   175:         MOVE.L  (SP)+,D1
02:000015E6 4E75            	   176:         RTS
                            	   177: 
                            	   178: ;;;;;;;;;;;;;;;;;;;;;;;;;;;;;;;;;;;;;;;;;;;;;;;;;;;;;;;;;;;;;;;;;;;;;;;;;;;;;;;
                            	   179: ; UartPrintHexAddress - Imprime endereço de 32 bits
                            	   180: ; Entrada: D0 = endereço
                            	   181: ;
                            	   182: DelUartPrintHexAddress:
02:000015E8 4840            	   183:         SWAP    D0                ; Imprime parte alta primeiro
02:000015EA 4EB815F0        	   184:         JSR     .PrintWordHex
02:000015EE 4840            	   185:         SWAP    D0                ; Parte baixa
                            	   186: .PrintWordHex:
02:000015F0 E158            	   187:         ROL.W   #8,D0             ; Byte mais significativo primeiro
02:000015F2 4EB8179E        	   188:         JSR     PicoPrintByteHex
02:000015F6 E058            	   189:         ROR.W   #8,D0             ; Byte menos significativo
                            	   190: DelUartPrintByteHex:
02:000015F8 1F00            	   191:         MOVE.B  D0,-(SP)          ; Salva byte original
02:000015FA E808            	   192:         LSR.B   #4,D0             ; Nibble alto
02:000015FC 6106            	   193:         BSR     .PrintNibble
02:000015FE 101F            	   194:         MOVE.B  (SP)+,D0          ; Recupera byte
02:00001600 0200000F        	   195:         ANDI.B  #$0F,D0           ; Nibble baixo
                            	   196: .PrintNibble:
02:00001604 B03C0009        	   197:         CMP.B   #9,D0
02:00001608 6302            	   198:         BLS     .Decimal
02:0000160A 5E00            	   199:         ADD.B   #7,D0             ; Ajuste para A-F
                            	   200: .Decimal:
02:0000160C D03C0030        	   201:         ADD.B   #'0',D0
02:00001610 4EF813B6        	   202:         JMP     WriteConout    ; Usa JMP para tail call optimization
                            	   203: 
                            	   204: 

Source: "vbug2-0.asm"
                            	   463:         INCLUDE "drv_uartb.asm"

Source: "drv_uartb.asm"
                            	     1: ;Uart register offsets
                            	     2: UARTB_BASE   equ     $FF4100
                            	     3: 
                            	     4: 
                            	     5: ;;;;;;;;;;;;;;;;;;;;;;;;;;;;;;;;;;;;;;;;;;;;;;;;;;;;;;;;;;;;;;;;;;;;;;;;;;;;;;;
                            	     6: ; Initialize uart
                            	     7: ; Change A1
                            	     8: ; Parametros: none
                            	     9: ; ----------------------------------------------------------------------
                            	    10: InitUartb:
02:00001614 227C00FF4100    	    11:         move.l  #UARTB_BASE,A1
02:0000161A 203900080A28    	    12:         move.l  currentBaudRate,D0
02:00001620 137C00830007    	    13:         move.b  #%10000011,LCR(A1) ;DLAB=1
02:00001626 137C00080001    	    14:         move.b  #$08,DLL(A1)       ; set divisor latch low byte
02:0000162C 137C00000003    	    15:         move.b  #$00,DLM(A1)       ; set divisor latch high byte
02:00001632 137C00030007    	    16:         move.b  #%00000011,LCR(A1) ; 8 data bits, no parity, 1 stop bit, DLAB=0
02:00001638 137C000D0005    	    17:         move.b  #%00001101,FCR(A1) ; enable FIFO
02:0000163E 4229000F        	    18:         clr.b   SCR(A1)            ; clear the scratch register
02:00001642 4E75            	    19:         RTS
                            	    20: InitUartb1:
02:00001644 227C00FF4100    	    21:         move.l  #UARTB_BASE,A1
02:0000164A 203900080A28    	    22:         move.l  currentBaudRate,D0
02:00001650 137C000D0005    	    23:         move.b  #%00001101,FCR(a1)      ; enable FIFO
02:00001656 137C00830007    	    24:         move.b  #%10000011,LCR(a1)      ; 8 data bits, no parity, 1 stop bit, DLAB=1
02:0000165C 13400001        	    25:         move.b  D0,DLL(A1)              ; Byte 0 (LSB) -> DLL
02:00001660 E088            	    26:         lsr.l   #8,D0                   ; Shift right 8 bits
02:00001662 13400003        	    27:         move.b  D0,DLM(A1)              ; Byte 1 (agora no LSB) -> DLM
02:00001666 08A900070007    	    28:         bclr.b  #7,LCR(a1)              ; 8 data bits, no parity, 1 stop bit, DLAB=0
02:0000166C 4229000F        	    29:         clr.b   SCR(a1)                 ; clear the scratch register
02:00001670 4E75            	    30:         RTS
                            	    31: ;;;;;;;;;;;;;;;;;;;;;;;;;;;;;;;;;;;;;;;;;;;;;;;;;;;;;;;;;;;;;;;;;;;;;;;;;;;;;;;
                            	    32: ; Write char
                            	    33: ; Change A1
                            	    34: ; Receive char in D0
                            	    35: UartbWriteChar:
02:00001672 2F09            	    36:         MOVE.L A1,-(SP)
02:00001674 227C00FF4100    	    37:         move.l  #UARTB_BASE,A1
                            	    38: .WaitTx:
02:0000167A 08290005000B    	    39:         btst    #5,LSR(A1)      ; wait until transmit holding register is empty
02:00001680 67F8            	    40:         beq     .WaitTx
02:00001682 13400001        	    41:         move.b  D0,THR(A1)      ; transmit byte
02:00001686 225F            	    42:         MOVE.L (SP)+,A1
02:00001688 4E75            	    43:         RTS
                            	    44:         
                            	    45: ;;;;;;;;;;;;;;;;;;;;;;;;;;;;;;;;;;;;;;;;;;;;;;;;;;;;;;;;;;;;;;;;;;;;;;;;;;;;;;;
                            	    46: ; Read char block
                            	    47: ; Change A1
                            	    48: ;
                            	    49: ; Return char in D0)
                            	    50: UartbReadChar:
02:0000168A 2F09            	    51:         MOVE.L A1,-(SP)
02:0000168C 227C00FF4100    	    52:         move.l  #UARTB_BASE,A1
                            	    53: .WaitRx:
02:00001692 08290000000B    	    54:         btst    #0,LSR(A1)        ; RX ready?
02:00001698 67F8            	    55:         beq     .WaitRx
                            	    56: 
02:0000169A 10290001        	    57:         move.b  RHR(A1),D0
02:0000169E 225F            	    58:         MOVE.L (SP)+,A1
02:000016A0 4EB81458        	    59:         JSR     PrintByteHexConout
02:000016A4 4E75            	    60:         RTS
                            	    61: 
                            	    62: ;;;;;;;;;;;;;;;;;;;;;;;;;;;;;;;;;;;;;;;;;;;;;;;;;;;;;;;;;;;;;;;;;;;;;;;;;;;;;;;
                            	    63: ; Read char block with echo
                            	    64: ; Change A1
                            	    65: ;
                            	    66: ; Return char in D0)
                            	    67: UartbReadCharEcho:
02:000016A6 2F09            	    68:         MOVE.L A1,-(SP)
02:000016A8 227C00FF4100    	    69:         move.l  #UARTB_BASE,A1
                            	    70: .WaitRx:
02:000016AE 08290000000B    	    71:         btst    #0,LSR(A1)        ; RX ready?
02:000016B4 67F8            	    72:         beq     .WaitRx
02:000016B6 10290001        	    73:         move.b  RHR(A1),D0
                            	    74: 
                            	    75: .WaitTx:
02:000016BA 08290005000B    	    76:         btst    #5,LSR(A1)      ; wait until transmit holding register is empty
02:000016C0 67F8            	    77:         beq     .WaitTx
02:000016C2 13400001        	    78:         move.b  D0,THR(A1)      ; transmit byte
02:000016C6 225F            	    79:         MOVE.L (SP)+,A1
02:000016C8 4E75            	    80:         RTS
                            	    81: 
                            	    82: ; ----------------------------------------------------------------------
                            	    83: ; UART_WriteString - Envia string terminada em null para UART
                            	    84: ; Entrada:
                            	    85: ;   A0 = Ponteiro para a string (endereço da string)
                            	    86: ; ----------------------------------------------------------------------
                            	    87: UartbWriteString:
02:000016CA 2F08            	    88:         MOVE.L  A0,-(SP)      ; Preserva D0
02:000016CC 2F00            	    89:         MOVE.L  D0,-(SP)      ; Preserva D0
                            	    90: .WriteLoop:
02:000016CE 1018            	    91:         MOVE.B  (A0)+,D0      ; Pega caractere
02:000016D0 6706            	    92:         BEQ     .Done
02:000016D2 4EB81672        	    93:         JSR     UartbWriteChar ; Use sua rotine existente
02:000016D6 60F6            	    94:         BRA     .WriteLoop
                            	    95: .Done:
02:000016D8 201F            	    96:         MOVE.L  (SP)+,D0
02:000016DA 205F            	    97:         MOVE.L  (SP)+,A0
02:000016DC 4E75            	    98:         RTS
                            	    99: 
                            	   100: 

Source: "vbug2-0.asm"
                            	   464:         INCLUDE "drv_pico_vga.asm"

Source: "drv_pico_vga.asm"
                            	     1: 
                            	     2: 
                            	     3: 
                            	     4: 
                            	     5: ;;picoVGA Register address
                            	     6: PICO_BASE_ADDR equ $FF8000
                            	     7: WRITE_SCREEN   equ $FF8001        ;;Endereço real  3 0x03  o pico enxerga 0x00
                            	     8: REG_02         equ $FF8003        ;;Endereço real  3 0x03  o pico enxerga 0x01
                            	     9: REG_03         equ $FF8005        ;;Endereço real  5 0x05  o pico enxerga 0x02
                            	    10: REG_04         equ $FF8007        ;;Endereço real  7 0x07  o pico enxerga 0x03
                            	    11: CONFIG_REG     equ $FF8009        ;;Endereço real  9 0x09  o pico enxerga 0x04
                            	    12: REG_06         equ $FF800B        ;;Endereço real 11 0x0b  o pico enxerga 0x05
                            	    13: REG_07         equ $FF800D        ;;Endereço real 13 0x0d  o pico enxerga 0x06
                            	    14: REG_08         equ $FF800F        ;;Endereço real 15 0x0f  o pico enxerga 0x07
                            	    15: ;Begin Register for reads
                            	    16: REG_09         equ $FF8011        ;;Endereço real 17 0x11  o pico enxerga 0x08
                            	    17: REG_0A         equ $FF8013        ;;Endereço real 19 0x13  o pico enxerga 0x09
                            	    18: REG_0B         equ $FF8015        ;;Endereço real 21 0x15  o pico enxerga 0x0A
                            	    19: REG_0C         equ $FF8017        ;;Endereço real 23 0x17  o pico enxerga 0x0B
                            	    20: REG_0D         equ $FF8019        ;;Endereço real 25 0x19  o pico enxerga 0x0C
                            	    21: REG_0E         equ $FF801B        ;;Endereço real 27 0x1b  o pico enxerga 0x0D
                            	    22: REG_0F         equ $FF801D        ;;Endereço real 29 0x1d  o pico enxerga 0x0E
                            	    23: REG_10         equ $FF801F        ;;Endereço real 31 0x1f  o pico enxerga 0x0F
                            	    24: ;End
                            	    25: REG_11         equ $FF8021        ;;Endereço real 33 0x21  o pico enxerga 0x10
                            	    26: REG_12         equ $FF8023        ;;Endereço real 35 0x23  o pico enxerga 0x11
                            	    27: REG_13         equ $FF8025        ;;Endereço real 37 0x25  o pico enxerga 0x12
                            	    28: SET_MODE       equ $FF8027        ;;Endereço real 39 0x27  o pico enxerga 0x13 (0=Texto+Scroll, 1=Texto Fixo, 2=320x20
                            	    29: SET_TXT_COLOR  equ $FF8029        ;;Endereço real 41 0x29  o pico enxerga 0x14
                            	    30: CHANGE_CUR_POS equ $FF802B        ;;Endereço real 43 0x2b  o pico enxerga 0x15
                            	    31: REG_X_HIGH     equ $FF802D        ;;Endereço real 45 0x2d  o pico enxerga 0x16
                            	    32: REG_X_LOW      equ $FF802F        ;;Endereço real 47 0x2f  o pico enxerga 0x17
                            	    33: REG_Y_HIGH     equ $FF8031        ;;Endereço real 49 0x31  o pico enxerga 0x18
                            	    34: REG_Y_LOW      equ $FF8033        ;;Endereço real 51 0x33  o pico enxerga 0x19
                            	    35: CHANGE_BUFFER  equ $FF8035        ;;Endereço real 53 0x35  o pico enxerga 0x1A
                            	    36: SELECT_SCREEN  equ $FF8037        ;;Endereço real 55 0x37  o pico enxerga 0x1B
                            	    37: SET_HORIZONTAL equ $FF8039        ;;Endereço real 57 0x39  o pico enxerga 0x1C
                            	    38: SET_VERTICAL   equ $FF803B        ;;Endereço real 59 0x3b  o pico enxerga 0x1D
                            	    39: RUN_CMD        equ $FF803D        ;;Endereço real 61 0x3d  o pico enxerga 0x1E
                            	    40: CORINGA        equ $FF803F        ;;Endereço real 63 0x3f  o pico enxerga 0x1F    
                            	    41: 
                            	    42: ;Commands
                            	    43: CMD_SYSTEM_ENABLE equ  $A5
                            	    44: CMD_CLEAR_SCREEN  equ  $A4
                            	    45: CMD_SET_CUR_POS   equ  $A3
                            	    46: CMD_SET_TXT_COLOR equ  $A2
                            	    47: CMD_GO_HOME       equ  $A1
                            	    48: 
                            	    49: InitPicoVga:
02:000016DE 4E75            	    50:         RTS
                            	    51: ;;;;;;;;;;;;;;;;;;;;;;;;;;;;;;;;;;;;;;;;;;;;;;;;;;;;;;;;;;;;;;;;;;;;;;;;;;;;;;;
                            	    52: ; Cursor go home
                            	    53: ; Receive cmd in D0
                            	    54: ;
                            	    55: PicoRunCmd:
02:000016E0 13C000FF803D    	    56:         MOVE.B  D0,RUN_CMD
02:000016E6 4E75            	    57:         RTS
                            	    58: 
                            	    59: 
                            	    60: ;;;;;;;;;;;;;;;;;;;;;;;;;;;;;;;;;;;;;;;;;;;;;;;;;;;;;;;;;;;;;;;;;;;;;;;;;;;;;;;
                            	    61: ; Cursor go home
                            	    62: ; 
                            	    63: PicoGoHome:
02:000016E8 103C00A1        	    64:         MOVE.B  #CMD_GO_HOME,D0
02:000016EC 13C000FF803D    	    65:         MOVE.B  D0,RUN_CMD
02:000016F2 4E75            	    66:         RTS
                            	    67: 
                            	    68: ;;;;;;;;;;;;;;;;;;;;;;;;;;;;;;;;;;;;;;;;;;;;;;;;;;;;;;;;;;;;;;;;;;;;;;;;;;;;;;;
                            	    69: ; Set cursor position
                            	    70: ; Detroy:
                            	    71: ; Receive X in D0 high
                            	    72: ; Receive Y in D0 low
                            	    73: PicoSetCursor:
02:000016F4 3200            	    74:         MOVE.W D0,D1
02:000016F6 4840            	    75:         SWAP    D0
02:000016F8 2F09            	    76:         MOVE.L A1,-(SP)
02:000016FA 13C000FF802F    	    77:         MOVE.B  D0,REG_X_LOW
02:00001700 4E71            	    78:         NOP
02:00001702 4E71            	    79:         NOP
02:00001704 4E71            	    80:         NOP
02:00001706 4E71            	    81:         NOP
02:00001708 4E71            	    82:         NOP
02:0000170A E048            	    83:         LSR.W   #8,D0             ; Desloca o byte alto para a posição baixa em D0
02:0000170C 13C000FF802D    	    84:         MOVE.B  D0,REG_X_HIGH
02:00001712 4E71            	    85:         NOP
02:00001714 4E71            	    86:         NOP
02:00001716 4E71            	    87:         NOP
02:00001718 4E71            	    88:         NOP
02:0000171A 4E71            	    89:         NOP
02:0000171C 13C100FF8033    	    90:         MOVE.B  D1,REG_Y_LOW
02:00001722 4E71            	    91:         NOP
02:00001724 4E71            	    92:         NOP
02:00001726 4E71            	    93:         NOP
02:00001728 4E71            	    94:         NOP
02:0000172A 4E71            	    95:         NOP
02:0000172C E049            	    96:         LSR.W   #8,D1             ; Desloca o byte alto para a posição baixa em D0
02:0000172E 13C100FF8031    	    97:         MOVE.B  D1,REG_Y_HIGH
02:00001734 4E71            	    98:         NOP
02:00001736 4E71            	    99:         NOP
02:00001738 4E71            	   100:         NOP
02:0000173A 4E71            	   101:         NOP
02:0000173C 4E71            	   102:         NOP
02:0000173E 43F900FF803D    	   103:         LEA     RUN_CMD,A1    
02:00001744 103C00A3        	   104:         MOVE.B  #CMD_SET_CUR_POS,D0
02:00001748 1280            	   105:         MOVE.B  D0,(A1);
02:0000174A 4E71            	   106:         NOP
02:0000174C 4E71            	   107:         NOP
02:0000174E 4E71            	   108:         NOP
02:00001750 4E71            	   109:         NOP
02:00001752 4E71            	   110:         NOP
02:00001754 225F            	   111:         MOVE.L (SP)+,A1
02:00001756 4E75            	   112:         RTS
                            	   113: 
                            	   114: ;;;;;;;;;;;;;;;;;;;;;;;;;;;;;;;;;;;;;;;;;;;;;;;;;;;;;;;;;;;;;;;;;;;;;;;;;;;;;;;
                            	   115: ; Clear screen
                            	   116: ; Destroy: A1 
                            	   117: ; Command in D0
                            	   118: PicoClearScreen:
02:00001758 2F09            	   119:         MOVE.L A1,-(SP)
02:0000175A 43F900FF803D    	   120:         LEA     RUN_CMD,A1    
02:00001760 103C00A4        	   121:         MOVE.B  #CMD_CLEAR_SCREEN,D0
02:00001764 1280            	   122:         MOVE.B  D0,(A1);
02:00001766 225F            	   123:         MOVE.L (SP)+,A1
02:00001768 4E75            	   124:         RTS
                            	   125: 
                            	   126: ;;;;;;;;;;;;;;;;;;;;;;;;;;;;;;;;;;;;;;;;;;;;;;;;;;;;;;;;;;;;;;;;;;;;;;;;;;;;;;;
                            	   127: ; Write char in picoVGA
                            	   128: ; Destroy: A1,D1
                            	   129: PicoWriteChar:
02:0000176A 2F09            	   130:         MOVE.L  A1,-(SP)
02:0000176C 2F01            	   131:         MOVE.L  D1,-(SP)
02:0000176E 43F900FF8001    	   132:         LEA     WRITE_SCREEN,A1
02:00001774 1280            	   133:         MOVE.B  D0,(A1)     ; Escreve no endereço do PicoVGA (LDS ativo)
02:00001776 723F            	   134:         MOVE.L  #$3F,D1    ; Contador para o delay (ajuste se precisar de mais)
                            	   135: .DELAY00:
02:00001778 5381            	   136:         SUBQ.L  #1,D1       ; Subtrai 1 de D1 (4 ciclos)
02:0000177A 66FC            	   137:         BNE.S   .DELAY00    ; Pula se não for zero (10 ciclos se pular, 8 se não)
02:0000177C 221F            	   138:         MOVE.L (SP)+,D1
02:0000177E 225F            	   139:         MOVE.L (SP)+,A1
02:00001780 4E75            	   140:         RTS
                            	   141: ;last change
                            	   142: ;;;;;;;;;;;;;;;;;;;;;;;;;;;;;;;;;;;;;;;;;;;;;;;;;;;;;;;;;;;;;;;;;;;;;;;;;;;;;;;
                            	   143: ; Imprime string terminada em ZERO
                            	   144: ; Destroy: A0 = String's address
                            	   145: ;
                            	   146: PicoPrintString:
02:00001782 1018            	   147:         MOVE.B  (A0)+,D0                ; Pega caractere e avança ponteiro
02:00001784 6706            	   148:         BEQ.S   .Done                   ; Se for zero, termina
02:00001786 4EB813B6        	   149:         JSR     WriteConout           ; Chama sua função gloriosa!
02:0000178A 60F6            	   150:         BRA.S   PicoPrintString         ; Loop para o próximo
                            	   151: .Done:
02:0000178C 4E75            	   152:         RTS
                            	   153: 
                            	   154: ;;;;;;;;;;;;;;;;;;;;;;;;;;;;;;;;;;;;;;;;;;;;;;;;;;;;;;;;;;;;;;;;;;;;;;;;;;;;;;;
                            	   155: ; PrintHexAddress - Imprime endereço de 32 bits
                            	   156: ; Entrada: D0 = endereço
                            	   157: ;
                            	   158: PicoPrintHexAddress:
02:0000178E 4840            	   159:         SWAP    D0                ; Imprime parte alta primeiro
02:00001790 4EB81796        	   160:         JSR     .PrintWordHex
02:00001794 4840            	   161:         SWAP    D0                ; Parte baixa
                            	   162: .PrintWordHex:
02:00001796 E158            	   163:         ROL.W   #8,D0             ; Byte mais significativo primeiro
02:00001798 4EB8179E        	   164:         JSR     PicoPrintByteHex
02:0000179C E058            	   165:         ROR.W   #8,D0             ; Byte menos significativo
                            	   166: PicoPrintByteHex:
02:0000179E 1F00            	   167:         MOVE.B  D0,-(SP)          ; Salva byte original
02:000017A0 E808            	   168:         LSR.B   #4,D0             ; Nibble alto
02:000017A2 6106            	   169:         BSR     .PrintNibble
02:000017A4 101F            	   170:         MOVE.B  (SP)+,D0          ; Recupera byte
02:000017A6 0200000F        	   171:         ANDI.B  #$0F,D0           ; Nibble baixo
                            	   172: .PrintNibble:
02:000017AA B03C0009        	   173:         CMP.B   #9,D0
02:000017AE 6302            	   174:         BLS     .Decimal
02:000017B0 5E00            	   175:         ADD.B   #7,D0             ; Ajuste para A-F
                            	   176: .Decimal:
02:000017B2 D03C0030        	   177:         ADD.B   #'0',D0
02:000017B6 4EF8176A        	   178:         JMP     PicoWriteChar    ; Usa JMP para tail call optimization
                            	   179: 
                            	   180: 

Source: "vbug2-0.asm"
                            	   465:         INCLUDE "drv_keyboard.asm"

Source: "drv_keyboard.asm"
                            	     1: 
                            	     2: ;Como interpretar o Byte 0 (Modificadores)
                            	     3: ;Como o Shift ou Ctrl não geram uma tecla normal, 
                            	     4: ;eles ligam bits específicos no primeiro byte:
                            	     5: ;
                            	     6: ;Bit 0: Control Esquerdo (Left Ctrl)
                            	     7: ;
                            	     8: ;Bit 1: Shift Esquerdo (Left Shift)
                            	     9: ;
                            	    10: ;Bit 2: Alt Esquerdo (Left Alt)
                            	    11: ;
                            	    12: ;Bit 3: GUI Esquerda (Tecla Windows/Command)
                            	    13: ;
                            	    14: ;Bit 4: Control Direito (Right Ctrl)
                            	    15: ;
                            	    16: ;Bit 5: Shift Direito (Right Shift)
                            	    17: ;
                            	    18: ;Se o usuário pressionar Shift + A, o Byte 0 será 
                            	    19: ;0x02 (bit 1 ligado) e o Byte 2 será 0x04 (código 
                            	    20: ;da letra A).
                            	    21: ;Exemplos de USB Scan Codes (Byte 2)
                            	    22: ;Diferente do PS/2 onde a tecla 'A' costuma ser 0x1C, 
                            	    23: ;no padrão USB HID os códigos começam do zero de 
                            	    24: ;forma mais sequencial:
                            	    25: ;0x00: Nenhuma tecla pressionada
                            	    26: ;0x04 a 0x1D: Letras A a Z (em ordem: A=0x04, B=0x05, C=0x06...)
                            	    27: ;0x1E a 0x27: Números 1 a 0 (1=0x1E, 2=0x1F... 9=0x26, 0=0x27)
                            	    28: ;0x28: Enter
                            	    29: ;0x29: ESC
                            	    30: ;0x2A: Backspace
                            	    31: ;0x2B: Tab
                            	    32: ;0x2C: Espaço
                            	    33: ;0x4F: Seta Direita
                            	    34: ;0x50: Seta Esquerda
                            	    35: 
                            	    36: ; =============================================================================
                            	    37: ; DRIVER DE LEITURA CH9350 PARA MOTOROLA 68000
                            	    38: ; Assembler: vasm68kmot (Sintaxe Motorola)
                            	    39: ; =============================================================================
                            	    40: 
                            	    41: ; --- Constantes do Protocolo CH9350 ---
                            	    42: CH_HEAD1    EQU     $57             ; Primeiro byte de sincronismo
                            	    43: CH_HEAD2    EQU     $AB             ; Segundo byte de sincronismo
                            	    44: 
                            	    45: ; -----------------------------------------------------------------------------
                            	    46: ; Rotina Principal de Captura de Pacote do CH9350
                            	    47: ; Retorno: 
                            	    48: ;   D0.B = Número de bytes úteis de dados lidos (0 se erro/timeout)
                            	    49: ;   A0   = Ponteiro para o buffer contendo os dados puros do relatório HID
                            	    50: ; -----------------------------------------------------------------------------
                            	    51: ReadPacketKbd:
02:000017BA 48E77040        	    52:             movem.l d1-d3/a1,-(sp)    ; Preserva registradores
                            	    53: 
                            	    54: .WaitHead1:
02:000017BE 6100FECA        	    55:             bsr     UartbReadChar     ; Aguarda e lê um byte
02:000017C2 B03C0057        	    56:             cmp.b   #CH_HEAD1,d0      ; É o primeiro byte do cabeçalho?
02:000017C6 66F6            	    57:             bne     .WaitHead1        ; Se não, continua procurando
                            	    58: 
                            	    59: .CheckHead2:
02:000017C8 6100FEC0        	    60:             bsr     UartbReadChar     ; Lê o próximo byte
02:000017CC B03C00AB        	    61:             cmp.b   #CH_HEAD2,d0      ; É o segundo byte de sincronismo?
02:000017D0 66EC            	    62:             bne     .WaitHead1        ; Se falhar, reinicia a busca do cabeçalho
                            	    63: 
                            	    64:             ; Cabeçalho alinhado! Passando para os bytes de controle
02:000017D2 6100FEB6        	    65:             bsr     UartbReadChar     ; Lê Byte 2 (Address/Type)
                            	    66:             
02:000017D6 6100FEB2        	    67:             bsr     UartbReadChar     ; Lê Byte 3 (Command)
02:000017DA 1400            	    68:             move.b  d0,d2             ; Guarda o comando em D2 para validação posterior
                            	    69: 
02:000017DC 6100FEAC        	    70:             bsr     UartbReadChar     ; Lê Byte 4 (Length - Tamanho dos dados)
02:000017E0 1200            	    71:             move.b  d0,d1             ; D1 = Contador de bytes do payload HID
02:000017E2 1600            	    72:             move.b  d0,d3             ; Salva tamanho original para retorno em D0
02:000017E4 6710            	    73:             beq     .PacketDone       ; Se tamanho for 0, encerra
                            	    74: 
                            	    75:             ; Prepara ponteiro para receber os dados úteis
02:000017E6 43F900080A2A    	    76:             lea     chPayloadBuffer,a1
                            	    77: 
                            	    78: .ReadPayload:
02:000017EC 6100FE9C        	    79:             bsr     UartbReadChar     ; Lê byte de dados do teclado/mouse
02:000017F0 12C0            	    80:             move.b  d0,(a1)+          ; Salva no buffer
02:000017F2 51C9FFF8        	    81:             dbra    d1,.ReadPayload   ; Decrementa e repete até ler todo o pacote
                            	    82: 
                            	    83: .PacketDone:
02:000017F6 1003            	    84:             move.b  d3,d0             ; Retorna quantidade de bytes lidos em D0
02:000017F8 41F900080A2A    	    85:             lea     chPayloadBuffer,a0 ; Retorna o endereço do buffer em A0
                            	    86:             
02:000017FE 4CDF020E        	    87:             movem.l (sp)+,d1-d3/a1    ; Restaura registradores
02:00001802 4E75            	    88:             rts
                            	    89: 
                            	    90: ; -----------------------------------------------------------------------------
                            	    91: ; Rotina: DecodeToAscii
                            	    92: ; Entrada:
                            	    93: ;   D0.B = Scan Code puro do USB HID (obtido do Byte 2 do pacote)
                            	    94: ;   D1.B = Byte de Modificadores (obtido do Byte 0 do pacote)
                            	    95: ; Saída:
                            	    96: ;   D0.B = Caractere ASCII correspondente, ou $00 se não for mapeável/solto
                            	    97: ; -----------------------------------------------------------------------------
                            	    98: DecodeToAscii:
02:00001804 2F08            	    99:             move.l  a0,-(sp)          ; Preserva A0
                            	   100: 
                            	   101:             ; 1. Verifica se há tecla pressionada
02:00001806 4A00            	   102:             tst.b   d0                ; Código $00 significa nenhuma tecla
02:00001808 6752            	   103:             beq     .NoChar
                            	   104: 
                            	   105:             ; 2. Verifica se o código está dentro do limite da tabela principal
02:0000180A B03C0004        	   106:             cmp.b   #SCAN_START,d0
02:0000180E 6532            	   107:             blo     .CheckSpecial     ; Menor que $04? Pode ser tecla especial fora da tabela
02:00001810 B03C0038        	   108:             cmp.b   #SCAN_END,d0
02:00001814 622C            	   109:             bhi     .CheckSpecial     ; Maior que $38? Trata separadamente
                            	   110: 
                            	   111:             ; 3. Calcula o deslocamento (Índice = ScanCode - SCAN_START)
02:00001816 5900            	   112:             sub.b   #SCAN_START,d0
02:00001818 C0BC000000FF    	   113:             and.l   #$000000FF,d0     ; Garante extensão limpa para Word/Long
                            	   114: 
                            	   115:             ; 4. Determina qual tabela usar baseado no Shift (Bits 1 e 5 do Modificador)
02:0000181E 08010001        	   116:             btst    #1,d1             ; Verifica Left Shift
02:00001822 6612            	   117:             bne     .UseShiftTable
02:00001824 08010005        	   118:             btst    #5,d1             ; Verifica Right Shift
02:00001828 660C            	   119:             bne     .UseShiftTable
                            	   120: 
                            	   121: .UseNormalTable:
02:0000182A 41F900000000    	   122:             lea     ASCII_Table_Normal,a0
02:00001830 10300800        	   123:             move.b  (a0,d0.l),d0      ; Carrega o caractere correspondente
02:00001834 6028            	   124:             bra     .Done
                            	   125: 
                            	   126: .UseShiftTable:
02:00001836 41F900000038    	   127:             lea     ASCII_Table_Shift,a0
02:0000183C 10300800        	   128:             move.b  (a0,d0.l),d0      ; Carrega o caractere com Shift aplicado
02:00001840 601C            	   129:             bra     .Done
                            	   130: ; -----------------------------------------------------------------------------
                            	   131: ; Tratamento de Teclas fora da faixa contínua alfabética/numérica
                            	   132: ; -----------------------------------------------------------------------------
                            	   133: .CheckSpecial:
                            	   134:             ; O Keypad numérico e teclas como CapsLock e F1-F12 ficam aqui.
                            	   135:             ; Exemplo rápido: Mapear teclas do teclado numérico comum ou setas
02:00001842 B03C004F        	   136:             cmp.b   #$4F,d0           ; Scan code $4F = Seta Direita
02:00001846 6708            	   137:             beq     .IsArrowRight
02:00001848 B03C0050        	   138:             cmp.b   #$50,d0           ; Scan code $50 = Seta Esquerda
02:0000184C 6708            	   139:             beq     .IsArrowLeft
                            	   140:             
                            	   141:             ; Se não mapeado, retorna nulo
02:0000184E 600C            	   142:             bra     .NoChar
                            	   143: 
                            	   144: .IsArrowRight:
02:00001850 103C0006        	   145:             move.b  #$06,d0           ; Retorna código ASCII de controle ACK ou customizado
02:00001854 6008            	   146:             bra     .Done
                            	   147: .IsArrowLeft:
02:00001856 103C0015        	   148:             move.b  #$15,d0           ; Retorna código customizado
02:0000185A 6002            	   149:             bra     .Done
                            	   150: 
                            	   151: .NoChar:
02:0000185C 7000            	   152:             moveq   #0,d0             ; Retorna $00 se não for uma tecla válida de texto
                            	   153: .Done:
02:0000185E 205F            	   154:             move.l  (sp)+,a0          ; Restaura A0
02:00001860 4E75            	   155:             rts
                            	   156: 
                            	   157: ; -----------------------------------------------------------------------------
                            	   158: ; Rotina: DumpPayloadHex
                            	   159: ; Objetivo: Lê sequencialmente os 16 bytes de CH_PayloadBuffer e os imprime
                            	   160: ;           em formato hexadecimal usando a rotina externa PicoPrintByteHex.
                            	   161: ; Passagem: PicoPrintByteHex espera o dado bruto no byte menos significativo de D0.
                            	   162: ; -----------------------------------------------------------------------------
                            	   163: DumpPayloadHex:
02:00001862 48E7C080        	   164:             movem.l d0-d1/a0,-(sp)    ; Preserva registradores que serão usados
                            	   165: 
02:00001866 41F900080A2A    	   166:             lea     chPayloadBuffer,a0 ; Aponta A0 para o início do buffer de 16 bytes
02:0000186C 720F            	   167:             moveq   #16-1,d1          ; D1 = 15 (Contador para a instrução dbra, que para em -1)
                            	   168: 
                            	   169: .LoopDump:
02:0000186E 7000            	   170:             moveq   #0,d0             ; Limpa D0 por segurança
02:00001870 1018            	   171:             move.b  (a0)+,d0          ; Copia o byte atual para D0 e avança o ponteiro A0
                            	   172: 
                            	   173:             ; -----------------------------------------------------------------
                            	   174:             ; Aqui chamamos a sua rotina externa. 
                            	   175:             ; Ela deve ler o byte de D0 e jogá-lo para a tela/serial.
                            	   176:             ; -----------------------------------------------------------------
02:00001872 6100FF2A        	   177:             bsr     PicoPrintByteHex  
                            	   178: 
02:00001876 51C9FFF6        	   179:             dbra    d1,.LoopDump      ; Decrementa D1. Se não for -1, pula para .LoopDump
                            	   180: 
02:0000187A 4CDF0103        	   181:             movem.l (sp)+,d0-d1/a0    ; Restaura os registradores originais
02:0000187E 4EB813AC        	   182:             JSR     ReadConin
02:00001882 4E75            	   183:             rts            

Source: "vbug2-0.asm"
                            	   466:         INCLUDE "cmd_mem_dump.asm"

Source: "cmd_mem_dump.asm"
                            	     1: ; ----------------------------------------------------------------------
                            	     2: ; MemDump - Imprime dump de memória formatado
                            	     3: ; Entrada:
                            	     4: ;   A0 = Endereço inicial (ex: $80000)
                            	     5: ;   D0 = Quantidade de bytes (ex: 256)
                            	     6: ; ----------------------------------------------------------------------
                            	     7: MemDump:
02:00001884 4EB81758        	     8:         JSR     PicoClearScreen
                            	     9: 
02:00001888 41F900000000    	    10:         LEA     MsgDumpHeader,A0
02:0000188E 4EB813C0        	    11:         JSR     WriteStringConout
02:00001892 207900080424    	    12:         MOVE.L  (addressInHex),A0
02:00001898 2008            	    13:         MOVE.L  A0,D0
02:0000189A 4EB81B6E        	    14:         JSR     PrintHexAddress
02:0000189E 4EB811C8        	    15:         JSR     NewLine
                            	    16: 
02:000018A2 41F900000018    	    17:         LEA     MsgDumpHeader1,A0
02:000018A8 4EB813C0        	    18:         JSR     WriteStringConout
                            	    19: 
02:000018AC 207900080424    	    20:         MOVE.L  (addressInHex),A0
                            	    21:         ; Calcula endereço final
                            	    22: 
                            	    23: DUMPLOOPMASTER:
02:000018B2 303C0000        	    24:         MOVE.W  #$0,D0
02:000018B6 4840            	    25:         SWAP    D0
02:000018B8 303C0005        	    26:         MOVE.W  #$5,D0
02:000018BC 4EB816F4        	    27:         JSR     PicoSetCursor
                            	    28:         
02:000018C0 7200            	    29:         CLR.L   D1
02:000018C2 2208            	    30:         MOVE.L  A0,D1
02:000018C4 0681000000FF    	    31:         ADDI.L  #$000000FF,D1             ; D1 = endereço final
                            	    32: 
                            	    33: DumpLoop:
                            	    34:         ; Nova linha a cada 16 bytes
02:000018CA 2008            	    35:         MOVE.L  A0,D0
02:000018CC 02800000000F    	    36:         ANDI.L  #$0000000F,D0     ; Verifica se é início de linha
02:000018D2 6616            	    37:         BNE     NoNewLine
                            	    38: 
                            	    39:         ; Imprime endereço
02:000018D4 2008            	    40:         MOVE.L  A0,D0
02:000018D6 4EB81B6E        	    41:         JSR     PrintHexAddress    ; Imprime 8 dígitos hex
                            	    42: 
02:000018DA 103C003A        	    43:         MOVE.B  #':',D0
02:000018DE 4EB813B6        	    44:         JSR     WriteConout
02:000018E2 103C0020        	    45:         MOVE.B  #' ',D0
02:000018E6 4EB813B6        	    46:         JSR     WriteConout
                            	    47: 
                            	    48: NoNewLine:
                            	    49:         ; Imprime byte em hex
02:000018EA 1018            	    50:         MOVE.B  (A0)+,D0
02:000018EC 4EB81B92        	    51:         JSR     PrintByteHex
                            	    52: 
02:000018F0 103C0020        	    53:         MOVE.B  #' ',D0
02:000018F4 4EB813B6        	    54:         JSR     WriteConout
                            	    55: 
                            	    56:         ; Verifica fim da linha (16 bytes)
02:000018F8 2008            	    57:         MOVE.L  A0,D0
02:000018FA 02800000000F    	    58:         ANDI.L  #$0000000F,D0
02:00001900 664E            	    59:         BNE     NoEndLine
                            	    60: 
                            	    61:         ; Imprime caracteres ASCII
02:00001902 103C0020        	    62:         MOVE.B  #' ',D0
02:00001906 4EB813B6        	    63:         JSR     WriteConout
02:0000190A 103C007C        	    64:         MOVE.B  #'|',D0
02:0000190E 4EB813B6        	    65:         JSR     WriteConout
                            	    66: 
02:00001912 43E8FFF0        	    67:         LEA     -16(A0),A1        ; Volta ao início da linha
02:00001916 740F            	    68:         MOVEQ   #15,D2            ; 16 caracteres
                            	    69: 
                            	    70: AsciiLoop:
02:00001918 1019            	    71:         MOVE.B  (A1)+,D0
02:0000191A B03C0020        	    72:         CMP.B   #32,D0            ; Verifica se é imprimível
02:0000191E 6D0C            	    73:         BLT     NonPrintable
02:00001920 B03C007E        	    74:         CMP.B   #$7E,D0
02:00001924 6E06            	    75:         BGT     NonPrintable
                            	    76: 
02:00001926 4EB813B6        	    77:         JSR     WriteConout
02:0000192A 6008            	    78:         BRA     NextAscii
                            	    79: 
                            	    80: NonPrintable:
02:0000192C 103C002E        	    81:         MOVE.B  #'.',D0           ; Substitui não imprimíveis
02:00001930 4EB813B6        	    82:         JSR     WriteConout
                            	    83: 
                            	    84: NextAscii:
02:00001934 51CAFFE2        	    85:         DBRA    D2,AsciiLoop
                            	    86: 
02:00001938 103C007C        	    87:         MOVE.B  #'|',D0
02:0000193C 4EB813B6        	    88:         JSR     WriteConout
02:00001940 103C000D        	    89:         MOVE.B  #13,D0            ; CR
02:00001944 4EB813B6        	    90:         JSR     WriteConout
02:00001948 103C000A        	    91:         MOVE.B  #10,D0            ; LF
02:0000194C 4EB813B6        	    92:         JSR     WriteConout
                            	    93: 
                            	    94: NoEndLine:
                            	    95:         ; Verifica fim do dump
02:00001950 B1C1            	    96:         CMP.L   D1,A0
02:00001952 6300FF76        	    97:         BLS     DumpLoop
                            	    98: 
02:00001956 4EB8197E        	    99:         JSR     PrintAx
02:0000195A 4EB819E2        	   100:         JSR     PrintDx
                            	   101: 
02:0000195E 2F08            	   102:         MOVE.L  A0,-(SP)          ; Salva endereço atual
02:00001960 41F90000037F    	   103:         LEA     MsgHitAnyKey,A0
02:00001966 4EB813C0        	   104:         JSR     WriteStringConout
02:0000196A 4EB813AC        	   105:         JSR     ReadConin
02:0000196E B03C001B        	   106:         CMP.B   #$1B,D0
02:00001972 6706            	   107:         BEQ     .fim
                            	   108: 
02:00001974 205F            	   109:         MOVE.L  (SP)+,A0          ; Recupera endereço atual
02:00001976 6000FF3A        	   110:         BRA     DUMPLOOPMASTER
                            	   111: .fim
02:0000197A 205F            	   112:         MOVE.L  (SP)+,A0          ; Recupera endereço atual
02:0000197C 4E75            	   113:         RTS
                            	   114: 
                            	   115: 
                            	   116: PrintAx:
02:0000197E 2F08            	   117:         MOVE.L  A0,-(SP)          ; Salva endereço atual
                            	   118: 
02:00001980 41F900000453    	   119:         LEA     MsgA0,A0
02:00001986 4EB813C0        	   120:         JSR     WriteStringConout
02:0000198A 205F            	   121:         MOVE.L  (SP)+,A0          ; Recupera endereço atual
02:0000198C 2F08            	   122:         MOVE.L  A0,-(SP)          ; Salva endereço atual
                            	   123: 
02:0000198E 2008            	   124:         MOVE.L  A0,D0
02:00001990 4EB81B6E        	   125:         JSR     PrintHexAddress    ; Imprime 8 dígitos hex
                            	   126: 
                            	   127: 
02:00001994 41F90000045A    	   128:         LEA     MsgA1,A0
02:0000199A 4EB813C0        	   129:         JSR     WriteStringConout
02:0000199E 2009            	   130:         MOVE.L  A1,D0
02:000019A0 4EB81B6E        	   131:         JSR     PrintHexAddress    ; Imprime 8 dígitos hex
                            	   132: 
02:000019A4 41F900000462    	   133:         LEA     MsgA2,A0
02:000019AA 4EB813C0        	   134:         JSR     WriteStringConout
02:000019AE 200A            	   135:         MOVE.L  A2,D0
02:000019B0 4EB81B6E        	   136:         JSR     PrintHexAddress    ; Imprime 8 dígitos hex
                            	   137: 
02:000019B4 41F90000046A    	   138:         LEA     MsgA3,A0
02:000019BA 4EB813C0        	   139:         JSR     WriteStringConout
02:000019BE 200B            	   140:         MOVE.L  A3,D0
02:000019C0 4EB81B6E        	   141:         JSR     PrintHexAddress    ; Imprime 8 dígitos hex
                            	   142: 
02:000019C4 41F900000472    	   143:         LEA     MsgA4,A0
02:000019CA 4EB813C0        	   144:         JSR     WriteStringConout
02:000019CE 200C            	   145:         MOVE.L  A4,D0
02:000019D0 4EB81B6E        	   146:         JSR     PrintHexAddress    ; Imprime 8 dígitos hex
                            	   147: 
                            	   148: 
02:000019D4 41F900000450    	   149:         LEA     MsgNewLine,A0
02:000019DA 4EB813C0        	   150:         JSR     WriteStringConout
                            	   151: 
02:000019DE 205F            	   152:         MOVE.L  (SP)+,A0          ; Recupera endereço atual
                            	   153: 
02:000019E0 4E75            	   154:         RTS
                            	   155: 
                            	   156: PrintDx:
02:000019E2 2F08            	   157:         MOVE.L  A0,-(SP)          ; Salva endereço atual
                            	   158: 
02:000019E4 41F90000047A    	   159:         LEA     MsgD0,A0
02:000019EA 4EB813C0        	   160:         JSR     WriteStringConout
02:000019EE 4EB81B6E        	   161:         JSR     PrintHexAddress    ; Imprime 8 dígitos hex
                            	   162: 
02:000019F2 41F900000481    	   163:         LEA     MsgD1,A0
02:000019F8 4EB813C0        	   164:         JSR     WriteStringConout
02:000019FC 2001            	   165:         MOVE.L  D1,D0
02:000019FE 4EB81B6E        	   166:         JSR     PrintHexAddress    ; Imprime 8 dígitos hex
                            	   167: 
02:00001A02 41F900000489    	   168:         LEA     MsgD2,A0
02:00001A08 4EB813C0        	   169:         JSR     WriteStringConout
02:00001A0C 2002            	   170:         MOVE.L  D2,D0
02:00001A0E 4EB81B6E        	   171:         JSR     PrintHexAddress    ; Imprime 8 dígitos hex
                            	   172: 
02:00001A12 41F900000491    	   173:         LEA     MsgD3,A0
02:00001A18 4EB813C0        	   174:         JSR     WriteStringConout
02:00001A1C 2003            	   175:         MOVE.L  D3,D0
02:00001A1E 4EB81B6E        	   176:         JSR     PrintHexAddress    ; Imprime 8 dígitos hex
                            	   177: 
02:00001A22 41F900000499    	   178:         LEA     MsgD4,A0
02:00001A28 4EB813C0        	   179:         JSR     WriteStringConout
02:00001A2C 2004            	   180:         MOVE.L  D4,D0
02:00001A2E 4EB81B6E        	   181:         JSR     PrintHexAddress    ; Imprime 8 dígitos hex
                            	   182: 
02:00001A32 41F900000450    	   183:         LEA     MsgNewLine,A0
02:00001A38 4EB813C0        	   184:         JSR     WriteStringConout
                            	   185:         
02:00001A3C 205F            	   186:         MOVE.L  (SP)+,A0          ; Recupera endereço atual
                            	   187: 
02:00001A3E 4E75            	   188:         RTS                

Source: "vbug2-0.asm"
                            	   467:         INCLUDE "cmd_xmodem.asm"

Source: "cmd_xmodem.asm"
                            	     1: 
                            	     2: ;=== Uart receiver ================= CONSTANTES =================
                            	     3: SOH         EQU     $01        ; Start Of Header
                            	     4: EOT         EQU     $04        ; End Of Transmission
                            	     5: ACK         EQU     $06        ; Acknowledge
                            	     6: NACK         EQU     $15        ; Negative Acknowledge
                            	     7: CAN         EQU     $18        ; Cancel
                            	     8: 
                            	     9: XmodemRec:
02:00001A40 7A00            	    10:         clr.l     D5
02:00001A42 4EB81502        	    11:         JSR     UartFlush
02:00001A46 103C0015        	    12:         MOVE.B  #NACK,D0
02:00001A4A 4EB814D2        	    13:         JSR     UartWriteChar
02:00001A4E 103C000D        	    14:         MOVE.B  #13,D0
02:00001A52 4EB813B6        	    15:         JSR     WriteConout      
02:00001A56 103C000A        	    16:         MOVE.B  #10,D0
02:00001A5A 4EB813B6        	    17:         JSR     WriteConout      
                            	    18: .receivePacote:
02:00001A5E 4EB813AC        	    19:         JSR     ReadConin
02:00001A62 B03C0004        	    20:         CMP.B   #EOT,D0
02:00001A66 6744            	    21:         BEQ     .Transfer_Complete   ; Fim da transmissão          
02:00001A68 4EB81458        	    22:         JSR     PrintByteHexConout      
02:00001A6C 4EB813AC        	    23:         JSR     ReadConin
02:00001A70 4EB81458        	    24:         JSR     PrintByteHexConout      
02:00001A74 4EB813AC        	    25:         JSR     ReadConin
02:00001A78 4EB81458        	    26:         JSR     PrintByteHexConout         
02:00001A7C 323C007F        	    27:         MOVE.W  #$7F,D1
                            	    28: .centoEvinteOito:
02:00001A80 4EB813AC        	    29:         JSR     ReadConin
02:00001A84 DA40            	    30:         add     D0,D5
02:00001A86 4EB81458        	    31:         JSR     PrintByteHexConout      
02:00001A8A 51C9FFF4        	    32:         dbra    d1,.centoEvinteOito
                            	    33:         ;Aguardando check sum
02:00001A8E 4EB813AC        	    34:         JSR     ReadConin
02:00001A92 4EB81458        	    35:         JSR     PrintByteHexConout      
02:00001A96 1005            	    36:         MOVE.B  D5,D0
02:00001A98 4EB81458        	    37:         JSR     PrintByteHexConout      
02:00001A9C 103C0006        	    38:         MOVE.B  #ACK,D0
02:00001AA0 4EB814D2        	    39:         JSR     UartWriteChar 
02:00001AA4 4EB811C8        	    40:         JSR     NewLine                
02:00001AA8 4EF81A5E        	    41:         jmp     .receivePacote
                            	    42: .Transfer_Complete:
                            	    43: 
02:00001AAC 4EB813AC        	    44:         JSR     ReadConin
                            	    45: 
02:00001AB0 4E75            	    46:         RTS ;

Source: "vbug2-0.asm"
                            	   468:         INCLUDE "trap1.asm"

Source: "trap1.asm"
                            	     1: 
                            	     2: MERDA:
02:00001AB2 4D45524441204D45	     3:     DC.B    "MERDA MERDA MERDA MERDA MERDA MERDA MERDA MERDA MERDA MERDA MERDA MERDA MERDA MERDA MERDA MERDA ",13,10,0
02:00001ABA 524441204D455244
02:00001AC2 41204D4552444120
02:00001ACA 4D45524441204D45
02:00001AD2 524441204D455244
02:00001ADA 41204D4552444120
02:00001AE2 4D45524441204D45
02:00001AEA 524441204D455244
02:00001AF2 41204D4552444120
02:00001AFA 4D45524441204D45
02:00001B02 524441204D455244
02:00001B0A 41204D4552444120
02:00001B12 0D
02:00001B13 0A
02:00001B14 00
                            	     4: 
                            	     5:     Align 2
                            	     6: ; -----------------------------------------------------------------------------
                            	     7: ; O SEU CÓDIGO DO TCPBOX68K (Agora rodando na RAM)
                            	     8: ; -----------------------------------------------------------------------------
                            	     9: vbug2_trap1:
02:00001B18 B03C0001        	    10:     CMP.B   #CMD_CCONIN,D0      ; Compara com CCONIN (ler caractere)
02:00001B1C 6714            	    11:     BEQ     trap_cconin         ; Se for 1, vai para leitura
02:00001B1E B03C0002        	    12:     CMP.B   #CMD_CCONOUT,D0     ; Compara com CCONOUT (escrever caractere)
02:00001B22 671E            	    13:     BEQ     trap_cconout        ; Se for 2, vai para escrita
02:00001B24 B03C0003        	    14:     CMP.B   #CMD_CCONOUTSTR,D0  ; Compara com CCONOUT (escrever string)
02:00001B28 6724            	    15:     BEQ     trap_strout         ; Se for 3, vai para escrita
02:00001B2A 4A00            	    16:     CMP.B   #CMD_PTERM0,D0      ; Compara com PTERM0 (terminar)
02:00001B2C 6728            	    17:     BEQ     trap_pterm0         ; Se for 0, vai para terminar
02:00001B2E 70FF            	    18:     MOVE.L  #-1,D0              ; Retorna erro se função não reconhecida
02:00001B30 4E73            	    19:     RTE
                            	    20: 
                            	    21: ; --------------------------------
                            	    22: ; TRAP_CCONIN - Ler caractere do console
                            	    23: ; Saída: D0.L - Caractere lido
                            	    24: ; --------------------------------
                            	    25: trap_cconin:
02:00001B32 247900080418    	    26:     MOVE.L  (cconin),A2
02:00001B38 4E92            	    27:     JSR     (A2)
02:00001B3A 0280000000FF    	    28:     ANDI.L  #$FF,D0       ; Mantém apenas o byte inferior
02:00001B40 4E73            	    29:     RTE                   ; Retorna da exceção
                            	    30: 
                            	    31: ; --------------------------------
                            	    32: ; TRAP_CCONOUT - Escrever caractere no console
                            	    33: ; Entrada: D1.L - Caractere a escrever
                            	    34: ; --------------------------------
                            	    35: trap_cconout:
02:00001B42 1001            	    36:     MOVE.B  D1,D0
02:00001B44 247900080414    	    37:     MOVE.L  (cconout),A2        ; Busca o endereço da rotina física da UART
02:00001B4A 4E92            	    38:     JSR     (A2)
02:00001B4C 4E73            	    39:     RTE      
                            	    40:                 
                            	    41: 
                            	    42: trap_strout:
02:00001B4E 2049            	    43:     MOVE.L  A1,A0
02:00001B50 4EB813C0        	    44:     JSR     WriteStringConout
02:00001B54 4E73            	    45:     RTE
                            	    46: 
                            	    47: 
                            	    48: ; --------------------------------
                            	    49: ; TRAP_PTERM0 - Terminar programa
                            	    50: ; --------------------------------
                            	    51: trap_pterm0:
02:00001B56 303C0000        	    52:     move.w  #0,d0         ; Código de saída 0
02:00001B5A 6102            	    53:     bsr     hardware_exit ; Chama rotina de término
02:00001B5C 4E73            	    54:     RTE     
                            	    55: 
                            	    56: ; --------------------------------
                            	    57: ; hardware_exit - Terminar execução
                            	    58: ; Entrada: D0.W - Código de saída
                            	    59: ; --------------------------------
                            	    60: hardware_exit:
                            	    61:     ; >>> ADAPTE PARA SUA PLACA <<<
                            	    62:     ; Exemplo: parar o processador
                            	    63:     ; stop    #$2700
                            	    64: 
                            	    65:     ; Exemplo simples: loop infinito
02:00001B5E 60FE            	    66:     BRA     hardware_exit
02:00001B60 4E75            	    67:     RTS
                            	    68: 
                            	    69: InitTrap1:
                            	    70:     ; -------------------------------------------------------------------------
                            	    71:     ; COMO INSTALAR NA RAM:
                            	    72:     ; Copiamos o endereço do nosso handler real para a posição $404 da RAM
                            	    73:     ; -------------------------------------------------------------------------
02:00001B62 41F81B18        	    74:     LEA     vbug2_trap1,A0             ; Pega o endereço da nossa rotina na RAM
02:00001B66 23C800080004    	    75:     MOVE.L  A0,($00080004)              ; Grava na posição da TRAP 1 na RAM!
02:00001B6C 4E75            	    76:     RTS
                            	    77:     ; A partir deste momento, qualquer instrução "TRAP #1" vai cair aqui!
                            	    78: 

Source: "vbug2-0.asm"
                            	   469:         INCLUDE "rot_print_hex_num.asm"

Source: "rot_print_hex_num.asm"
                            	     1: 
                            	     2: ; ----------------------------------------------------------------------
                            	     3: ; PrintHexAddress - Imprime endereço de 32 bits
                            	     4: ; Entrada: D0 = endereço
                            	     5: ; ----------------------------------------------------------------------
                            	     6: PrintHexAddress:
02:00001B6E 2F01            	     7:         MOVE.L  D1,-(SP)
02:00001B70 4840            	     8:         SWAP    D0                ; Imprime parte alta primeiro
02:00001B72 4EB81B82        	     9:         JSR     PrintWordHex
02:00001B76 2001            	    10:         MOVE.L  D1,D0
02:00001B78 4840            	    11:         SWAP    D0                ; Parte baixa
02:00001B7A 4EB81B82        	    12:         JSR     PrintWordHex
02:00001B7E 221F            	    13:         MOVE.L (SP)+,D1
02:00001B80 4E75            	    14:         RTS
                            	    15:         
                            	    16: PrintWordHex:
02:00001B82 2200            	    17:         MOVE.L  D0,D1
02:00001B84 E058            	    18:         ROR     #8,D0             ; Byte mais significativo primeiro
02:00001B86 4EB81B92        	    19:         JSR     PrintByteHex
02:00001B8A 2001            	    20:         MOVE.L  D1,D0             ; Byte menos significativo
02:00001B8C 4EB81B92        	    21:         JSR     PrintByteHex
02:00001B90 4E75            	    22:         RTS
                            	    23: 
                            	    24: PrintByteHex:
02:00001B92 1F00            	    25:         MOVE.B  D0,-(SP)          ; Salva byte original
02:00001B94 E808            	    26:         LSR.B   #4,D0             ; Nibble alto
02:00001B96 6106            	    27:         BSR     .PrintNibble
02:00001B98 101F            	    28:         MOVE.B  (SP)+,D0          ; Recupera byte
02:00001B9A 0200000F        	    29:         ANDI.B  #$0F,D0           ; Nibble baixo
                            	    30: .PrintNibble:
02:00001B9E B03C0009        	    31:         CMP.B   #9,D0
02:00001BA2 6302            	    32:         BLS     .Decimal
02:00001BA4 5E00            	    33:         ADD.B   #7,D0             ; Ajuste para A-F
                            	    34: .Decimal:
02:00001BA6 D03C0030        	    35:         ADD.B   #'0',D0
02:00001BAA 4EB813B6        	    36:         JSR     WriteConout    ; Usa JMP para tail call optimization
02:00001BAE 4E75            	    37:         RTS
                            	    38: 

Source: "vbug2-0.asm"
                            	   470: 
                            	   471: 
                            	   472: 
                            	   473:         INCLUDE "section_data.asm"

Source: "section_data.asm"
                            	     1: ; ----------------------------------------------------------------------
                            	     2: ; SECTION data
                            	     3: ;-----------------------------------------------------------------------
                            	     4:     SECTION .rodata
                            	     5:     SECTION .data
                            	     6: 
                            	     7: ; ----------------------------------------------------------------------
                            	     8: ; Strings do Sistema
                            	     9: ; ----------------------------------------------------------------------
                            	    10: MsgDumpHeader:
04:00000000 0D              	    11:     DC.B    13,10," - Memory Dump from :",0
04:00000001 0A
04:00000002 202D204D656D6F72
04:0000000A 792044756D702066
04:00000012 726F6D203A
04:00000017 00
                            	    12: MsgDumpHeader1:
04:00000018 0D              	    13:     DC.B    13,10,"Address   00 01 02 03 04 05 06 07 08 09 0A 0B 0C 0D 0E 0F  ASCII",13,10
04:00000019 0A
04:0000001A 4164647265737320
04:00000022 2020303020303120
04:0000002A 3032203033203034
04:00000032 2030352030362030
04:0000003A 3720303820303920
04:00000042 3041203042203043
04:0000004A 2030442030452030
04:00000052 4620204153434949
04:0000005A 0D
04:0000005B 0A
04:0000005C 2D2D2D2D2D2D2D2D	    14:     DC.B    "--------  -----------------------------------------------  ------------------",13,10,0
04:00000064 20202D2D2D2D2D2D
04:0000006C 2D2D2D2D2D2D2D2D
04:00000074 2D2D2D2D2D2D2D2D
04:0000007C 2D2D2D2D2D2D2D2D
04:00000084 2D2D2D2D2D2D2D2D
04:0000008C 2D2D2D2D2D2D2D2D
04:00000094 2D20202D2D2D2D2D
04:0000009C 2D2D2D2D2D2D2D2D
04:000000A4 2D2D2D2D2D
04:000000A9 0D
04:000000AA 0A
04:000000AB 00
                            	    15: MsgOrionInit:
04:000000AC 0D              	    16:     DC.B    13,10,"PDS317 - copyright (C) pdsilva(pgordao).VBug2.0",13,10
04:000000AD 0A
04:000000AE 504453333137202D
04:000000B6 20636F7079726967
04:000000BE 6874202843292070
04:000000C6 6473696C76612870
04:000000CE 676F7264616F292E
04:000000D6 56427567322E30
04:000000DD 0D
04:000000DE 0A
04:000000DF 4D43363830303020	    17:     DC.B    "MC68000 System Monitor",13,10
04:000000E7 53797374656D204D
04:000000EF 6F6E69746F72
04:000000F5 0D
04:000000F6 0A
                            	    18:     INCLUDE "build_date.inc"

Source: "build_date.inc"
                            	     1: ;From here it is generated and pushed by update_build.sh
                            	     2: BUILD_DATE:
04:000000F7 4275696C642E3A20	     3:       DC.B "Build.: 2026-05-26",13,10
04:000000FF 323032362D30352D
04:00000107 3236
04:00000109 0D
04:0000010A 0A
04:0000010B 53657269616C3A20	     4:       DC.B "Serial: 262057",13,10,0
04:00000113 323632303537
04:00000119 0D
04:0000011A 0A
04:0000011B 00
                            	     5: ;End generated code
                            	     6: 

Source: "section_data.asm"
                            	    19:     INCLUDE "build_counter.inc"

Source: "build_counter.inc"
04:0000011C 436F6D70696C6174	     1:       DC.B "Compilation: #00",0
04:00000124 696F6E3A20233030
04:0000012C 00
                            	     2: 

Source: "section_data.asm"
04:0000012D 2D2D2D2D2D2D2D2D	    20:     DC.B          "-----------------------------------------------",13,10,13,10,0
04:00000135 2D2D2D2D2D2D2D2D
04:0000013D 2D2D2D2D2D2D2D2D
04:00000145 2D2D2D2D2D2D2D2D
04:0000014D 2D2D2D2D2D2D2D2D
04:00000155 2D2D2D2D2D2D2D
04:0000015C 0D
04:0000015D 0A
04:0000015E 0D
04:0000015F 0A
04:00000160 00
                            	    21: MsgMenuText:
04:00000161 4D656E752063686F	    22:     DC.B    "Menu choose an option: ",13,10,13,10
04:00000169 6F736520616E206F
04:00000171 7074696F6E3A20
04:00000178 0D
04:00000179 0A
04:0000017A 0D
04:0000017B 0A
04:0000017C 312E205265616420	    23:     DC.B    "1. Read keyboard",13,10
04:00000184 6B6579626F617264
04:0000018C 0D
04:0000018D 0A
04:0000018E 322E2044756D7020	    24:     DC.B    "2. Dump keyboard buffer",13,10
04:00000196 6B6579626F617264
04:0000019E 20627566666572
04:000001A5 0D
04:000001A6 0A
04:000001A7 342E205465737461	    25:     DC.B    "4. Testa trap #1",13,10
04:000001AF 2074726170202331
04:000001B7 0D
04:000001B8 0A
04:000001B9 352E2052756E2050	    26:     DC.B    "5. Run Program",13,10
04:000001C1 726F6772616D
04:000001C7 0D
04:000001C8 0A
04:000001C9 372E204D656D6F72	    27:     DC.B    "7. Memory dump from address buffer",13,10
04:000001D1 792064756D702066
04:000001D9 726F6D2061646472
04:000001E1 6573732062756666
04:000001E9 6572
04:000001EB 0D
04:000001EC 0A
04:000001ED 382E205265616420	    28:     DC.B    "8. Read hexa value and put in address buffer",13,10
04:000001F5 686578612076616C
04:000001FD 756520616E642070
04:00000205 757420696E206164
04:0000020D 6472657373206275
04:00000215 66666572
04:00000219 0D
04:0000021A 0A
04:0000021B 392E2046726F6D20	    29:     DC.B    "9. From screen to buffer E from buffer to screen",13,10
04:00000223 73637265656E2074
04:0000022B 6F20627566666572
04:00000233 20452066726F6D20
04:0000023B 6275666665722074
04:00000243 6F2073637265656E
04:0000024B 0D
04:0000024C 0A
04:0000024D 3E20            	    30:     DC.B    "> ",0
04:0000024F 00
                            	    31: MsgOutOfRange:
04:00000250 0D              	    32:     DC.B    13,10,"Invalid address range!",13,10,0
04:00000251 0A
04:00000252 496E76616C696420
04:0000025A 6164647265737320
04:00000262 72616E676521
04:00000268 0D
04:00000269 0A
04:0000026A 00
                            	    33: MsgLoadDoneMsg:
04:0000026B 0D              	    34:     DC.B    13,10,"Program loaded successfully!",13,10,0
04:0000026C 0A
04:0000026D 50726F6772616D20
04:00000275 6C6F616465642073
04:0000027D 7563636573736675
04:00000285 6C6C7921
04:00000289 0D
04:0000028A 0A
04:0000028B 00
                            	    35: MsgWritePrompt:
04:0000028C 0D              	    36:     DC.B    13,10,"Write Address: ",0
04:0000028D 0A
04:0000028E 5772697465204164
04:00000296 64726573733A20
04:0000029D 00
                            	    37: MsgWriteDoneMsg:
04:0000029E 0D              	    38:     DC.B    13,10,"Data written to memory!",13,10,0
04:0000029F 0A
04:000002A0 4461746120777269
04:000002A8 7474656E20746F20
04:000002B0 6D656D6F727921
04:000002B7 0D
04:000002B8 0A
04:000002B9 00
                            	    39: MsgRunPrompt:
04:000002BA 0D              	    40:     DC.B    13,10,"Running program...",13,10,0
04:000002BB 0A
04:000002BC 52756E6E696E6720
04:000002C4 70726F6772616D2E
04:000002CC 2E2E
04:000002CE 0D
04:000002CF 0A
04:000002D0 00
                            	    41: MsgNoProgramToRUN:
04:000002D1 4E6F2070726F6772	    42:     DC.B    "No program loaded to run",13,10,0
04:000002D9 616D206C6F616465
04:000002E1 6420746F2072756E
04:000002E9 0D
04:000002EA 0A
04:000002EB 00
                            	    43: MsgPromptNotImplemented:
04:000002EC 4E6F7420496D706C	    44:     DC.B    "Not Implemented!",13,10,0
04:000002F4 656D656E74656421
04:000002FC 0D
04:000002FD 0A
04:000002FE 00
                            	    45: MsgBufferEmpty:
04:000002FF 4F6F6F7073204275	    46:     DC.B    "Ooops Buffer Empty!",13,10,0
04:00000307 6666657220456D70
04:0000030F 747921
04:00000312 0D
04:00000313 0A
04:00000314 00
                            	    47: MsgTestHexInput:
04:00000315 0D              	    48:     DC.B    13,10,"Digite um endereco de no maximo 4bytes 8 caracteres!",13,10
04:00000316 0A
04:00000317 4469676974652075
04:0000031F 6D20656E64657265
04:00000327 636F206465206E6F
04:0000032F 206D6178696D6F20
04:00000337 3462797465732038
04:0000033F 2063617261637465
04:00000347 72657321
04:0000034B 0D
04:0000034C 0A
04:0000034D 6D61697320717565	    49:     DC.B    "mais que isso serao descatados os excedentes...",13,10,0
04:00000355 206973736F207365
04:0000035D 72616F2064657363
04:00000365 617461646F73206F
04:0000036D 7320657863656465
04:00000375 6E7465732E2E2E
04:0000037C 0D
04:0000037D 0A
04:0000037E 00
                            	    50: MsgHitAnyKey:
04:0000037F 0D              	    51:     DC.B    13,10,"Hit any <ENTER> to continue <ESC> to terminate: ",0
04:00000380 0A
04:00000381 48697420616E7920
04:00000389 3C454E5445523E20
04:00000391 746F20636F6E7469
04:00000399 6E7565203C455343
04:000003A1 3E20746F20746572
04:000003A9 6D696E6174653A20
04:000003B1 00
                            	    52: MsgXmodemInit:
04:000003B2 584D4F44454D2052	    53:     DC.B    "XMODEM Receiver Initialized",13,10,0
04:000003BA 6563656976657220
04:000003C2 496E697469616C69
04:000003CA 7A6564
04:000003CD 0D
04:000003CE 0A
04:000003CF 00
                            	    54: MsgXmodemWaitingSoh:
04:000003D0 57616974696E6720	    55:     DC.B    "Waiting for SOH (Start of Header)...",13,10,0
04:000003D8 666F7220534F4820
04:000003E0 285374617274206F
04:000003E8 6620486561646572
04:000003F0 292E2E2E
04:000003F4 0D
04:000003F5 0A
04:000003F6 00
                            	    56: MsgCs:
04:000003F7 436865636B73756D	    57:     DC.B    "Checksum ROM.: ",0
04:000003FF 20524F4D2E3A20
04:00000406 00
                            	    58: MsgCscalc:
04:00000407 202D20436865636B	    59:     DC.B    " - Checksum CAL.: ",0
04:0000040F 73756D2043414C2E
04:00000417 3A20
04:00000419 00
                            	    60: MsgDefaultHandler:
04:0000041A 2044656661756C74	    61:     DC.B    " Default handler wrote UART ",13,10,0
04:00000422 2068616E646C6572
04:0000042A 2077726F74652055
04:00000432 41525420
04:00000436 0D
04:00000437 0A
04:00000438 00
                            	    62: MsgViaTrap1:
04:00000439 4D656E736167656D	    63:     DC.B    "Mensagem via trap #1",13,10,0
04:00000441 2076696120747261
04:00000449 70202331
04:0000044D 0D
04:0000044E 0A
04:0000044F 00
                            	    64: MsgNewLine:
04:00000450 0D              	    65:     DC.B    13,10,0
04:00000451 0A
04:00000452 00
                            	    66: MsgA0:
04:00000453 0D              	    67:     DC.B    13,10,"A0: ",0
04:00000454 0A
04:00000455 41303A20
04:00000459 00
                            	    68: MsgA1:
04:0000045A 202D2041313A20  	    69:     DC.B    " - A1: ",0
04:00000461 00
                            	    70: MsgA2:
04:00000462 202D2041323A20  	    71:     DC.B    " - A2: ",0
04:00000469 00
                            	    72: MsgA3:
04:0000046A 202D2041333A20  	    73:     DC.B    " - A3: ",0
04:00000471 00
                            	    74: MsgA4:
04:00000472 202D2041343A20  	    75:     DC.B    " - A4: ",0
04:00000479 00
                            	    76: MsgD0:
04:0000047A 0D              	    77:     DC.B    13,10,"D0: ",0
04:0000047B 0A
04:0000047C 44303A20
04:00000480 00
                            	    78: MsgD1:
04:00000481 202D2044313A20  	    79:     DC.B    " - D1: ",0
04:00000488 00
                            	    80: MsgD2:
04:00000489 202D2044323A20  	    81:     DC.B    " - D2: ",0
04:00000490 00
                            	    82: MsgD3:
04:00000491 202D2044323A20  	    83:     DC.B    " - D2: ",0
04:00000498 00
                            	    84: MsgD4:
04:00000499 202D2044343A20  	    85:     DC.B    " - D4: ",0
04:000004A0 00
                            	    86: 
04:000004A1 457863657074696F	    87: MsgDebug:     DC.B "Exception - PC: ",0
04:000004A9 6E202D2050433A20
04:000004B1 00
04:000004B2 5374617475732052	    88: MsgSr:        DC.B "Status Reg: ",0
04:000004BA 65673A20
04:000004BE 00
                            	    89: ;MsgSp:        DC.B "Stack Reg: ",0
                            	    90: ;MsgSpu:       DC.B "StackU Reg: ",0
04:000004BF 566563746F72206F	    91: MsgVector:    DC.B "Vector offset: ",0
04:000004C7 66667365743A20
04:000004CE 00
04:000004CF 566563746F72206E	    92: MsgVectorNum: DC.B "Vector number: ",0
04:000004D7 756D6265723A20
04:000004DE 00
04:000004DF 427573204572726F	    93: MsgBusError:  DC.B "Bus Error!",0
04:000004E7 7221
04:000004E9 00
04:000004EA 4164647265737320	    94: MsgAddrError: DC.B "Address Error!",0
04:000004F2 4572726F7221
04:000004F8 00
04:000004F9 496C6C6567616C20	    95: MsgIllegal:   DC.B "Illegal Instruction!",0
04:00000501 496E737472756374
04:00000509 696F6E21
04:0000050D 00
04:0000050E 5452415020496E73	    96: MsgTrap:      DC.B "TRAP Instruction!",0
04:00000516 7472756374696F6E
04:0000051E 21
04:0000051F 00
04:00000520 556E6B6E6F776E20	    97: MsgUnknown:   DC.B "Unknown Exception!",0
04:00000528 457863657074696F
04:00000530 6E21
04:00000532 00
                            	    98: 
                            	    99: ;    ALIGN   2
                            	   100: ;    ;Isso preenche 762 com 00
                            	   101: ;    ;DS.B    $00000762 - *, $00
                            	   102: ;    DC.B    "ROMv4.1",0   ; String de identificação
                            	   103: ;    ;DS.B    $00002968 - *, $00
                            	   104: ;    ORG     $3FFC
                            	   105: ;checksum_rom:
                            	   106: ;    DC.L    0     ; Valor calculado
                            	   107: 

Source: "vbug2-0.asm"
                            	   474:         INCLUDE "section_bss.asm"

Source: "section_bss.asm"
                            	     1: ; ----------------------------------------------------------------------
                            	     2: ; SECTION bss
                            	     3: ;-----------------------------------------------------------------------
                            	     4:     SECTION .bss
                            	     5:     ORG     RAM_VARIABLES ;RAM VARIABLES               ; Área para variáveis
                            	     6:         ALIGN 4
                            	     7: ;=== System variables
05:00080400 00000000        	     8: romBase             DS.L 1
05:00080404 00000000        	     9: romSize             DS.L 1
05:00080408 00000000        	    10: ramBase             DS.L 1
05:0008040C 00000000        	    11: ramSize             DS.L 1
05:00080410 00000000        	    12: currentUart         DS.L 1
05:00080414 00000000        	    13: cconout             DS.L 1
05:00080418 00000000        	    14: cconin              DS.L 1
                            	    15: ;currentTimer        DS.L 1
                            	    16: ;flg_orion           DS.L   1         ;minhas_flags   
                            	    17: ;checksumCalc       DS.L   1
05:0008041C 00000000        	    18: monitorStack       DS.L   1
05:00080420 00000000        	    19: systemTick          DS.L   1
05:00080424 00000000        	    20: addressInHex        DS.L   1
                            	    21: 
                            	    22:         ALIGN 2
05:00080428 00              	    23: buf_xmodem          DS.B   512        ; Buffer de dados
05:00080429 *
05:00080628 00              	    24: buf_put             DS.B   512    
05:00080629 *
05:00080828 00              	    25: buf_get             DS.B   512    
05:00080829 *
05:00080A28 0000            	    26: currentBaudRate     DS.W 1
05:00080A2A 00              	    27: chPayloadBuffer     DS.B   16                ; Buffer temporário para acomodar os dados HID
05:00080A2B *
05:00080A3A 00              	    28: flg_pgm_loaded      DS.B   1
                            	    29: ;blockNumber         DS.B   1          ; Número do bloco atual
                            	    30: ;expectedBlock       DS.B   1          ; Próximo bloco esperado
                            	    31: 
                            	    32: SECTION DATA
                            	    33:      
                            	    34: ; --- Limites da Tabela ---
                            	    35: SCAN_START  EQU     $04             ; Letra 'A'
                            	    36: SCAN_END    EQU     $38             ; Tecla '/' e '?' (no layout US)
                            	    37: 
                            	    38: ; -----------------------------------------------------------------------------
                            	    39: ; TABELA ASCII NORMAL (Sem Shift)
                            	    40: ; Índice 0 corresponde ao Scan Code $04
                            	    41: ; -----------------------------------------------------------------------------
                            	    42: ASCII_Table_Normal:
                            	    43:     ; Letras A-Z (Scan Codes $04 - $1D)
06:00000000 61              	    44:     dc.b    "a","b","c","d","e","f","g","h","i","j","k","l","m"
06:00000001 62
06:00000002 63
06:00000003 64
06:00000004 65
06:00000005 66
06:00000006 67
06:00000007 68
06:00000008 69
06:00000009 6A
06:0000000A 6B
06:0000000B 6C
06:0000000C 6D
06:0000000D 6E              	    45:     dc.b    "n","o","p","q","r","s","t","u","v","w","x","y","z"
06:0000000E 6F
06:0000000F 70
06:00000010 71
06:00000011 72
06:00000012 73
06:00000013 74
06:00000014 75
06:00000015 76
06:00000016 77
06:00000017 78
06:00000018 79
06:00000019 7A
                            	    46:     ; Números 1-9, 0 (Scan Codes $1E - $27)
06:0000001A 31              	    47:     dc.b    "1","2","3","4","5","6","7","8","9","0"
06:0000001B 32
06:0000001C 33
06:0000001D 34
06:0000001E 35
06:0000001F 36
06:00000020 37
06:00000021 38
06:00000022 39
06:00000023 30
                            	    48:     ; Controles estruturais (Scan Codes $28 - $2B)
06:00000024 0D              	    49:     dc.b    $0D                     ; $28: Enter (CR)
06:00000025 1B              	    50:     dc.b    $1B                     ; $29: ESC
06:00000026 08              	    51:     dc.b    $08                     ; $2A: Backspace (BS)
06:00000027 09              	    52:     dc.b    $09                     ; $2B: Tab
                            	    53:     ; Pontuação e Símbolos (Scan Codes $2C - $38)
06:00000028 20              	    54:     dc.b    " "                     ; $2C: Espaço
06:00000029 2D              	    55:     dc.b    "-"                     ; $2D: - e _
06:0000002A 3D              	    56:     dc.b    "="                     ; $2E: = e +
06:0000002B 5B              	    57:     dc.b    "["                     ; $2F: [ e {
06:0000002C 5D              	    58:     dc.b    "]"                     ; $30: ] e }
06:0000002D 5C              	    59:     dc.b    "\"                     ; $31: \ e |
06:0000002E 23              	    60:     dc.b    "#"                     ; $32: Não-US # e ~ (geralmente ignorado)
06:0000002F 3B              	    61:     dc.b    ";"                     ; $33: ; e :
06:00000030 27              	    62:     dc.b    "'"                     ; $34: ' e "
06:00000031 60              	    63:     dc.b    "`"                     ; $35: ` e ~
06:00000032 2C              	    64:     dc.b    ","                     ; $36: , e <
06:00000033 2E              	    65:     dc.b    "."                     ; $37: . e >
06:00000034 2F              	    66:     dc.b    "/"                     ; $38: / e ?
                            	    67:     ALIGN   2
                            	    68: 
                            	    69: ; -----------------------------------------------------------------------------
                            	    70: ; TABELA ASCII COM SHIFT ATIVO
                            	    71: ; Índice 0 corresponde ao Scan Code $04
                            	    72: ; -----------------------------------------------------------------------------
                            	    73: ASCII_Table_Shift:
                            	    74:     ; Letras A-Z Caixa Alta (Scan Codes $04 - $1D)
06:00000038 41              	    75:     dc.b    "A","B","C","D","E","F","G","H","I","Y","K","L","M"
06:00000039 42
06:0000003A 43
06:0000003B 44
06:0000003C 45
06:0000003D 46
06:0000003E 47
06:0000003F 48
06:00000040 49
06:00000041 59
06:00000042 4B
06:00000043 4C
06:00000044 4D
06:00000045 4E              	    76:     dc.b    "N","O","P","Q","R","S","T","U","V","W","X","Y","Z"
06:00000046 4F
06:00000047 50
06:00000048 51
06:00000049 52
06:0000004A 53
06:0000004B 54
06:0000004C 55
06:0000004D 56
06:0000004E 57
06:0000004F 58
06:00000050 59
06:00000051 5A
                            	    77:     ; Símbolos sobre os números (Scan Codes $1E - $27 - Padrão Internacional US)
06:00000052 21              	    78:     dc.b    "!","@","#","$","%","^","&","*","(",")"
06:00000053 40
06:00000054 23
06:00000055 24
06:00000056 25
06:00000057 5E
06:00000058 26
06:00000059 2A
06:0000005A 28
06:0000005B 29
                            	    79:     ; Controles estruturais (Mantêm o mesmo efeito com Shift)
06:0000005C 0D              	    80:     dc.b    $0D                     ; $28: Enter
06:0000005D 1B              	    81:     dc.b    $1B                     ; $29: ESC
06:0000005E 08              	    82:     dc.b    $08                     ; $2A: Backspace
06:0000005F 09              	    83:     dc.b    $09                     ; $2B: Tab
                            	    84:     ; Símbolos com Shift (Scan Codes $2C - $38)
06:00000060 20              	    85:     dc.b    " "                     ; $2C: Espaço
06:00000061 5F              	    86:     dc.b    "_"                     ; $2D: Underscore
06:00000062 2B              	    87:     dc.b    "+"                     ; $2E: Mais
06:00000063 7B              	    88:     dc.b    "{"                     ; $2F: Chave Aberta
06:00000064 7D              	    89:     dc.b    "}"                     ; $30: Chave Fechada
06:00000065 7C              	    90:     dc.b    "|"                     ; $31: Barra Vertical
06:00000066 7E              	    91:     dc.b    "~"                     ; $32: ~
06:00000067 3A              	    92:     dc.b    ":"                     ; $33: Dois Pontos
06:00000068 22              	    93:     dc.b    '"'                     ; $34: Aspas Duplas
06:00000069 7E              	    94:     dc.b    "~"                     ; $35: Til / Crase
06:0000006A 3C              	    95:     dc.b    "<"                     ; $36: Menor Que
06:0000006B 3E              	    96:     dc.b    ">"                     ; $37: Maior Que
06:0000006C 3F              	    97:     dc.b    "?"                     ; $38: Interrogação
                            	    98:     ALIGN   2
                            	    99: 
                            	   100: 
                            	   101:         ORG $00082000
                            	   102:         ALIGN 2
06:00082000 00              	   103: buf_pgm             DS.B   8192
06:00082001 *
                            	   104:         END

Source: "vbug2-0.asm"
                            	   475: 
                            	   476:         END


Symbols by name:
ACK                              E:00000006
ASCII_Table_Normal              06:00000000
ASCII_Table_Shift               06:00000038
AsciiLoop                        A:00001918
B115200                          E:00000008
BUILD_DATE                      04:000000F7
CH_HEAD1                         E:00000057
CH_HEAD2                         E:000000AB
CMD_CCONIN                       E:00000001
CMD_CCONOUT                      E:00000002
CMD_CCONOUTSTR                   E:00000003
CMD_CLEAR_SCREEN                 E:000000A4
CMD_GO_HOME                      E:000000A1
CMD_PTERM0                       E:00000000
CMD_SET_CUR_POS                  E:000000A3
DLL                              E:00000001
DLM                              E:00000003
DUMPLOOPMASTER                   A:000018B2
DecodeToAscii                    A:00001804
DefaultHandler                   A:00001014
DelUartPrintByteHex              A:000015F8
DelUartPrintHexAddress           A:000015E8
DelUartReadCharEcho              A:00001518
DelUartReadCharEcho2             A:0000153C
DelUartReadHex                   A:0000156C
DelUartWriteString               A:00001558
DumpLoop                         A:000018CA
DumpPayloadHex                   A:00001862
EOT                              E:00000004
FCR                              E:00000005
FlushConin                       A:000013AC
ISR                              E:00000005
InitPicoVga                      A:000016DE
InitTrap1                        A:00001B62
InitUart                         A:00001474
InitUart1                        A:000014A4
InitUartb                        A:00001614
InitUartb1                       A:00001644
Int1Handler                      A:00001154
Int2Handler                      A:00001164
Int3Handler                      A:00001174
Int4Handler                      A:00001184
Int5Handler                      A:00001194
Int6Handler                      A:000011A4
Int7Handler                      A:000011B6
LCR                              E:00000007
LSR                              E:0000000B
MERDA                            A:00001AB2
MemDump                          A:00001884
MemDump0                         A:000012CC
MsgA0                           04:00000453
MsgA1                           04:0000045A
MsgA2                           04:00000462
MsgA3                           04:0000046A
MsgA4                           04:00000472
MsgAddrError                    04:000004EA
MsgBufferEmpty                  04:000002FF
MsgBusError                     04:000004DF
MsgCs                           04:000003F7
MsgCscalc                       04:00000407
MsgD0                           04:0000047A
MsgD1                           04:00000481
MsgD2                           04:00000489
MsgD3                           04:00000491
MsgD4                           04:00000499
MsgDebug                        04:000004A1
MsgDefaultHandler               04:0000041A
MsgDumpHeader                   04:00000000
MsgDumpHeader1                  04:00000018
MsgHitAnyKey                    04:0000037F
MsgIllegal                      04:000004F9
MsgLoadDoneMsg                  04:0000026B
MsgMenuText                     04:00000161
MsgNewLine                      04:00000450
MsgNoProgramToRUN               04:000002D1
MsgOrionInit                    04:000000AC
MsgOutOfRange                   04:00000250
MsgPromptNotImplemented         04:000002EC
MsgRunPrompt                    04:000002BA
MsgSr                           04:000004B2
MsgTestHexInput                 04:00000315
MsgTrap                         04:0000050E
MsgUnknown                      04:00000520
MsgVector                       04:000004BF
MsgVectorNum                    04:000004CF
MsgViaTrap1                     04:00000439
MsgWriteDoneMsg                 04:0000029E
MsgWritePrompt                  04:0000028C
MsgXmodemInit                   04:000003B2
MsgXmodemWaitingSoh             04:000003D0
NACK                             E:00000015
NewLine                          A:000011C8
NextAscii                        A:00001934
NoEndLine                        A:00001950
NoNewLine                        A:000018EA
NonPrintable                     A:0000192C
PicoClearScreen                  A:00001758
PicoGoHome                       A:000016E8
PicoPrintByteHex                 A:0000179E
PicoPrintHexAddress              A:0000178E
PicoPrintString                  A:00001782
PicoRunCmd                       A:000016E0
PicoSetCursor                    A:000016F4
PicoWriteChar                    A:0000176A
PrintAx                          A:0000197E
PrintByteHex                     A:00001B92
PrintByteHexConout               A:00001458
PrintDx                          A:000019E2
PrintHexAddress                  A:00001B6E
PrintHexAddressConout            A:00001448
PrintWordHex                     A:00001B82
RAMBASE                          E:00080000
RAMSIZE                          E:0007FFFF
RAM_VARIABLES                    E:00080400
RAM_VECTOR_BASE                  E:00080000
REG_X_HIGH                       E:00FF802D
REG_X_LOW                        E:00FF802F
REG_Y_HIGH                       E:00FF8031
REG_Y_LOW                        E:00FF8033
RHR                              E:00000001
ROM_JUMPTABLE                    A:00000400
RUN_CMD                          E:00FF803D
ReadConin                        A:000013AC
ReadHexAddressConin              A:000013CC
ReadInHexa                       A:00001344
ReadPacketKbd                    A:000017BA
RunProgram                       A:0000130A
RunTrap1                         A:000012EE
SCAN_END                         E:00000038
SCAN_START                       E:00000004
SCR                              E:0000000F
SECTION                          A:00080A3B
SERVICE_ADDR_ERR                 A:00001002
SERVICE_BUS_ERR                  A:00001000
SERVICE_CHECK                    A:00001008
SERVICE_DIV0                     A:00001006
SERVICE_ILLEGAL                  A:00001004
SERVICE_LINE_A                   A:00001010
SERVICE_LINE_F                   A:00001012
SERVICE_PRIV                     A:0000100C
SERVICE_TRACE                    A:0000100E
SERVICE_TRAPV                    A:0000100A
SPR                              E:0000000F
SpuriousHandler                  A:000010CE
THR                              E:00000001
TmpDumpPayloadHex                A:000012DE
TmpReadPacketKbd                 A:000012E6
Trap0Handler                     A:000010D0
Trap1Handler                     A:000010D8
Trap2Handler                     A:000010E4
Trap3Handler                     A:000010EC
Trap4Handler                     A:000010F4
Trap5Handler                     A:000010FC
Trap6Handler                     A:00001104
Trap7Handler                     A:0000110C
Trap8Handler                     A:00001114
Trap9Handler                     A:0000111C
TrapAHandler                     A:00001124
TrapBHandler                     A:0000112C
TrapCHandler                     A:00001134
TrapDHandler                     A:0000113C
TrapEHandler                     A:00001144
TrapFHandler                     A:0000114C
UARTB_BASE                       E:00FF4100
UART_BASE                        E:00FF4000
UART_ReadHex1                    A:00001360
UartFlush                        A:00001502
UartReadChar                     A:000014EA
UartWriteChar                    A:000014D2
UartbReadChar                    A:0000168A
UartbReadCharEcho                A:000016A6
UartbWriteChar                   A:00001672
UartbWriteString                 A:000016CA
Universal_Trampoline             A:000011C6
Vbug2Start                       A:000011E2
WRITE_SCREEN                     E:00FF8001
WriteConout                      A:000013B6
WriteStringConout                A:000013C0
Xmodem                           A:000012C4
XmodemRec                        A:00001A40
addressInHex                     A:00080424
buf_get                          A:00080828
buf_pgm                          A:00082000
buf_put                          A:00080628
buf_xmodem                       A:00080428
cconin                           A:00080418
cconout                          A:00080414
chPayloadBuffer                  A:00080A2A
currentBaudRate                  A:00080A28
currentUart                      A:00080410
flg_pgm_loaded                   A:00080A3A
hardware_exit                    A:00001B5E
mainLoop                         A:0000126C
monitorStack                     A:0008041C
ramBase                          A:00080408
ramSize                          A:0008040C
romBase                          A:00080400
romSize                          A:00080404
subLoop                          A:0000126C
systemTick                       A:00080420
trap_cconin                      A:00001B32
trap_cconout                     A:00001B42
trap_pterm0                      A:00001B56
trap_strout                      A:00001B4E
vbug2_trap1                      A:00001B18

Symbols by value:
00000000 ASCII_Table_Normal
00000000 CMD_PTERM0
00000000 MsgDumpHeader
00000001 CMD_CCONIN
00000001 DLL
00000001 RHR
00000001 THR
00000002 CMD_CCONOUT
00000003 CMD_CCONOUTSTR
00000003 DLM
00000004 EOT
00000004 SCAN_START
00000005 FCR
00000005 ISR
00000006 ACK
00000007 LCR
00000008 B115200
0000000B LSR
0000000F SCR
0000000F SPR
00000015 NACK
00000018 MsgDumpHeader1
00000038 ASCII_Table_Shift
00000038 SCAN_END
00000057 CH_HEAD1
000000A1 CMD_GO_HOME
000000A3 CMD_SET_CUR_POS
000000A4 CMD_CLEAR_SCREEN
000000AB CH_HEAD2
000000AC MsgOrionInit
000000F7 BUILD_DATE
00000161 MsgMenuText
00000250 MsgOutOfRange
0000026B MsgLoadDoneMsg
0000028C MsgWritePrompt
0000029E MsgWriteDoneMsg
000002BA MsgRunPrompt
000002D1 MsgNoProgramToRUN
000002EC MsgPromptNotImplemented
000002FF MsgBufferEmpty
00000315 MsgTestHexInput
0000037F MsgHitAnyKey
000003B2 MsgXmodemInit
000003D0 MsgXmodemWaitingSoh
000003F7 MsgCs
00000400 ROM_JUMPTABLE
00000407 MsgCscalc
0000041A MsgDefaultHandler
00000439 MsgViaTrap1
00000450 MsgNewLine
00000453 MsgA0
0000045A MsgA1
00000462 MsgA2
0000046A MsgA3
00000472 MsgA4
0000047A MsgD0
00000481 MsgD1
00000489 MsgD2
00000491 MsgD3
00000499 MsgD4
000004A1 MsgDebug
000004B2 MsgSr
000004BF MsgVector
000004CF MsgVectorNum
000004DF MsgBusError
000004EA MsgAddrError
000004F9 MsgIllegal
0000050E MsgTrap
00000520 MsgUnknown
00001000 SERVICE_BUS_ERR
00001002 SERVICE_ADDR_ERR
00001004 SERVICE_ILLEGAL
00001006 SERVICE_DIV0
00001008 SERVICE_CHECK
0000100A SERVICE_TRAPV
0000100C SERVICE_PRIV
0000100E SERVICE_TRACE
00001010 SERVICE_LINE_A
00001012 SERVICE_LINE_F
00001014 DefaultHandler
000010CE SpuriousHandler
000010D0 Trap0Handler
000010D8 Trap1Handler
000010E4 Trap2Handler
000010EC Trap3Handler
000010F4 Trap4Handler
000010FC Trap5Handler
00001104 Trap6Handler
0000110C Trap7Handler
00001114 Trap8Handler
0000111C Trap9Handler
00001124 TrapAHandler
0000112C TrapBHandler
00001134 TrapCHandler
0000113C TrapDHandler
00001144 TrapEHandler
0000114C TrapFHandler
00001154 Int1Handler
00001164 Int2Handler
00001174 Int3Handler
00001184 Int4Handler
00001194 Int5Handler
000011A4 Int6Handler
000011B6 Int7Handler
000011C6 Universal_Trampoline
000011C8 NewLine
000011E2 Vbug2Start
0000126C mainLoop
0000126C subLoop
000012C4 Xmodem
000012CC MemDump0
000012DE TmpDumpPayloadHex
000012E6 TmpReadPacketKbd
000012EE RunTrap1
0000130A RunProgram
00001344 ReadInHexa
00001360 UART_ReadHex1
000013AC FlushConin
000013AC ReadConin
000013B6 WriteConout
000013C0 WriteStringConout
000013CC ReadHexAddressConin
00001448 PrintHexAddressConout
00001458 PrintByteHexConout
00001474 InitUart
000014A4 InitUart1
000014D2 UartWriteChar
000014EA UartReadChar
00001502 UartFlush
00001518 DelUartReadCharEcho
0000153C DelUartReadCharEcho2
00001558 DelUartWriteString
0000156C DelUartReadHex
000015E8 DelUartPrintHexAddress
000015F8 DelUartPrintByteHex
00001614 InitUartb
00001644 InitUartb1
00001672 UartbWriteChar
0000168A UartbReadChar
000016A6 UartbReadCharEcho
000016CA UartbWriteString
000016DE InitPicoVga
000016E0 PicoRunCmd
000016E8 PicoGoHome
000016F4 PicoSetCursor
00001758 PicoClearScreen
0000176A PicoWriteChar
00001782 PicoPrintString
0000178E PicoPrintHexAddress
0000179E PicoPrintByteHex
000017BA ReadPacketKbd
00001804 DecodeToAscii
00001862 DumpPayloadHex
00001884 MemDump
000018B2 DUMPLOOPMASTER
000018CA DumpLoop
000018EA NoNewLine
00001918 AsciiLoop
0000192C NonPrintable
00001934 NextAscii
00001950 NoEndLine
0000197E PrintAx
000019E2 PrintDx
00001A40 XmodemRec
00001AB2 MERDA
00001B18 vbug2_trap1
00001B32 trap_cconin
00001B42 trap_cconout
00001B4E trap_strout
00001B56 trap_pterm0
00001B5E hardware_exit
00001B62 InitTrap1
00001B6E PrintHexAddress
00001B82 PrintWordHex
00001B92 PrintByteHex
0007FFFF RAMSIZE
00080000 RAMBASE
00080000 RAM_VECTOR_BASE
00080400 RAM_VARIABLES
00080400 romBase
00080404 romSize
00080408 ramBase
0008040C ramSize
00080410 currentUart
00080414 cconout
00080418 cconin
0008041C monitorStack
00080420 systemTick
00080424 addressInHex
00080428 buf_xmodem
00080628 buf_put
00080828 buf_get
00080A28 currentBaudRate
00080A2A chPayloadBuffer
00080A3A flg_pgm_loaded
00080A3B SECTION
00082000 buf_pgm
00FF4000 UART_BASE
00FF4100 UARTB_BASE
00FF8001 WRITE_SCREEN
00FF802D REG_X_HIGH
00FF802F REG_X_LOW
00FF8031 REG_Y_HIGH
00FF8033 REG_Y_LOW
00FF803D RUN_CMD
